(lp0
(lp1
(lp2
F4.81204387277248
aF5.719051995955145
aF1.2315488669007375
aF752.0990750678804
aF1226.2930941050283
aF940.4900080269095
aF0.007267865584002221
aF0.007267865584002221
aF0.007267865584002221
aF0.007267865584002221
aF0.007267865584002221
aF0.007267865584002221
aF0.007267865584002221
aF0.007267865584002221
aF0.007267865584002221
aF0.007267865584002221
aI0
aI0
aI8
aI1
aI0
aI0
aI9
aI0
aI0
aI1
aI7
aI0
aI0
aI5
aI7
aI0
aI0
aI0
aI13
aI0
aI0
aI0
aI0
aI0
aI2
aI0
aI0
aI0
aI4
aI13
aI0
aI0
aI0
aI3
aI10
aI0
aI0
aI0
aI0
aI0
aI6
aI0
aI0
aI1
aI2
aI2
aI0
aI9
aI0
aI15
aI4
aI0
aI1
aI3
aI8
aI2
aI2
aI6
aI6
aI1
aI0
aI3
aI0
aI0
aI0
aI12
aI4
aI2
aI0
aI3
aI1
aI2
aI16
aI1
aI1
aI1
aI0
aI0
aI0
aI0
aI2
aI3
aI16
aI10
aI2
aI0
aI0
aI5
aI36
aI0
aI0
aI2
aI1
aI3
aI4
aI2
aI0
aI1
aI14
aI6
aI0
aI0
aI0
aI20
aI0
aI0
aI0
aI7
aI1
aI15
aI0
aI0
aI0
aI7
aI4
aI0
aI0
aI5
aI0
aI0
aI1
aI4
aI1
aI0
aI0
aI11
aI0
aI0
aI0
aI0
aI0
aI0
aI0
aI0
aI0
aI0
aI0
aI0
aI0
aI0
aI0
aI0
aI0
aI0
aI0
aI0
aI0
aI0
aI0
aI0
aI0
aI0
aI0
aI0
aI0
aI0
aI0
aI0
aI0
aI0
aI0
aI0
aI0
aI12
aI0
aI0
aI0
aI214
aI0
aI0
aI0
aI0
aI0
aI0
aI0
aI0
aI0
aI0
aI0
aI0
aI0
aI0
aI0
aI0
aI0
aI0
aI0
aI0
aI0
aI0
aI0
aI0
aI0
aI0
aI0
aI0
aI0
aI0
aI0
aI0
aI0
aI0
aI0
aI0
aI0
aI0
aI0
aI0
aI0
aI0
aI0
aI0
aI30
aI0
aI0
aI0
aI36
aI0
aI0
aI8
aI0
aI0
aI0
aI0
aI0
aI0
aI0
aI0
aI38
aI0
aI0
aI0
aI42
aI0
aI0
aI0
aI0
aI0
aI0
aI0
aI0
aI0
aI0
aI0
aI0
aI0
aI0
aI0
aI0
aI0
aI0
aI0
aI0
aI0
aI0
aI0
aI0
aI0
aI0
aI0
aI0
aI0
aI0
aI0
aI0
aI0
aI0
aI0
aI0
aI0
aI0
aI0
aI0
aI0
aI0
aI0
aI56
aI0
aI0
aI0
aI48
aI0
aI0
aI0
aI0
aI0
aI0
aI0
aI0
aI0
aI0
aI0
aI37
aI0
aI0
aI0
aI85
aI0
aI0
aI0
aI0
aI0
aI0
aI0
aI0
aI0
aI0
aI0
aI0
aI0
aI0
aI0
aI0
aI0
aI0
aI0
aI0
aI0
aI0
aI0
aa(lp3
F7.1604035409317985
aF13.564065031873914
aF12.093176929793621
aF545.080937535126
aF1170.6666068832342
aF359.6522044167491
aF1.0389246938316405
aF1.0389246938316405
aF1.0389246938316405
aF1.0389246938316405
aF1.0389246938316405
aF1.0389246938316405
aF1.0389246938316405
aF1.0389246938316405
aF1.0389246938316405
aF1.0389246938316405
aI0
aI0
aI7
aI0
aI2
aI2
aI9
aI0
aI0
aI8
aI6
aI0
aI0
aI13
aI2
aI0
aI1
aI0
aI18
aI0
aI0
aI0
aI0
aI0
aI2
aI0
aI0
aI2
aI0
aI17
aI1
aI2
aI0
aI0
aI12
aI0
aI0
aI0
aI0
aI0
aI2
aI0
aI0
aI0
aI0
aI12
aI2
aI1
aI0
aI5
aI11
aI0
aI0
aI15
aI4
aI1
aI2
aI37
aI3
aI1
aI0
aI10
aI0
aI0
aI1
aI2
aI5
aI1
aI6
aI1
aI3
aI5
aI0
aI1
aI4
aI3
aI0
aI9
aI3
aI0
aI1
aI0
aI12
aI1
aI7
aI0
aI0
aI3
aI16
aI0
aI0
aI1
aI1
aI13
aI0
aI0
aI0
aI3
aI17
aI2
aI0
aI0
aI0
aI32
aI1
aI0
aI0
aI5
aI0
aI14
aI2
aI0
aI0
aI5
aI5
aI0
aI0
aI6
aI0
aI0
aI0
aI6
aI0
aI1
aI0
aI11
aI0
aI0
aI0
aI0
aI0
aI0
aI0
aI0
aI0
aI0
aI0
aI0
aI0
aI0
aI0
aI0
aI0
aI0
aI0
aI0
aI0
aI0
aI0
aI0
aI0
aI0
aI0
aI0
aI0
aI0
aI0
aI0
aI0
aI0
aI0
aI0
aI0
aI0
aI0
aI0
aI0
aI209
aI0
aI0
aI0
aI0
aI0
aI0
aI0
aI0
aI0
aI0
aI0
aI0
aI0
aI0
aI0
aI0
aI0
aI0
aI0
aI0
aI0
aI0
aI0
aI0
aI0
aI0
aI0
aI0
aI0
aI0
aI0
aI0
aI0
aI0
aI0
aI0
aI0
aI0
aI0
aI0
aI0
aI0
aI0
aI0
aI39
aI0
aI0
aI0
aI72
aI0
aI0
aI0
aI0
aI0
aI0
aI0
aI0
aI0
aI0
aI0
aI42
aI0
aI0
aI1
aI56
aI0
aI0
aI0
aI0
aI0
aI0
aI0
aI0
aI0
aI0
aI0
aI0
aI0
aI0
aI0
aI0
aI0
aI0
aI0
aI0
aI0
aI0
aI0
aI0
aI0
aI0
aI0
aI0
aI0
aI0
aI0
aI0
aI0
aI0
aI0
aI0
aI0
aI0
aI0
aI0
aI0
aI0
aI0
aI41
aI0
aI0
aI0
aI60
aI0
aI0
aI0
aI0
aI0
aI0
aI0
aI0
aI0
aI0
aI0
aI38
aI0
aI0
aI0
aI70
aI0
aI0
aI0
aI0
aI0
aI0
aI0
aI0
aI0
aI0
aI0
aI0
aI0
aI0
aI0
aI0
aI0
aI0
aI0
aI0
aI0
aI0
aI0
aa(lp4
F0.15924121110951697
aF-0.6800896984845808
aF1.8291771795684475
aF645.646725637185
aF1521.6809050227591
aF723.6466105227121
aF1.2750288209357397
aF1.2750288209357397
aF1.2750288209357397
aF1.2750288209357397
aF1.2750288209357397
aF1.2750288209357397
aF1.2750288209357397
aF1.2750288209357397
aF1.2750288209357397
aF1.2750288209357397
aI0
aI1
aI7
aI0
aI1
aI3
aI8
aI1
aI1
aI5
aI21
aI2
aI0
aI12
aI2
aI0
aI1
aI2
aI18
aI2
aI4
aI0
aI0
aI0
aI0
aI0
aI0
aI2
aI1
aI18
aI0
aI0
aI0
aI2
aI24
aI1
aI1
aI0
aI0
aI0
aI0
aI0
aI0
aI0
aI2
aI11
aI2
aI1
aI0
aI4
aI13
aI0
aI0
aI24
aI6
aI1
aI1
aI16
aI2
aI0
aI3
aI7
aI1
aI0
aI0
aI1
aI8
aI0
aI3
aI0
aI1
aI0
aI2
aI0
aI2
aI0
aI0
aI0
aI0
aI0
aI0
aI0
aI13
aI6
aI5
aI0
aI0
aI1
aI52
aI0
aI0
aI0
aI0
aI1
aI0
aI0
aI0
aI4
aI11
aI0
aI0
aI0
aI0
aI27
aI0
aI0
aI0
aI16
aI0
aI18
aI7
aI4
aI0
aI8
aI8
aI0
aI0
aI7
aI6
aI1
aI0
aI7
aI0
aI0
aI0
aI7
aI1
aI0
aI0
aI0
aI0
aI0
aI0
aI0
aI0
aI0
aI0
aI0
aI0
aI0
aI0
aI0
aI0
aI0
aI0
aI0
aI0
aI0
aI0
aI0
aI0
aI5
aI0
aI0
aI0
aI0
aI0
aI0
aI0
aI0
aI0
aI0
aI0
aI0
aI0
aI0
aI0
aI214
aI0
aI0
aI0
aI8
aI0
aI0
aI0
aI0
aI0
aI0
aI0
aI0
aI0
aI0
aI0
aI0
aI0
aI0
aI0
aI0
aI0
aI0
aI0
aI0
aI0
aI0
aI0
aI0
aI0
aI0
aI0
aI0
aI0
aI0
aI0
aI0
aI0
aI0
aI0
aI0
aI0
aI0
aI0
aI0
aI43
aI0
aI0
aI0
aI43
aI0
aI0
aI0
aI0
aI0
aI0
aI0
aI0
aI0
aI0
aI0
aI50
aI0
aI0
aI7
aI91
aI0
aI0
aI0
aI0
aI0
aI0
aI0
aI0
aI0
aI0
aI0
aI0
aI0
aI0
aI0
aI0
aI0
aI0
aI0
aI0
aI0
aI0
aI0
aI0
aI0
aI0
aI0
aI0
aI0
aI0
aI0
aI0
aI0
aI0
aI0
aI0
aI0
aI0
aI0
aI0
aI0
aI0
aI0
aI53
aI0
aI0
aI0
aI34
aI0
aI0
aI0
aI0
aI0
aI0
aI0
aI0
aI0
aI0
aI0
aI42
aI0
aI0
aI0
aI98
aI0
aI0
aI0
aI0
aI0
aI0
aI0
aI0
aI0
aI0
aI0
aI0
aI0
aI0
aI0
aI0
aI0
aI0
aI0
aI0
aI0
aI0
aI0
aa(lp5
F-1.1688549497817229
aF-13.858238788411404
aF28.25967595990706
aF754.0099630033294
aF1120.1223134512506
aF526.0942051412968
aF2.05813602868441
aF2.05813602868441
aF2.05813602868441
aF2.05813602868441
aF2.05813602868441
aF2.05813602868441
aF2.05813602868441
aF2.05813602868441
aF2.05813602868441
aF2.05813602868441
aI0
aI0
aI22
aI1
aI0
aI1
aI9
aI2
aI1
aI1
aI10
aI0
aI0
aI11
aI6
aI0
aI0
aI2
aI30
aI5
aI5
aI0
aI0
aI0
aI4
aI0
aI0
aI3
aI0
aI14
aI1
aI0
aI0
aI3
aI24
aI2
aI7
aI0
aI0
aI1
aI8
aI0
aI0
aI5
aI2
aI8
aI0
aI2
aI0
aI8
aI11
aI0
aI1
aI17
aI7
aI1
aI6
aI6
aI4
aI0
aI1
aI2
aI1
aI0
aI1
aI0
aI0
aI0
aI3
aI1
aI0
aI0
aI3
aI0
aI0
aI0
aI1
aI1
aI1
aI0
aI0
aI1
aI6
aI0
aI17
aI0
aI0
aI2
aI50
aI0
aI0
aI0
aI2
aI0
aI0
aI2
aI1
aI5
aI11
aI0
aI0
aI0
aI0
aI46
aI0
aI0
aI0
aI14
aI1
aI11
aI6
aI2
aI0
aI7
aI9
aI0
aI0
aI6
aI2
aI0
aI0
aI7
aI0
aI0
aI0
aI12
aI2
aI0
aI0
aI0
aI0
aI0
aI0
aI0
aI0
aI0
aI0
aI0
aI0
aI0
aI0
aI0
aI0
aI0
aI0
aI0
aI0
aI0
aI0
aI0
aI0
aI0
aI0
aI0
aI0
aI0
aI0
aI0
aI0
aI0
aI0
aI0
aI0
aI0
aI0
aI0
aI0
aI203
aI0
aI0
aI0
aI30
aI0
aI0
aI0
aI0
aI0
aI0
aI0
aI0
aI0
aI0
aI0
aI0
aI0
aI0
aI0
aI0
aI0
aI0
aI0
aI0
aI0
aI0
aI0
aI0
aI0
aI0
aI0
aI0
aI0
aI0
aI0
aI0
aI0
aI0
aI0
aI0
aI0
aI0
aI0
aI0
aI48
aI0
aI0
aI0
aI44
aI0
aI0
aI0
aI0
aI0
aI0
aI0
aI0
aI0
aI0
aI0
aI35
aI0
aI0
aI27
aI101
aI0
aI0
aI0
aI0
aI0
aI0
aI0
aI0
aI0
aI0
aI0
aI0
aI0
aI0
aI0
aI0
aI0
aI0
aI0
aI0
aI0
aI0
aI0
aI0
aI0
aI0
aI0
aI0
aI0
aI0
aI0
aI0
aI0
aI0
aI0
aI0
aI0
aI0
aI0
aI0
aI0
aI0
aI0
aI59
aI0
aI0
aI0
aI39
aI0
aI0
aI0
aI0
aI0
aI0
aI0
aI0
aI0
aI0
aI0
aI30
aI0
aI0
aI0
aI105
aI0
aI0
aI0
aI0
aI0
aI0
aI0
aI0
aI0
aI0
aI0
aI0
aI0
aI0
aI0
aI0
aI0
aI0
aI0
aI0
aI0
aI0
aI0
aa(lp6
F-2.844634417942784
aF-6.82204901852644
aF1.0508501723082277
aF646.8578087633629
aF867.7846659395216
aF139.48857982317332
aF0.9245649274944677
aF0.9245649274944677
aF0.9245649274944677
aF0.9245649274944677
aF0.9245649274944677
aF0.9245649274944677
aF0.9245649274944677
aF0.9245649274944677
aF0.9245649274944677
aF0.9245649274944677
aI0
aI0
aI17
aI0
aI0
aI0
aI10
aI0
aI0
aI1
aI9
aI0
aI0
aI10
aI1
aI0
aI2
aI0
aI15
aI1
aI2
aI0
aI0
aI2
aI0
aI0
aI0
aI2
aI0
aI12
aI0
aI0
aI9
aI8
aI18
aI0
aI10
aI0
aI0
aI0
aI1
aI0
aI0
aI5
aI2
aI11
aI1
aI3
aI0
aI2
aI4
aI0
aI2
aI13
aI4
aI1
aI2
aI15
aI2
aI0
aI1
aI5
aI0
aI0
aI0
aI0
aI0
aI0
aI2
aI0
aI0
aI0
aI0
aI0
aI0
aI0
aI0
aI0
aI0
aI0
aI2
aI3
aI11
aI3
aI6
aI0
aI0
aI2
aI26
aI0
aI0
aI0
aI1
aI5
aI5
aI2
aI0
aI0
aI7
aI2
aI0
aI0
aI0
aI47
aI0
aI0
aI0
aI18
aI4
aI4
aI4
aI4
aI0
aI1
aI4
aI3
aI0
aI4
aI5
aI2
aI1
aI8
aI1
aI0
aI1
aI12
aI5
aI0
aI0
aI0
aI0
aI0
aI0
aI0
aI0
aI0
aI0
aI0
aI0
aI0
aI0
aI0
aI0
aI0
aI0
aI0
aI0
aI0
aI0
aI0
aI0
aI0
aI0
aI0
aI0
aI0
aI0
aI0
aI0
aI0
aI0
aI0
aI0
aI0
aI0
aI0
aI0
aI205
aI0
aI0
aI0
aI0
aI0
aI0
aI0
aI0
aI0
aI0
aI0
aI0
aI0
aI0
aI0
aI0
aI0
aI0
aI0
aI0
aI0
aI0
aI0
aI0
aI0
aI0
aI0
aI0
aI0
aI0
aI0
aI0
aI0
aI0
aI0
aI0
aI0
aI0
aI0
aI0
aI0
aI0
aI0
aI0
aI52
aI0
aI0
aI0
aI32
aI0
aI0
aI0
aI0
aI0
aI0
aI0
aI0
aI0
aI0
aI0
aI34
aI0
aI0
aI0
aI85
aI0
aI0
aI0
aI0
aI0
aI0
aI0
aI0
aI0
aI0
aI0
aI0
aI0
aI0
aI0
aI0
aI0
aI0
aI0
aI0
aI0
aI0
aI0
aI0
aI0
aI0
aI0
aI0
aI0
aI0
aI0
aI0
aI0
aI0
aI0
aI0
aI0
aI0
aI0
aI0
aI0
aI0
aI0
aI54
aI0
aI0
aI0
aI25
aI0
aI0
aI0
aI0
aI0
aI0
aI0
aI0
aI0
aI0
aI0
aI32
aI0
aI0
aI0
aI94
aI0
aI0
aI0
aI0
aI0
aI0
aI0
aI0
aI0
aI0
aI0
aI0
aI0
aI0
aI0
aI0
aI0
aI0
aI0
aI0
aI0
aI0
aI0
aa(lp7
F-3.9556056296347153
aF-5.512820393327018
aF1.664408244975778
aF607.6631424500088
aF968.4225038295526
aF660.0639965443704
aF0.8284125670717338
aF0.8284125670717338
aF0.8284125670717338
aF0.8284125670717338
aF0.8284125670717338
aF0.8284125670717338
aF0.8284125670717338
aF0.8284125670717338
aF0.8284125670717338
aF0.8284125670717338
aI0
aI1
aI9
aI1
aI1
aI2
aI13
aI2
aI4
aI0
aI8
aI1
aI0
aI10
aI3
aI0
aI1
aI0
aI16
aI1
aI13
aI0
aI0
aI0
aI3
aI0
aI0
aI5
aI1
aI15
aI1
aI2
aI0
aI0
aI12
aI1
aI11
aI0
aI0
aI3
aI4
aI0
aI0
aI7
aI2
aI3
aI1
aI3
aI2
aI11
aI8
aI0
aI5
aI10
aI2
aI2
aI6
aI3
aI0
aI1
aI0
aI0
aI0
aI0
aI1
aI0
aI0
aI0
aI3
aI0
aI0
aI0
aI1
aI0
aI0
aI0
aI0
aI1
aI1
aI0
aI2
aI4
aI1
aI1
aI7
aI0
aI0
aI2
aI12
aI0
aI0
aI6
aI2
aI9
aI6
aI5
aI0
aI4
aI4
aI4
aI0
aI0
aI0
aI47
aI0
aI0
aI0
aI33
aI4
aI11
aI1
aI0
aI0
aI4
aI4
aI2
aI0
aI6
aI2
aI1
aI0
aI10
aI1
aI0
aI0
aI11
aI2
aI0
aI0
aI0
aI0
aI0
aI0
aI0
aI0
aI0
aI0
aI0
aI0
aI0
aI0
aI0
aI0
aI0
aI0
aI0
aI0
aI0
aI0
aI0
aI0
aI0
aI0
aI0
aI0
aI0
aI0
aI0
aI0
aI0
aI0
aI0
aI0
aI0
aI0
aI0
aI0
aI215
aI0
aI0
aI0
aI0
aI0
aI0
aI0
aI0
aI0
aI0
aI0
aI0
aI0
aI0
aI0
aI0
aI0
aI0
aI0
aI0
aI0
aI0
aI0
aI0
aI0
aI0
aI0
aI0
aI0
aI0
aI0
aI0
aI0
aI0
aI1
aI1
aI0
aI0
aI0
aI0
aI14
aI5
aI0
aI0
aI23
aI0
aI0
aI0
aI31
aI0
aI0
aI0
aI0
aI0
aI0
aI0
aI0
aI0
aI0
aI0
aI42
aI0
aI0
aI3
aI90
aI0
aI0
aI0
aI0
aI0
aI0
aI0
aI0
aI0
aI0
aI0
aI0
aI0
aI0
aI0
aI0
aI0
aI0
aI0
aI0
aI0
aI0
aI0
aI0
aI0
aI0
aI0
aI0
aI0
aI0
aI0
aI0
aI0
aI0
aI0
aI0
aI0
aI0
aI0
aI0
aI0
aI0
aI0
aI43
aI0
aI0
aI0
aI32
aI0
aI0
aI0
aI0
aI0
aI0
aI0
aI0
aI0
aI0
aI0
aI41
aI0
aI0
aI0
aI99
aI0
aI0
aI0
aI0
aI0
aI0
aI0
aI0
aI0
aI0
aI0
aI0
aI0
aI0
aI0
aI0
aI0
aI0
aI0
aI0
aI0
aI0
aI0
aa(lp8
F0.8239141722185053
aF-2.0062627810619564
aF3.2488228059145614
aF558.0726756238016
aF1252.8112837913725
aF280.69920745315375
aF0.6608620524203042
aF0.6608620524203042
aF0.6608620524203042
aF0.6608620524203042
aF0.6608620524203042
aF0.6608620524203042
aF0.6608620524203042
aF0.6608620524203042
aF0.6608620524203042
aF0.6608620524203042
aI0
aI0
aI14
aI0
aI5
aI0
aI7
aI0
aI0
aI3
aI5
aI1
aI0
aI9
aI1
aI0
aI0
aI0
aI16
aI0
aI18
aI0
aI0
aI0
aI0
aI0
aI0
aI3
aI0
aI21
aI2
aI2
aI2
aI0
aI15
aI0
aI7
aI0
aI0
aI2
aI8
aI0
aI0
aI6
aI2
aI6
aI3
aI3
aI2
aI10
aI6
aI0
aI4
aI5
aI3
aI0
aI6
aI10
aI0
aI0
aI0
aI0
aI0
aI0
aI1
aI0
aI0
aI0
aI10
aI2
aI0
aI1
aI7
aI1
aI1
aI0
aI0
aI0
aI0
aI0
aI3
aI4
aI0
aI2
aI7
aI0
aI0
aI1
aI23
aI0
aI0
aI5
aI1
aI9
aI6
aI3
aI0
aI5
aI12
aI5
aI0
aI0
aI0
aI40
aI0
aI0
aI0
aI17
aI1
aI13
aI0
aI1
aI0
aI3
aI4
aI0
aI0
aI4
aI4
aI0
aI0
aI5
aI2
aI0
aI0
aI14
aI1
aI0
aI0
aI0
aI0
aI0
aI0
aI0
aI0
aI0
aI0
aI0
aI0
aI0
aI0
aI0
aI0
aI0
aI0
aI0
aI0
aI0
aI0
aI0
aI0
aI0
aI0
aI0
aI0
aI0
aI0
aI0
aI0
aI0
aI0
aI0
aI0
aI0
aI0
aI0
aI0
aI218
aI0
aI0
aI0
aI0
aI0
aI0
aI0
aI0
aI0
aI0
aI0
aI0
aI0
aI0
aI0
aI0
aI0
aI0
aI0
aI0
aI0
aI0
aI0
aI0
aI0
aI0
aI0
aI0
aI0
aI0
aI0
aI0
aI0
aI0
aI0
aI0
aI0
aI0
aI0
aI0
aI18
aI0
aI0
aI0
aI22
aI0
aI0
aI0
aI32
aI0
aI0
aI0
aI0
aI0
aI0
aI0
aI8
aI0
aI0
aI0
aI36
aI0
aI0
aI1
aI90
aI0
aI0
aI0
aI0
aI0
aI0
aI0
aI0
aI0
aI0
aI0
aI0
aI0
aI0
aI0
aI0
aI0
aI0
aI0
aI0
aI0
aI0
aI0
aI0
aI0
aI0
aI0
aI0
aI0
aI0
aI0
aI0
aI0
aI0
aI0
aI0
aI0
aI0
aI0
aI0
aI0
aI0
aI0
aI49
aI0
aI0
aI0
aI32
aI0
aI0
aI0
aI0
aI0
aI0
aI0
aI0
aI0
aI0
aI0
aI36
aI0
aI0
aI0
aI101
aI0
aI0
aI0
aI0
aI0
aI0
aI0
aI0
aI0
aI0
aI0
aI0
aI0
aI0
aI0
aI0
aI0
aI0
aI0
aI0
aI0
aI0
aI0
aa(lp9
F-40.05093716644419
aF-9.543087656237491
aF48.82164604553793
aF1010.9110395522845
aF1348.8683683956165
aF876.0213370619476
aF0.8116326126554286
aF0.8116326126554286
aF0.8116326126554286
aF0.8116326126554286
aF0.8116326126554286
aF0.8116326126554286
aF0.8116326126554286
aF0.8116326126554286
aF0.8116326126554286
aF0.8116326126554286
aI0
aI0
aI16
aI4
aI0
aI0
aI30
aI1
aI0
aI7
aI16
aI0
aI0
aI16
aI3
aI0
aI0
aI2
aI17
aI3
aI1
aI0
aI0
aI0
aI1
aI0
aI0
aI5
aI1
aI9
aI4
aI3
aI0
aI4
aI22
aI0
aI4
aI0
aI0
aI0
aI2
aI0
aI0
aI4
aI1
aI1
aI4
aI3
aI0
aI7
aI8
aI0
aI4
aI12
aI2
aI0
aI3
aI2
aI0
aI2
aI0
aI2
aI1
aI0
aI1
aI0
aI1
aI0
aI17
aI1
aI2
aI2
aI10
aI1
aI1
aI1
aI0
aI0
aI0
aI0
aI7
aI2
aI0
aI1
aI14
aI0
aI0
aI7
aI32
aI0
aI0
aI1
aI3
aI0
aI1
aI0
aI5
aI9
aI4
aI5
aI0
aI0
aI0
aI17
aI0
aI0
aI0
aI23
aI5
aI6
aI0
aI1
aI0
aI4
aI2
aI1
aI1
aI5
aI5
aI1
aI0
aI12
aI3
aI1
aI0
aI11
aI0
aI0
aI0
aI0
aI0
aI0
aI0
aI0
aI0
aI0
aI0
aI0
aI0
aI0
aI0
aI0
aI0
aI0
aI0
aI0
aI0
aI0
aI0
aI0
aI0
aI0
aI0
aI0
aI0
aI0
aI0
aI0
aI0
aI0
aI0
aI0
aI0
aI0
aI0
aI0
aI0
aI212
aI0
aI0
aI0
aI14
aI0
aI0
aI0
aI0
aI0
aI0
aI0
aI0
aI0
aI0
aI0
aI0
aI0
aI0
aI0
aI0
aI0
aI0
aI0
aI0
aI0
aI0
aI15
aI0
aI0
aI3
aI14
aI0
aI0
aI2
aI10
aI0
aI0
aI0
aI3
aI0
aI0
aI0
aI15
aI1
aI0
aI0
aI0
aI0
aI0
aI0
aI0
aI0
aI0
aI13
aI0
aI0
aI0
aI12
aI1
aI21
aI0
aI0
aI0
aI1
aI0
aI0
aI0
aI0
aI11
aI42
aI0
aI0
aI0
aI11
aI0
aI6
aI0
aI11
aI15
aI2
aI13
aI0
aI0
aI0
aI5
aI0
aI0
aI0
aI0
aI0
aI0
aI0
aI0
aI0
aI0
aI0
aI0
aI0
aI0
aI0
aI0
aI0
aI0
aI0
aI0
aI0
aI0
aI0
aI58
aI0
aI0
aI0
aI27
aI0
aI0
aI0
aI0
aI0
aI0
aI0
aI0
aI0
aI0
aI0
aI38
aI0
aI0
aI0
aI103
aI0
aI0
aI0
aI0
aI0
aI0
aI0
aI0
aI0
aI0
aI0
aI0
aI0
aI0
aI0
aI0
aI0
aI0
aI0
aI0
aI0
aI0
aI0
aa(lp10
F-3.2058395672248845
aF5.132302790707429
aF16.134721267569333
aF993.3985407468451
aF960.7901253711556
aF1813.4147125593913
aF1.0780112654951004
aF1.0780112654951004
aF1.0780112654951004
aF1.0780112654951004
aF1.0780112654951004
aF1.0780112654951004
aF1.0780112654951004
aF1.0780112654951004
aF1.0780112654951004
aF1.0780112654951004
aI0
aI0
aI12
aI1
aI1
aI1
aI9
aI2
aI0
aI5
aI13
aI0
aI0
aI5
aI11
aI1
aI1
aI1
aI15
aI0
aI1
aI0
aI0
aI1
aI2
aI0
aI0
aI1
aI3
aI12
aI5
aI1
aI0
aI0
aI15
aI0
aI1
aI0
aI0
aI0
aI5
aI0
aI0
aI0
aI0
aI1
aI2
aI5
aI0
aI4
aI21
aI0
aI3
aI14
aI8
aI0
aI4
aI14
aI4
aI0
aI1
aI8
aI0
aI0
aI1
aI0
aI0
aI0
aI8
aI0
aI0
aI1
aI1
aI1
aI0
aI0
aI0
aI0
aI0
aI0
aI2
aI2
aI0
aI0
aI36
aI0
aI0
aI0
aI7
aI0
aI0
aI1
aI0
aI0
aI0
aI0
aI1
aI10
aI7
aI7
aI0
aI0
aI0
aI8
aI0
aI0
aI0
aI67
aI0
aI2
aI6
aI6
aI0
aI8
aI6
aI0
aI0
aI7
aI0
aI0
aI0
aI7
aI0
aI0
aI0
aI8
aI2
aI0
aI0
aI0
aI0
aI0
aI0
aI0
aI0
aI0
aI0
aI0
aI0
aI0
aI0
aI0
aI0
aI0
aI0
aI0
aI0
aI0
aI0
aI0
aI0
aI0
aI0
aI0
aI0
aI0
aI0
aI0
aI0
aI0
aI0
aI0
aI0
aI0
aI0
aI0
aI0
aI149
aI0
aI0
aI0
aI63
aI0
aI0
aI0
aI0
aI0
aI0
aI0
aI0
aI0
aI0
aI0
aI0
aI0
aI0
aI0
aI0
aI0
aI0
aI0
aI0
aI0
aI0
aI0
aI0
aI0
aI0
aI0
aI0
aI0
aI0
aI0
aI0
aI0
aI0
aI0
aI0
aI0
aI0
aI0
aI0
aI38
aI0
aI0
aI0
aI93
aI0
aI0
aI0
aI0
aI0
aI0
aI0
aI0
aI0
aI0
aI0
aI44
aI0
aI0
aI9
aI30
aI0
aI0
aI0
aI0
aI0
aI0
aI0
aI0
aI0
aI0
aI0
aI0
aI0
aI0
aI0
aI0
aI0
aI0
aI0
aI0
aI0
aI0
aI0
aI0
aI0
aI0
aI0
aI0
aI0
aI0
aI0
aI0
aI0
aI0
aI0
aI0
aI0
aI0
aI0
aI0
aI0
aI0
aI0
aI41
aI0
aI0
aI0
aI62
aI0
aI0
aI0
aI0
aI0
aI0
aI0
aI0
aI0
aI0
aI0
aI43
aI0
aI0
aI0
aI66
aI0
aI0
aI0
aI0
aI0
aI0
aI0
aI0
aI0
aI0
aI0
aI0
aI0
aI0
aI0
aI0
aI0
aI0
aI0
aI0
aI0
aI0
aI0
aa(lp11
F-1.5293469889990277
aF-8.120064747224253
aF6.229010527135829
aF707.4185852213348
aF982.059633131536
aF431.0993215061831
aF0.6648114315612018
aF0.6648114315612018
aF0.6648114315612018
aF0.6648114315612018
aF0.6648114315612018
aF0.6648114315612018
aF0.6648114315612018
aF0.6648114315612018
aF0.6648114315612018
aF0.6648114315612018
aI0
aI0
aI11
aI0
aI0
aI0
aI12
aI0
aI0
aI0
aI10
aI0
aI0
aI4
aI8
aI0
aI0
aI0
aI13
aI0
aI0
aI0
aI0
aI0
aI3
aI0
aI0
aI0
aI2
aI5
aI2
aI1
aI1
aI3
aI18
aI0
aI1
aI0
aI0
aI0
aI4
aI0
aI0
aI2
aI2
aI3
aI2
aI1
aI1
aI11
aI14
aI1
aI4
aI15
aI8
aI2
aI2
aI13
aI3
aI2
aI1
aI5
aI1
aI0
aI0
aI1
aI0
aI0
aI12
aI2
aI2
aI1
aI5
aI0
aI0
aI2
aI0
aI0
aI1
aI0
aI0
aI2
aI2
aI3
aI30
aI0
aI0
aI0
aI17
aI0
aI0
aI1
aI2
aI0
aI0
aI0
aI1
aI8
aI2
aI8
aI0
aI0
aI0
aI5
aI0
aI0
aI0
aI38
aI0
aI5
aI8
aI3
aI1
aI4
aI3
aI0
aI0
aI6
aI3
aI0
aI0
aI9
aI0
aI0
aI0
aI11
aI3
aI0
aI0
aI0
aI0
aI0
aI0
aI0
aI0
aI0
aI0
aI0
aI0
aI0
aI0
aI0
aI0
aI0
aI0
aI0
aI0
aI0
aI0
aI0
aI0
aI0
aI0
aI0
aI0
aI0
aI0
aI0
aI0
aI0
aI0
aI0
aI0
aI0
aI0
aI0
aI0
aI91
aI0
aI0
aI0
aI110
aI0
aI0
aI0
aI0
aI0
aI0
aI0
aI0
aI0
aI0
aI0
aI0
aI0
aI0
aI0
aI0
aI0
aI0
aI0
aI0
aI0
aI0
aI0
aI0
aI3
aI0
aI0
aI1
aI0
aI0
aI0
aI0
aI0
aI0
aI0
aI0
aI0
aI0
aI0
aI0
aI35
aI0
aI0
aI0
aI33
aI0
aI0
aI0
aI0
aI0
aI0
aI0
aI0
aI0
aI0
aI0
aI41
aI0
aI0
aI1
aI77
aI0
aI0
aI0
aI0
aI0
aI0
aI0
aI0
aI0
aI0
aI0
aI0
aI0
aI0
aI0
aI0
aI0
aI0
aI0
aI0
aI0
aI0
aI0
aI0
aI0
aI0
aI0
aI0
aI0
aI0
aI0
aI0
aI0
aI0
aI0
aI0
aI0
aI0
aI0
aI0
aI0
aI0
aI0
aI52
aI0
aI0
aI0
aI26
aI0
aI0
aI0
aI0
aI0
aI0
aI0
aI0
aI0
aI0
aI0
aI29
aI0
aI0
aI0
aI94
aI0
aI0
aI0
aI0
aI0
aI0
aI0
aI0
aI0
aI0
aI0
aI0
aI0
aI0
aI0
aI0
aI0
aI0
aI0
aI0
aI0
aI0
aI0
aa(lp12
F-16.906889378943507
aF-9.798706804988145
aF23.83664958121574
aF673.431256763861
aF1106.3976262653161
aF260.24425323443654
aF0.30694460406905094
aF0.30694460406905094
aF0.30694460406905094
aF0.30694460406905094
aF0.30694460406905094
aF0.30694460406905094
aF0.30694460406905094
aF0.30694460406905094
aF0.30694460406905094
aF0.30694460406905094
aI0
aI1
aI14
aI1
aI0
aI0
aI12
aI2
aI0
aI0
aI11
aI2
aI0
aI8
aI6
aI0
aI1
aI1
aI11
aI0
aI3
aI0
aI0
aI2
aI0
aI0
aI0
aI3
aI0
aI7
aI4
aI0
aI0
aI2
aI14
aI0
aI2
aI0
aI0
aI0
aI1
aI0
aI0
aI1
aI0
aI0
aI0
aI3
aI0
aI7
aI8
aI1
aI4
aI14
aI5
aI3
aI0
aI13
aI2
aI3
aI0
aI0
aI4
aI0
aI1
aI1
aI0
aI0
aI13
aI0
aI0
aI0
aI2
aI0
aI0
aI0
aI0
aI0
aI0
aI0
aI2
aI0
aI1
aI2
aI27
aI0
aI0
aI0
aI24
aI0
aI0
aI0
aI0
aI1
aI1
aI0
aI3
aI6
aI8
aI2
aI0
aI0
aI0
aI10
aI0
aI0
aI0
aI45
aI3
aI5
aI5
aI4
aI0
aI7
aI1
aI0
aI0
aI5
aI0
aI1
aI0
aI10
aI0
aI0
aI0
aI11
aI3
aI0
aI0
aI0
aI0
aI0
aI0
aI0
aI0
aI0
aI0
aI0
aI0
aI0
aI0
aI0
aI0
aI0
aI0
aI0
aI0
aI0
aI0
aI0
aI0
aI0
aI0
aI0
aI0
aI0
aI0
aI0
aI0
aI0
aI0
aI0
aI0
aI0
aI0
aI0
aI0
aI133
aI0
aI0
aI0
aI71
aI0
aI0
aI0
aI0
aI0
aI0
aI0
aI0
aI0
aI0
aI0
aI0
aI0
aI0
aI0
aI0
aI0
aI0
aI0
aI0
aI0
aI3
aI9
aI0
aI6
aI3
aI0
aI0
aI0
aI0
aI0
aI0
aI0
aI0
aI0
aI0
aI4
aI5
aI2
aI0
aI7
aI0
aI0
aI0
aI17
aI0
aI0
aI6
aI0
aI0
aI0
aI0
aI0
aI0
aI0
aI0
aI38
aI0
aI0
aI0
aI76
aI0
aI0
aI0
aI0
aI0
aI0
aI0
aI0
aI0
aI0
aI0
aI0
aI0
aI0
aI0
aI0
aI0
aI0
aI0
aI0
aI0
aI0
aI0
aI0
aI0
aI0
aI0
aI0
aI0
aI0
aI0
aI0
aI0
aI0
aI0
aI0
aI0
aI0
aI0
aI0
aI0
aI0
aI0
aI47
aI0
aI0
aI0
aI42
aI0
aI0
aI0
aI0
aI0
aI0
aI0
aI0
aI0
aI0
aI0
aI33
aI0
aI0
aI0
aI82
aI0
aI0
aI0
aI0
aI0
aI0
aI0
aI0
aI0
aI0
aI0
aI0
aI0
aI0
aI0
aI0
aI0
aI0
aI0
aI0
aI0
aI0
aI0
aa(lp13
F-21.52732033509887
aF-7.742574095111423
aF31.050840614496472
aF646.8529505862142
aF891.7042121337045
aF434.21951441955594
aF0.16204914536548126
aF0.16204914536548126
aF0.16204914536548126
aF0.16204914536548126
aF0.16204914536548126
aF0.16204914536548126
aF0.16204914536548126
aF0.16204914536548126
aF0.16204914536548126
aF0.16204914536548126
aI0
aI0
aI5
aI3
aI0
aI0
aI14
aI0
aI0
aI0
aI11
aI0
aI0
aI1
aI9
aI0
aI5
aI2
aI15
aI2
aI2
aI0
aI0
aI1
aI0
aI0
aI0
aI1
aI2
aI0
aI1
aI4
aI2
aI1
aI19
aI3
aI7
aI0
aI0
aI1
aI1
aI0
aI0
aI4
aI0
aI1
aI1
aI8
aI1
aI7
aI11
aI0
aI8
aI11
aI2
aI1
aI2
aI2
aI4
aI2
aI0
aI2
aI5
aI0
aI1
aI2
aI0
aI0
aI18
aI2
aI0
aI0
aI9
aI2
aI1
aI0
aI0
aI0
aI0
aI0
aI2
aI1
aI0
aI1
aI11
aI0
aI0
aI3
aI22
aI0
aI0
aI3
aI7
aI10
aI7
aI4
aI5
aI6
aI0
aI2
aI2
aI0
aI0
aI30
aI0
aI0
aI0
aI28
aI8
aI5
aI1
aI1
aI0
aI5
aI1
aI2
aI1
aI5
aI2
aI2
aI1
aI10
aI0
aI0
aI0
aI6
aI2
aI0
aI0
aI0
aI0
aI0
aI0
aI0
aI0
aI0
aI0
aI0
aI0
aI0
aI0
aI0
aI0
aI0
aI0
aI0
aI0
aI0
aI0
aI0
aI0
aI0
aI0
aI0
aI0
aI0
aI0
aI0
aI0
aI0
aI0
aI0
aI0
aI0
aI0
aI0
aI0
aI141
aI0
aI0
aI0
aI90
aI0
aI0
aI0
aI0
aI0
aI0
aI0
aI0
aI0
aI0
aI0
aI0
aI0
aI0
aI0
aI0
aI0
aI0
aI0
aI0
aI0
aI0
aI0
aI0
aI0
aI0
aI0
aI0
aI0
aI0
aI0
aI0
aI0
aI0
aI0
aI0
aI4
aI3
aI2
aI4
aI2
aI0
aI0
aI20
aI9
aI0
aI0
aI10
aI0
aI0
aI0
aI0
aI0
aI0
aI0
aI0
aI43
aI0
aI0
aI0
aI87
aI0
aI0
aI0
aI0
aI0
aI0
aI0
aI0
aI0
aI0
aI0
aI0
aI0
aI0
aI0
aI0
aI0
aI0
aI0
aI0
aI0
aI0
aI0
aI0
aI0
aI0
aI0
aI0
aI0
aI0
aI0
aI0
aI0
aI0
aI0
aI0
aI0
aI0
aI0
aI0
aI0
aI0
aI0
aI47
aI0
aI0
aI0
aI41
aI0
aI0
aI0
aI0
aI0
aI0
aI0
aI0
aI0
aI0
aI0
aI41
aI0
aI0
aI0
aI102
aI0
aI0
aI0
aI0
aI0
aI0
aI0
aI0
aI0
aI0
aI0
aI0
aI0
aI0
aI0
aI0
aI0
aI0
aI0
aI0
aI0
aI0
aI0
aa(lp14
F-9.132072575051223
aF-13.798142266508107
aF7.491840358568919
aF747.0873331114882
aF1293.0689420129652
aF364.73295600336
aF0.31828542078341726
aF0.31828542078341726
aF0.31828542078341726
aF0.31828542078341726
aF0.31828542078341726
aF0.31828542078341726
aF0.31828542078341726
aF0.31828542078341726
aF0.31828542078341726
aF0.31828542078341726
aI0
aI0
aI13
aI0
aI0
aI0
aI11
aI0
aI0
aI1
aI12
aI0
aI0
aI8
aI8
aI0
aI1
aI0
aI13
aI1
aI10
aI0
aI0
aI0
aI9
aI0
aI0
aI3
aI1
aI6
aI5
aI4
aI9
aI1
aI15
aI2
aI9
aI0
aI0
aI2
aI6
aI0
aI0
aI11
aI2
aI3
aI2
aI1
aI0
aI6
aI6
aI0
aI8
aI11
aI4
aI0
aI8
aI5
aI0
aI2
aI0
aI1
aI1
aI0
aI1
aI0
aI0
aI1
aI20
aI3
aI0
aI2
aI4
aI2
aI2
aI3
aI0
aI1
aI1
aI1
aI1
aI3
aI0
aI2
aI33
aI0
aI0
aI2
aI23
aI0
aI0
aI5
aI1
aI0
aI0
aI3
aI6
aI5
aI8
aI4
aI0
aI0
aI0
aI27
aI0
aI0
aI0
aI29
aI4
aI8
aI2
aI5
aI0
aI2
aI5
aI0
aI0
aI9
aI1
aI2
aI0
aI9
aI1
aI0
aI0
aI10
aI4
aI0
aI0
aI0
aI0
aI0
aI0
aI0
aI0
aI0
aI0
aI0
aI0
aI0
aI0
aI0
aI0
aI0
aI0
aI0
aI0
aI0
aI0
aI0
aI0
aI0
aI0
aI0
aI0
aI0
aI0
aI0
aI0
aI0
aI0
aI0
aI0
aI0
aI0
aI0
aI0
aI120
aI0
aI0
aI0
aI135
aI0
aI0
aI0
aI0
aI0
aI0
aI0
aI0
aI0
aI0
aI0
aI0
aI0
aI0
aI0
aI0
aI0
aI0
aI0
aI0
aI5
aI1
aI0
aI0
aI11
aI2
aI1
aI1
aI0
aI0
aI0
aI0
aI0
aI0
aI0
aI0
aI20
aI1
aI0
aI0
aI5
aI0
aI0
aI0
aI84
aI0
aI0
aI2
aI0
aI0
aI0
aI0
aI0
aI0
aI0
aI0
aI45
aI0
aI0
aI1
aI42
aI0
aI0
aI0
aI0
aI0
aI0
aI0
aI0
aI0
aI0
aI0
aI0
aI0
aI0
aI0
aI0
aI0
aI0
aI0
aI0
aI0
aI0
aI0
aI0
aI0
aI0
aI0
aI0
aI0
aI0
aI0
aI0
aI0
aI0
aI0
aI0
aI0
aI0
aI0
aI0
aI0
aI0
aI0
aI60
aI0
aI0
aI0
aI35
aI0
aI0
aI0
aI0
aI0
aI0
aI0
aI0
aI0
aI0
aI0
aI33
aI0
aI0
aI0
aI127
aI0
aI0
aI0
aI0
aI0
aI0
aI0
aI0
aI0
aI0
aI0
aI0
aI0
aI0
aI0
aI0
aI0
aI0
aI0
aI0
aI0
aI0
aI0
aa(lp15
F-16.07444024374118
aF-15.040537332373995
aF14.995165977998893
aF501.14457759831276
aF836.0323071407238
aF122.05586895729269
aF0.1057875997232823
aF0.1057875997232823
aF0.1057875997232823
aF0.1057875997232823
aF0.1057875997232823
aF0.1057875997232823
aF0.1057875997232823
aF0.1057875997232823
aF0.1057875997232823
aF0.1057875997232823
aI0
aI0
aI8
aI1
aI0
aI0
aI10
aI0
aI0
aI0
aI14
aI1
aI1
aI4
aI5
aI0
aI1
aI0
aI9
aI2
aI7
aI0
aI0
aI0
aI3
aI0
aI0
aI0
aI3
aI3
aI4
aI2
aI2
aI8
aI7
aI0
aI11
aI0
aI0
aI2
aI0
aI0
aI0
aI8
aI1
aI0
aI2
aI1
aI0
aI9
aI4
aI0
aI11
aI7
aI2
aI1
aI5
aI14
aI3
aI1
aI0
aI3
aI1
aI1
aI0
aI1
aI0
aI0
aI16
aI1
aI1
aI0
aI2
aI1
aI0
aI0
aI0
aI0
aI0
aI0
aI0
aI1
aI0
aI0
aI56
aI0
aI0
aI1
aI34
aI0
aI0
aI0
aI0
aI0
aI0
aI0
aI2
aI6
aI7
aI4
aI1
aI0
aI0
aI20
aI0
aI0
aI0
aI44
aI0
aI0
aI0
aI5
aI1
aI4
aI2
aI0
aI2
aI4
aI3
aI1
aI0
aI8
aI3
aI0
aI0
aI7
aI3
aI0
aI0
aI0
aI0
aI0
aI0
aI0
aI0
aI0
aI0
aI0
aI0
aI0
aI0
aI0
aI0
aI0
aI0
aI0
aI0
aI0
aI0
aI0
aI0
aI0
aI0
aI0
aI0
aI0
aI0
aI0
aI0
aI0
aI0
aI0
aI0
aI0
aI0
aI0
aI0
aI174
aI0
aI0
aI0
aI67
aI0
aI0
aI0
aI0
aI0
aI0
aI0
aI0
aI0
aI0
aI0
aI0
aI0
aI0
aI0
aI0
aI0
aI0
aI0
aI0
aI0
aI0
aI0
aI0
aI3
aI0
aI0
aI0
aI0
aI0
aI0
aI0
aI0
aI0
aI0
aI0
aI0
aI0
aI0
aI0
aI39
aI0
aI0
aI0
aI64
aI0
aI0
aI1
aI0
aI0
aI0
aI0
aI0
aI0
aI0
aI0
aI39
aI0
aI0
aI0
aI36
aI0
aI0
aI0
aI0
aI0
aI0
aI0
aI0
aI0
aI0
aI0
aI0
aI0
aI0
aI0
aI0
aI0
aI0
aI0
aI0
aI0
aI0
aI0
aI0
aI0
aI0
aI0
aI0
aI0
aI0
aI0
aI0
aI0
aI0
aI0
aI0
aI0
aI0
aI0
aI0
aI0
aI0
aI0
aI57
aI0
aI0
aI0
aI24
aI0
aI0
aI0
aI0
aI0
aI0
aI0
aI0
aI0
aI0
aI0
aI32
aI0
aI0
aI0
aI128
aI0
aI0
aI0
aI0
aI0
aI0
aI0
aI0
aI0
aI0
aI0
aI0
aI0
aI0
aI0
aI0
aI0
aI0
aI0
aI0
aI0
aI0
aI0
aa(lp16
F1.9432745429065008
aF-3.0609177285940463
aF0.19832898865560128
aF837.2284510072146
aF1452.008083320377
aF179.12501727972628
aF0.46944253314760137
aF0.46944253314760137
aF0.46944253314760137
aF0.46944253314760137
aF0.46944253314760137
aF0.46944253314760137
aF0.46944253314760137
aF0.46944253314760137
aF0.46944253314760137
aF0.46944253314760137
aI0
aI0
aI14
aI2
aI0
aI1
aI10
aI0
aI4
aI2
aI11
aI2
aI0
aI6
aI11
aI0
aI0
aI0
aI9
aI1
aI13
aI0
aI0
aI0
aI12
aI0
aI0
aI3
aI2
aI19
aI2
aI0
aI0
aI0
aI16
aI0
aI3
aI0
aI0
aI0
aI7
aI0
aI0
aI4
aI1
aI5
aI2
aI2
aI0
aI13
aI6
aI0
aI13
aI20
aI0
aI1
aI4
aI10
aI0
aI0
aI0
aI1
aI0
aI0
aI0
aI0
aI0
aI0
aI15
aI0
aI0
aI0
aI6
aI2
aI0
aI2
aI0
aI1
aI2
aI0
aI3
aI3
aI1
aI0
aI49
aI0
aI0
aI1
aI22
aI0
aI0
aI4
aI0
aI0
aI3
aI0
aI5
aI5
aI9
aI2
aI0
aI0
aI0
aI18
aI1
aI0
aI0
aI33
aI0
aI14
aI1
aI5
aI1
aI4
aI4
aI2
aI0
aI9
aI1
aI1
aI0
aI13
aI0
aI0
aI1
aI12
aI0
aI0
aI0
aI0
aI0
aI0
aI0
aI0
aI0
aI0
aI0
aI0
aI0
aI0
aI0
aI0
aI0
aI0
aI0
aI0
aI0
aI0
aI0
aI0
aI0
aI0
aI0
aI0
aI0
aI0
aI0
aI0
aI0
aI0
aI0
aI0
aI0
aI0
aI0
aI0
aI0
aI132
aI0
aI0
aI0
aI123
aI0
aI0
aI0
aI0
aI0
aI0
aI0
aI0
aI0
aI0
aI0
aI0
aI0
aI0
aI0
aI0
aI0
aI0
aI0
aI0
aI0
aI0
aI0
aI0
aI0
aI0
aI0
aI0
aI1
aI0
aI0
aI0
aI0
aI0
aI0
aI0
aI0
aI0
aI0
aI0
aI45
aI0
aI0
aI0
aI81
aI0
aI0
aI0
aI0
aI0
aI0
aI0
aI0
aI0
aI0
aI0
aI50
aI0
aI0
aI0
aI55
aI0
aI0
aI0
aI0
aI0
aI0
aI0
aI0
aI0
aI0
aI0
aI0
aI0
aI0
aI0
aI0
aI0
aI0
aI0
aI0
aI0
aI0
aI0
aI0
aI0
aI0
aI0
aI0
aI0
aI0
aI0
aI0
aI0
aI0
aI0
aI0
aI0
aI0
aI0
aI0
aI0
aI0
aI0
aI60
aI0
aI0
aI0
aI28
aI0
aI0
aI0
aI0
aI0
aI0
aI0
aI0
aI0
aI0
aI0
aI39
aI0
aI0
aI0
aI128
aI0
aI0
aI0
aI0
aI0
aI0
aI0
aI0
aI0
aI0
aI0
aI0
aI0
aI0
aI0
aI0
aI0
aI0
aI0
aI0
aI0
aI0
aI0
aa(lp17
F-5.711550551219311
aF-8.421477023969683
aF-8.003496900480219
aF638.8976760481419
aF1437.659609312783
aF626.5239696760344
aF1.1528371236018014
aF1.1528371236018014
aF1.1528371236018014
aF1.1528371236018014
aF1.1528371236018014
aF1.1528371236018014
aF1.1528371236018014
aF1.1528371236018014
aF1.1528371236018014
aF1.1528371236018014
aI0
aI1
aI11
aI1
aI0
aI1
aI13
aI0
aI1
aI0
aI8
aI1
aI1
aI21
aI2
aI0
aI0
aI0
aI17
aI0
aI3
aI0
aI0
aI0
aI2
aI0
aI0
aI1
aI3
aI18
aI1
aI0
aI0
aI0
aI21
aI0
aI0
aI0
aI0
aI0
aI0
aI0
aI0
aI0
aI3
aI14
aI2
aI0
aI0
aI7
aI4
aI0
aI1
aI19
aI4
aI0
aI4
aI26
aI1
aI0
aI1
aI14
aI0
aI0
aI0
aI0
aI0
aI0
aI1
aI0
aI0
aI1
aI5
aI1
aI0
aI0
aI0
aI0
aI1
aI0
aI3
aI4
aI11
aI3
aI45
aI0
aI0
aI1
aI14
aI0
aI0
aI0
aI0
aI0
aI0
aI0
aI0
aI0
aI9
aI4
aI0
aI0
aI0
aI9
aI1
aI0
aI0
aI41
aI2
aI7
aI6
aI4
aI0
aI5
aI7
aI0
aI0
aI4
aI6
aI0
aI7
aI5
aI3
aI2
aI0
aI8
aI2
aI1
aI0
aI0
aI0
aI0
aI0
aI0
aI0
aI0
aI0
aI0
aI0
aI0
aI0
aI0
aI0
aI0
aI0
aI0
aI0
aI0
aI0
aI0
aI0
aI0
aI0
aI0
aI0
aI0
aI0
aI0
aI0
aI0
aI0
aI0
aI0
aI0
aI0
aI0
aI0
aI137
aI0
aI0
aI0
aI86
aI0
aI0
aI0
aI0
aI0
aI0
aI0
aI0
aI0
aI0
aI0
aI0
aI0
aI0
aI0
aI0
aI0
aI0
aI0
aI0
aI0
aI0
aI0
aI0
aI0
aI0
aI0
aI0
aI0
aI0
aI0
aI0
aI0
aI0
aI0
aI0
aI0
aI0
aI0
aI0
aI50
aI0
aI0
aI0
aI71
aI0
aI0
aI0
aI0
aI0
aI0
aI0
aI0
aI0
aI0
aI0
aI47
aI0
aI0
aI3
aI55
aI0
aI0
aI1
aI0
aI0
aI0
aI0
aI0
aI0
aI0
aI0
aI0
aI0
aI0
aI0
aI0
aI0
aI0
aI0
aI0
aI0
aI0
aI0
aI0
aI0
aI0
aI0
aI0
aI0
aI0
aI0
aI0
aI0
aI0
aI0
aI0
aI0
aI0
aI0
aI0
aI0
aI0
aI0
aI62
aI0
aI0
aI0
aI46
aI0
aI0
aI0
aI0
aI0
aI0
aI0
aI0
aI0
aI0
aI0
aI35
aI0
aI0
aI0
aI80
aI0
aI0
aI0
aI0
aI0
aI0
aI0
aI0
aI0
aI0
aI0
aI0
aI0
aI0
aI0
aI0
aI0
aI0
aI0
aI0
aI0
aI0
aI0
aa(lp18
F0.9291891704512161
aF3.584371367829304
aF-0.2771558194857326
aF454.46935776040687
aF753.3402599687166
aF495.505552886836
aF1.0655513841340385
aF1.0655513841340385
aF1.0655513841340385
aF1.0655513841340385
aF1.0655513841340385
aF1.0655513841340385
aF1.0655513841340385
aF1.0655513841340385
aF1.0655513841340385
aF1.0655513841340385
aI1
aI4
aI13
aI1
aI1
aI1
aI9
aI2
aI0
aI2
aI13
aI1
aI0
aI20
aI3
aI0
aI0
aI1
aI13
aI2
aI0
aI0
aI0
aI1
aI1
aI0
aI0
aI1
aI0
aI15
aI2
aI1
aI3
aI6
aI16
aI3
aI1
aI0
aI0
aI1
aI2
aI0
aI0
aI0
aI3
aI12
aI2
aI1
aI0
aI3
aI15
aI0
aI0
aI20
aI10
aI0
aI3
aI26
aI0
aI1
aI2
aI15
aI0
aI0
aI0
aI0
aI0
aI0
aI0
aI0
aI0
aI0
aI0
aI0
aI0
aI1
aI0
aI0
aI0
aI0
aI1
aI0
aI4
aI3
aI53
aI0
aI0
aI0
aI0
aI0
aI0
aI2
aI3
aI4
aI6
aI1
aI1
aI5
aI11
aI1
aI0
aI0
aI0
aI9
aI0
aI0
aI0
aI84
aI6
aI5
aI3
aI1
aI0
aI3
aI11
aI1
aI0
aI6
aI4
aI0
aI1
aI7
aI5
aI0
aI1
aI3
aI5
aI0
aI0
aI0
aI0
aI0
aI0
aI0
aI0
aI0
aI0
aI0
aI0
aI0
aI0
aI0
aI0
aI0
aI0
aI0
aI0
aI0
aI0
aI0
aI0
aI0
aI0
aI0
aI0
aI0
aI0
aI0
aI0
aI0
aI0
aI0
aI0
aI0
aI0
aI0
aI0
aI246
aI0
aI0
aI0
aI5
aI0
aI0
aI0
aI0
aI0
aI0
aI0
aI0
aI0
aI0
aI0
aI0
aI0
aI0
aI0
aI0
aI0
aI0
aI0
aI0
aI0
aI0
aI0
aI0
aI0
aI0
aI0
aI0
aI0
aI0
aI0
aI0
aI0
aI0
aI0
aI0
aI0
aI0
aI0
aI0
aI44
aI0
aI0
aI0
aI53
aI0
aI0
aI0
aI0
aI0
aI0
aI0
aI0
aI0
aI0
aI0
aI49
aI0
aI0
aI0
aI105
aI0
aI0
aI2
aI0
aI0
aI0
aI0
aI0
aI0
aI0
aI0
aI0
aI0
aI0
aI0
aI0
aI0
aI0
aI0
aI0
aI0
aI0
aI0
aI0
aI0
aI0
aI0
aI0
aI0
aI0
aI0
aI0
aI0
aI0
aI0
aI0
aI0
aI0
aI0
aI0
aI0
aI0
aI0
aI49
aI0
aI0
aI0
aI42
aI0
aI0
aI0
aI0
aI0
aI0
aI0
aI0
aI0
aI0
aI0
aI44
aI0
aI0
aI0
aI116
aI0
aI0
aI0
aI0
aI0
aI0
aI0
aI0
aI0
aI0
aI0
aI0
aI0
aI0
aI0
aI0
aI0
aI0
aI0
aI0
aI0
aI0
aI0
aa(lp19
F2.815168993517245
aF-1.8644699932791158
aF6.355087487308951
aF677.901440664955
aF1186.9266185692532
aF360.76015613631324
aF0.7132936379002148
aF0.7132936379002148
aF0.7132936379002148
aF0.7132936379002148
aF0.7132936379002148
aF0.7132936379002148
aF0.7132936379002148
aF0.7132936379002148
aF0.7132936379002148
aF0.7132936379002148
aI0
aI0
aI12
aI1
aI3
aI0
aI10
aI1
aI2
aI3
aI8
aI5
aI0
aI13
aI4
aI0
aI1
aI0
aI23
aI1
aI3
aI0
aI0
aI0
aI3
aI0
aI0
aI6
aI7
aI16
aI6
aI3
aI0
aI0
aI12
aI0
aI3
aI0
aI0
aI0
aI4
aI0
aI0
aI2
aI3
aI6
aI2
aI1
aI0
aI4
aI15
aI0
aI4
aI30
aI4
aI1
aI8
aI16
aI1
aI2
aI0
aI4
aI1
aI1
aI0
aI0
aI0
aI0
aI29
aI2
aI0
aI0
aI2
aI0
aI0
aI0
aI0
aI1
aI0
aI0
aI4
aI3
aI2
aI0
aI45
aI0
aI0
aI0
aI1
aI0
aI0
aI1
aI3
aI6
aI3
aI2
aI0
aI6
aI7
aI1
aI0
aI0
aI0
aI7
aI1
aI0
aI0
aI75
aI6
aI3
aI7
aI4
aI1
aI3
aI4
aI2
aI1
aI2
aI1
aI4
aI3
aI5
aI2
aI0
aI0
aI15
aI2
aI0
aI0
aI0
aI0
aI0
aI0
aI0
aI0
aI0
aI0
aI0
aI0
aI0
aI0
aI0
aI0
aI0
aI0
aI0
aI0
aI0
aI0
aI0
aI0
aI0
aI0
aI0
aI0
aI0
aI0
aI0
aI0
aI0
aI0
aI0
aI0
aI0
aI0
aI0
aI0
aI193
aI0
aI0
aI0
aI73
aI0
aI0
aI0
aI0
aI0
aI0
aI0
aI0
aI0
aI0
aI0
aI0
aI0
aI0
aI0
aI0
aI0
aI0
aI0
aI0
aI0
aI3
aI4
aI0
aI6
aI0
aI0
aI0
aI1
aI0
aI0
aI0
aI0
aI0
aI0
aI0
aI0
aI2
aI3
aI18
aI11
aI0
aI0
aI0
aI30
aI0
aI0
aI1
aI0
aI0
aI0
aI0
aI4
aI0
aI0
aI0
aI41
aI0
aI0
aI1
aI130
aI0
aI0
aI0
aI0
aI0
aI0
aI0
aI0
aI0
aI0
aI0
aI0
aI0
aI0
aI0
aI0
aI0
aI0
aI0
aI0
aI0
aI0
aI0
aI0
aI0
aI0
aI0
aI0
aI0
aI0
aI0
aI0
aI0
aI0
aI0
aI0
aI0
aI0
aI0
aI0
aI0
aI0
aI0
aI56
aI0
aI0
aI0
aI49
aI0
aI0
aI0
aI0
aI0
aI0
aI0
aI0
aI0
aI0
aI0
aI40
aI0
aI0
aI0
aI121
aI0
aI0
aI0
aI0
aI0
aI0
aI0
aI0
aI0
aI0
aI0
aI0
aI0
aI0
aI0
aI0
aI0
aI0
aI0
aI0
aI0
aI0
aI0
aa(lp20
F-3.8103317732647235
aF-2.746140716469092
aF5.196227426951654
aF633.2748708823228
aF1217.0247225345106
aF746.2180306935188
aF0.7914907340757849
aF0.7914907340757849
aF0.7914907340757849
aF0.7914907340757849
aF0.7914907340757849
aF0.7914907340757849
aF0.7914907340757849
aF0.7914907340757849
aF0.7914907340757849
aF0.7914907340757849
aI0
aI0
aI11
aI3
aI0
aI0
aI12
aI1
aI2
aI1
aI12
aI0
aI0
aI12
aI7
aI0
aI1
aI0
aI16
aI2
aI5
aI0
aI0
aI3
aI1
aI0
aI0
aI5
aI0
aI13
aI5
aI0
aI2
aI3
aI18
aI0
aI1
aI0
aI0
aI2
aI2
aI0
aI0
aI2
aI1
aI7
aI0
aI1
aI0
aI9
aI14
aI0
aI4
aI24
aI3
aI1
aI0
aI17
aI3
aI1
aI3
aI6
aI0
aI0
aI0
aI2
aI1
aI0
aI17
aI0
aI0
aI0
aI5
aI0
aI0
aI0
aI0
aI0
aI0
aI0
aI5
aI0
aI1
aI0
aI59
aI0
aI0
aI0
aI21
aI0
aI0
aI0
aI0
aI0
aI0
aI0
aI0
aI3
aI8
aI1
aI0
aI0
aI0
aI9
aI0
aI0
aI0
aI49
aI3
aI7
aI2
aI4
aI0
aI0
aI2
aI2
aI0
aI6
aI5
aI3
aI0
aI12
aI1
aI0
aI2
aI13
aI0
aI0
aI0
aI0
aI0
aI0
aI0
aI0
aI0
aI0
aI0
aI0
aI0
aI0
aI0
aI0
aI0
aI0
aI0
aI0
aI0
aI0
aI0
aI0
aI0
aI0
aI0
aI0
aI0
aI0
aI0
aI0
aI0
aI0
aI0
aI0
aI0
aI0
aI0
aI0
aI0
aI74
aI0
aI0
aI0
aI169
aI0
aI0
aI0
aI0
aI0
aI0
aI0
aI0
aI0
aI0
aI0
aI0
aI0
aI0
aI0
aI0
aI0
aI0
aI0
aI0
aI0
aI3
aI5
aI0
aI4
aI0
aI0
aI0
aI0
aI0
aI0
aI0
aI0
aI0
aI0
aI0
aI1
aI3
aI5
aI9
aI11
aI0
aI0
aI0
aI55
aI0
aI0
aI0
aI0
aI0
aI0
aI0
aI3
aI0
aI0
aI0
aI48
aI0
aI0
aI6
aI83
aI0
aI0
aI0
aI0
aI0
aI0
aI0
aI0
aI0
aI0
aI0
aI0
aI0
aI0
aI0
aI0
aI0
aI0
aI0
aI0
aI0
aI0
aI0
aI0
aI0
aI0
aI0
aI0
aI0
aI0
aI0
aI0
aI0
aI0
aI0
aI0
aI0
aI0
aI0
aI0
aI0
aI0
aI0
aI55
aI0
aI0
aI0
aI38
aI0
aI0
aI0
aI0
aI0
aI0
aI0
aI0
aI0
aI0
aI0
aI37
aI0
aI0
aI0
aI113
aI0
aI0
aI0
aI0
aI0
aI0
aI0
aI0
aI0
aI0
aI0
aI0
aI0
aI0
aI0
aI0
aI0
aI0
aI0
aI0
aI0
aI0
aI0
aa(lp21
F-17.01243737139369
aF-14.94692172583491
aF9.730221490703395
aF465.11728366040666
aF841.9795673248652
aF428.11153147606575
aF0.297162337482238
aF0.297162337482238
aF0.297162337482238
aF0.297162337482238
aF0.297162337482238
aF0.297162337482238
aF0.297162337482238
aF0.297162337482238
aF0.297162337482238
aF0.297162337482238
aI0
aI0
aI9
aI2
aI0
aI1
aI14
aI0
aI0
aI1
aI15
aI1
aI2
aI7
aI7
aI0
aI0
aI8
aI13
aI1
aI8
aI0
aI0
aI1
aI8
aI0
aI0
aI2
aI2
aI6
aI2
aI7
aI4
aI3
aI23
aI2
aI6
aI0
aI0
aI2
aI2
aI0
aI0
aI4
aI1
aI7
aI1
aI2
aI0
aI7
aI11
aI0
aI2
aI14
aI3
aI0
aI3
aI11
aI2
aI0
aI1
aI4
aI0
aI0
aI1
aI0
aI0
aI0
aI24
aI1
aI0
aI0
aI1
aI1
aI0
aI0
aI0
aI1
aI0
aI0
aI3
aI0
aI0
aI1
aI78
aI0
aI0
aI4
aI22
aI0
aI0
aI1
aI0
aI0
aI0
aI0
aI5
aI5
aI3
aI2
aI5
aI0
aI0
aI16
aI3
aI0
aI0
aI49
aI2
aI2
aI3
aI4
aI0
aI1
aI3
aI0
aI0
aI0
aI5
aI4
aI2
aI5
aI6
aI0
aI0
aI4
aI3
aI0
aI0
aI0
aI0
aI0
aI0
aI0
aI0
aI0
aI0
aI0
aI0
aI0
aI0
aI0
aI0
aI0
aI0
aI0
aI0
aI0
aI0
aI0
aI0
aI0
aI0
aI0
aI0
aI0
aI0
aI0
aI0
aI0
aI0
aI0
aI0
aI0
aI0
aI0
aI0
aI61
aI0
aI0
aI0
aI209
aI0
aI0
aI0
aI0
aI0
aI0
aI0
aI0
aI0
aI0
aI0
aI0
aI0
aI0
aI0
aI0
aI0
aI0
aI0
aI0
aI0
aI1
aI3
aI2
aI1
aI0
aI0
aI10
aI0
aI0
aI0
aI0
aI0
aI0
aI0
aI0
aI6
aI3
aI0
aI0
aI7
aI0
aI0
aI9
aI24
aI0
aI0
aI1
aI0
aI0
aI0
aI0
aI0
aI0
aI0
aI0
aI43
aI0
aI0
aI1
aI121
aI0
aI0
aI0
aI0
aI0
aI0
aI0
aI0
aI0
aI0
aI0
aI0
aI0
aI0
aI0
aI0
aI0
aI0
aI0
aI0
aI0
aI0
aI0
aI0
aI0
aI0
aI0
aI0
aI0
aI0
aI0
aI0
aI0
aI0
aI0
aI0
aI0
aI0
aI0
aI0
aI0
aI0
aI0
aI60
aI0
aI0
aI0
aI40
aI0
aI0
aI0
aI0
aI0
aI0
aI0
aI0
aI0
aI0
aI0
aI31
aI0
aI0
aI0
aI139
aI0
aI0
aI0
aI0
aI0
aI0
aI0
aI0
aI0
aI0
aI0
aI0
aI0
aI0
aI0
aI0
aI0
aI0
aI0
aI0
aI0
aI0
aI0
aa(lp22
F-15.93267994179386
aF-16.78367416929332
aF26.149608782090763
aF337.530930958038
aF915.2319672087879
aF159.26837974814455
aF0.1044020700603231
aF0.1044020700603231
aF0.1044020700603231
aF0.1044020700603231
aF0.1044020700603231
aF0.1044020700603231
aF0.1044020700603231
aF0.1044020700603231
aF0.1044020700603231
aF0.1044020700603231
aI1
aI3
aI13
aI1
aI0
aI0
aI10
aI1
aI1
aI1
aI10
aI0
aI0
aI9
aI8
aI1
aI2
aI1
aI16
aI4
aI28
aI0
aI0
aI1
aI3
aI0
aI0
aI6
aI0
aI2
aI6
aI1
aI8
aI6
aI16
aI3
aI17
aI0
aI0
aI1
aI0
aI0
aI0
aI15
aI0
aI0
aI0
aI3
aI1
aI8
aI5
aI1
aI10
aI6
aI1
aI0
aI3
aI4
aI0
aI1
aI0
aI0
aI1
aI0
aI0
aI0
aI0
aI0
aI25
aI0
aI0
aI0
aI5
aI0
aI0
aI0
aI0
aI2
aI0
aI0
aI5
aI0
aI0
aI0
aI107
aI0
aI0
aI0
aI21
aI0
aI0
aI2
aI0
aI1
aI0
aI0
aI3
aI7
aI1
aI0
aI3
aI0
aI0
aI22
aI3
aI0
aI0
aI71
aI1
aI0
aI0
aI0
aI0
aI0
aI6
aI0
aI0
aI0
aI3
aI6
aI2
aI1
aI0
aI7
aI1
aI8
aI2
aI2
aI0
aI0
aI0
aI0
aI0
aI0
aI0
aI0
aI0
aI0
aI0
aI0
aI0
aI0
aI0
aI0
aI0
aI0
aI0
aI0
aI0
aI0
aI0
aI0
aI0
aI0
aI0
aI0
aI0
aI0
aI0
aI0
aI0
aI0
aI0
aI0
aI0
aI0
aI0
aI75
aI0
aI0
aI0
aI242
aI0
aI0
aI0
aI0
aI0
aI0
aI0
aI0
aI0
aI0
aI0
aI0
aI0
aI0
aI0
aI0
aI0
aI0
aI0
aI0
aI3
aI1
aI1
aI0
aI6
aI3
aI0
aI0
aI0
aI0
aI0
aI0
aI0
aI0
aI0
aI0
aI15
aI0
aI0
aI0
aI11
aI0
aI0
aI4
aI47
aI0
aI0
aI0
aI0
aI0
aI0
aI0
aI0
aI0
aI0
aI0
aI44
aI0
aI0
aI0
aI104
aI0
aI0
aI0
aI0
aI0
aI0
aI0
aI0
aI0
aI0
aI0
aI0
aI0
aI0
aI0
aI0
aI0
aI0
aI0
aI0
aI0
aI0
aI0
aI0
aI0
aI0
aI0
aI0
aI0
aI0
aI0
aI0
aI0
aI0
aI0
aI0
aI0
aI0
aI0
aI0
aI0
aI0
aI0
aI67
aI0
aI0
aI0
aI44
aI0
aI0
aI0
aI0
aI0
aI0
aI0
aI0
aI0
aI0
aI0
aI33
aI0
aI0
aI0
aI173
aI0
aI0
aI0
aI0
aI0
aI0
aI0
aI0
aI0
aI0
aI0
aI0
aI0
aI0
aI0
aI0
aI0
aI0
aI0
aI0
aI0
aI0
aI0
aa(lp23
F8.699289043062349
aF-53.45978096328682
aF27.44210325366949
aF556.2682662250586
aF1077.9726767093002
aF388.08485868223005
aF0.6868386578021883
aF0.6868386578021883
aF0.6868386578021883
aF0.6868386578021883
aF0.6868386578021883
aF0.6868386578021883
aF0.6868386578021883
aF0.6868386578021883
aF0.6868386578021883
aF0.6868386578021883
aI0
aI1
aI6
aI1
aI0
aI2
aI55
aI13
aI0
aI0
aI0
aI1
aI0
aI0
aI0
aI0
aI1
aI1
aI3
aI0
aI4
aI0
aI0
aI2
aI1
aI0
aI0
aI3
aI1
aI0
aI0
aI1
aI3
aI1
aI5
aI4
aI3
aI0
aI0
aI0
aI1
aI0
aI0
aI4
aI0
aI0
aI0
aI0
aI0
aI3
aI5
aI1
aI3
aI60
aI10
aI1
aI1
aI2
aI4
aI1
aI0
aI0
aI0
aI0
aI0
aI0
aI0
aI0
aI2
aI0
aI6
aI1
aI12
aI9
aI39
aI2
aI1
aI1
aI3
aI0
aI0
aI0
aI1
aI0
aI2
aI0
aI0
aI2
aI20
aI0
aI0
aI2
aI2
aI3
aI3
aI0
aI0
aI0
aI0
aI0
aI1
aI0
aI0
aI17
aI2
aI0
aI0
aI3
aI1
aI3
aI1
aI1
aI0
aI0
aI0
aI0
aI0
aI5
aI0
aI2
aI3
aI43
aI10
aI5
aI0
aI9
aI1
aI0
aI0
aI0
aI0
aI0
aI0
aI0
aI0
aI0
aI0
aI0
aI0
aI0
aI0
aI0
aI0
aI0
aI0
aI0
aI0
aI18
aI0
aI0
aI0
aI0
aI0
aI0
aI0
aI0
aI0
aI0
aI0
aI0
aI0
aI0
aI5
aI47
aI0
aI0
aI0
aI148
aI0
aI0
aI0
aI0
aI0
aI0
aI0
aI0
aI0
aI0
aI0
aI0
aI0
aI0
aI0
aI0
aI0
aI0
aI0
aI0
aI0
aI0
aI0
aI0
aI0
aI0
aI0
aI0
aI0
aI0
aI0
aI0
aI2
aI7
aI10
aI2
aI0
aI3
aI0
aI0
aI0
aI0
aI0
aI6
aI0
aI0
aI0
aI35
aI32
aI0
aI0
aI1
aI0
aI0
aI0
aI0
aI0
aI0
aI2
aI38
aI0
aI0
aI0
aI0
aI44
aI0
aI0
aI0
aI0
aI0
aI0
aI0
aI0
aI2
aI2
aI0
aI13
aI3
aI0
aI0
aI6
aI0
aI0
aI0
aI0
aI0
aI0
aI0
aI0
aI0
aI0
aI0
aI0
aI0
aI0
aI0
aI0
aI0
aI0
aI0
aI0
aI0
aI0
aI0
aI0
aI0
aI0
aI0
aI58
aI0
aI0
aI0
aI35
aI0
aI0
aI0
aI0
aI0
aI0
aI0
aI0
aI0
aI0
aI0
aI53
aI0
aI0
aI0
aI72
aI0
aI0
aI0
aI0
aI0
aI0
aI0
aI0
aI0
aI0
aI0
aI0
aI0
aI0
aI0
aI0
aI0
aI0
aI0
aI0
aI0
aI0
aI0
aa(lp24
F16.402650302362034
aF-40.49441081199009
aF20.460720536138364
aF350.83580467341625
aF518.5140718989963
aF221.53767911389235
aF1.0
aF1.0
aF1.0
aF1.0
aF1.0
aF1.0
aF1.0
aF1.0
aF1.0
aF1.0
aI0
aI0
aI5
aI0
aI0
aI0
aI51
aI5
aI0
aI0
aI2
aI1
aI0
aI0
aI0
aI0
aI0
aI0
aI3
aI2
aI0
aI0
aI0
aI0
aI0
aI0
aI0
aI1
aI1
aI4
aI1
aI0
aI0
aI0
aI4
aI2
aI0
aI0
aI0
aI1
aI0
aI0
aI0
aI0
aI0
aI3
aI0
aI1
aI0
aI2
aI9
aI0
aI0
aI64
aI9
aI1
aI2
aI9
aI0
aI0
aI0
aI2
aI1
aI0
aI0
aI0
aI0
aI0
aI0
aI0
aI8
aI0
aI7
aI14
aI36
aI2
aI0
aI2
aI0
aI0
aI0
aI0
aI0
aI0
aI6
aI0
aI0
aI0
aI27
aI0
aI0
aI0
aI0
aI3
aI0
aI0
aI0
aI0
aI0
aI0
aI1
aI0
aI0
aI12
aI1
aI0
aI0
aI11
aI1
aI1
aI0
aI0
aI0
aI0
aI0
aI0
aI0
aI3
aI1
aI0
aI5
aI29
aI5
aI7
aI0
aI4
aI0
aI0
aI0
aI0
aI0
aI0
aI0
aI0
aI0
aI0
aI0
aI0
aI0
aI0
aI0
aI0
aI0
aI0
aI0
aI0
aI0
aI0
aI0
aI0
aI0
aI0
aI0
aI0
aI0
aI0
aI0
aI0
aI0
aI0
aI0
aI0
aI0
aI0
aI0
aI0
aI0
aI179
aI0
aI0
aI0
aI7
aI0
aI0
aI0
aI0
aI0
aI0
aI0
aI0
aI0
aI0
aI0
aI0
aI0
aI0
aI0
aI0
aI0
aI0
aI0
aI0
aI0
aI0
aI0
aI0
aI5
aI0
aI0
aI0
aI0
aI0
aI0
aI0
aI0
aI0
aI0
aI0
aI0
aI0
aI0
aI0
aI57
aI0
aI0
aI0
aI31
aI0
aI0
aI0
aI0
aI0
aI0
aI0
aI0
aI0
aI0
aI0
aI52
aI0
aI0
aI0
aI41
aI0
aI0
aI0
aI0
aI0
aI0
aI0
aI0
aI0
aI0
aI0
aI0
aI0
aI0
aI0
aI0
aI0
aI0
aI0
aI0
aI0
aI0
aI0
aI0
aI0
aI0
aI0
aI0
aI0
aI0
aI0
aI0
aI0
aI0
aI0
aI0
aI0
aI0
aI0
aI0
aI0
aI0
aI0
aI72
aI0
aI0
aI0
aI9
aI0
aI0
aI0
aI0
aI0
aI0
aI0
aI0
aI0
aI0
aI0
aI42
aI0
aI0
aI0
aI63
aI0
aI0
aI0
aI0
aI0
aI0
aI0
aI0
aI0
aI0
aI0
aI0
aI0
aI0
aI0
aI0
aI0
aI0
aI0
aI0
aI0
aI0
aI0
aa(lp25
F11.53927582981205
aF-41.33199844395519
aF25.35950478766565
aF315.1212930689841
aF570.1376024021691
aF805.9270210473196
aF1.0837233809509756
aF1.0837233809509756
aF1.0837233809509756
aF1.0837233809509756
aF1.0837233809509756
aF1.0837233809509756
aF1.0837233809509756
aF1.0837233809509756
aF1.0837233809509756
aF1.0837233809509756
aI0
aI0
aI7
aI1
aI0
aI1
aI44
aI10
aI0
aI0
aI4
aI6
aI0
aI0
aI0
aI0
aI0
aI0
aI3
aI1
aI0
aI0
aI0
aI2
aI0
aI0
aI0
aI1
aI0
aI0
aI0
aI0
aI1
aI1
aI7
aI2
aI1
aI0
aI0
aI1
aI0
aI0
aI0
aI0
aI0
aI0
aI0
aI1
aI0
aI3
aI12
aI1
aI0
aI66
aI13
aI0
aI2
aI7
aI1
aI0
aI0
aI0
aI1
aI0
aI0
aI0
aI0
aI0
aI2
aI3
aI4
aI0
aI1
aI8
aI36
aI1
aI1
aI1
aI2
aI1
aI0
aI0
aI0
aI0
aI5
aI0
aI0
aI0
aI27
aI0
aI0
aI1
aI3
aI0
aI0
aI0
aI0
aI0
aI0
aI0
aI1
aI0
aI0
aI9
aI1
aI0
aI0
aI28
aI3
aI1
aI0
aI0
aI0
aI0
aI0
aI0
aI2
aI0
aI0
aI0
aI8
aI31
aI4
aI8
aI3
aI3
aI0
aI0
aI0
aI0
aI0
aI0
aI0
aI0
aI0
aI0
aI0
aI0
aI0
aI0
aI0
aI0
aI0
aI0
aI0
aI0
aI0
aI0
aI0
aI0
aI0
aI0
aI0
aI0
aI0
aI0
aI0
aI0
aI0
aI0
aI0
aI0
aI0
aI0
aI0
aI0
aI0
aI194
aI0
aI0
aI0
aI4
aI0
aI0
aI0
aI0
aI0
aI0
aI0
aI0
aI0
aI0
aI0
aI0
aI0
aI0
aI0
aI0
aI0
aI0
aI0
aI0
aI0
aI0
aI0
aI0
aI0
aI0
aI0
aI0
aI0
aI0
aI0
aI0
aI0
aI0
aI0
aI0
aI0
aI0
aI0
aI0
aI49
aI0
aI0
aI0
aI52
aI0
aI0
aI0
aI0
aI0
aI0
aI0
aI0
aI0
aI0
aI0
aI55
aI0
aI0
aI0
aI42
aI0
aI0
aI2
aI0
aI0
aI0
aI0
aI0
aI0
aI0
aI0
aI0
aI0
aI0
aI0
aI0
aI0
aI0
aI0
aI0
aI0
aI0
aI0
aI0
aI0
aI0
aI0
aI0
aI0
aI0
aI0
aI0
aI0
aI0
aI0
aI0
aI0
aI0
aI0
aI0
aI0
aI0
aI0
aI73
aI0
aI0
aI0
aI13
aI0
aI0
aI0
aI0
aI0
aI0
aI0
aI0
aI0
aI0
aI0
aI46
aI0
aI0
aI0
aI66
aI0
aI0
aI0
aI0
aI0
aI0
aI0
aI0
aI0
aI0
aI0
aI0
aI0
aI0
aI0
aI0
aI0
aI0
aI0
aI0
aI0
aI0
aI0
aa(lp26
F22.46720146301816
aF-44.47024992860549
aF15.392422726554706
aF403.9240845315301
aF756.1688016091233
aF2296.469947038167
aF1.4347110674928756
aF1.4347110674928756
aF1.4347110674928756
aF1.4347110674928756
aF1.4347110674928756
aF1.4347110674928756
aF1.4347110674928756
aF1.4347110674928756
aF1.4347110674928756
aF1.4347110674928756
aI0
aI0
aI7
aI2
aI0
aI0
aI41
aI6
aI0
aI0
aI0
aI1
aI0
aI4
aI6
aI0
aI0
aI0
aI3
aI6
aI0
aI0
aI0
aI0
aI0
aI0
aI0
aI1
aI0
aI1
aI3
aI1
aI2
aI1
aI2
aI2
aI1
aI0
aI0
aI0
aI1
aI0
aI0
aI0
aI0
aI0
aI2
aI0
aI0
aI3
aI9
aI0
aI1
aI62
aI25
aI1
aI0
aI4
aI4
aI0
aI0
aI0
aI2
aI0
aI1
aI0
aI0
aI0
aI3
aI3
aI2
aI2
aI2
aI25
aI43
aI6
aI0
aI2
aI3
aI1
aI1
aI0
aI1
aI0
aI1
aI0
aI0
aI2
aI3
aI0
aI0
aI6
aI1
aI3
aI3
aI0
aI0
aI1
aI1
aI5
aI3
aI0
aI0
aI2
aI2
aI0
aI0
aI3
aI2
aI5
aI0
aI0
aI1
aI1
aI0
aI0
aI2
aI1
aI0
aI0
aI11
aI23
aI2
aI0
aI3
aI13
aI0
aI0
aI0
aI0
aI0
aI0
aI0
aI0
aI0
aI0
aI0
aI0
aI0
aI0
aI0
aI0
aI0
aI0
aI0
aI0
aI0
aI0
aI0
aI0
aI0
aI0
aI0
aI0
aI0
aI0
aI0
aI0
aI0
aI0
aI0
aI0
aI0
aI0
aI0
aI0
aI0
aI195
aI0
aI0
aI0
aI0
aI0
aI0
aI0
aI0
aI0
aI0
aI0
aI0
aI0
aI0
aI0
aI0
aI0
aI0
aI0
aI0
aI0
aI0
aI0
aI0
aI1
aI4
aI9
aI3
aI0
aI0
aI0
aI0
aI0
aI0
aI0
aI0
aI0
aI0
aI0
aI0
aI1
aI0
aI0
aI0
aI45
aI0
aI0
aI0
aI40
aI0
aI0
aI0
aI0
aI0
aI0
aI0
aI0
aI0
aI0
aI0
aI52
aI0
aI0
aI1
aI40
aI0
aI0
aI8
aI0
aI0
aI0
aI0
aI0
aI0
aI0
aI0
aI0
aI0
aI0
aI0
aI0
aI0
aI0
aI0
aI0
aI0
aI0
aI0
aI0
aI0
aI0
aI0
aI0
aI0
aI0
aI0
aI0
aI0
aI0
aI0
aI0
aI0
aI0
aI0
aI0
aI0
aI0
aI0
aI64
aI0
aI0
aI0
aI36
aI0
aI0
aI0
aI0
aI0
aI0
aI0
aI0
aI0
aI0
aI0
aI52
aI0
aI0
aI0
aI43
aI0
aI0
aI0
aI0
aI0
aI0
aI0
aI0
aI0
aI0
aI0
aI0
aI0
aI0
aI0
aI0
aI0
aI0
aI0
aI0
aI0
aI0
aI0
aa(lp27
F12.206537026123037
aF-10.098571191757443
aF83.16376521879232
aF324.497463525179
aF343.62711567136614
aF1388.7689295090693
aF0.11733175523351795
aF0.11733175523351795
aF0.11733175523351795
aF0.11733175523351795
aF0.11733175523351795
aF0.11733175523351795
aF0.11733175523351795
aF0.11733175523351795
aF0.11733175523351795
aF0.11733175523351795
aI0
aI1
aI3
aI0
aI2
aI3
aI10
aI1
aI0
aI2
aI0
aI1
aI0
aI1
aI1
aI1
aI4
aI1
aI2
aI1
aI11
aI0
aI0
aI0
aI2
aI0
aI0
aI11
aI1
aI2
aI4
aI4
aI4
aI0
aI5
aI0
aI10
aI0
aI0
aI0
aI2
aI0
aI0
aI10
aI0
aI0
aI0
aI7
aI2
aI2
aI6
aI0
aI1
aI14
aI1
aI0
aI1
aI4
aI2
aI0
aI0
aI0
aI0
aI0
aI0
aI0
aI0
aI0
aI7
aI1
aI1
aI0
aI9
aI0
aI1
aI2
aI0
aI0
aI0
aI0
aI0
aI0
aI0
aI0
aI13
aI0
aI0
aI3
aI50
aI0
aI0
aI11
aI1
aI1
aI0
aI1
aI0
aI0
aI0
aI0
aI1
aI0
aI0
aI27
aI9
aI0
aI0
aI15
aI0
aI0
aI0
aI0
aI0
aI0
aI0
aI0
aI0
aI0
aI1
aI3
aI2
aI1
aI11
aI11
aI0
aI1
aI0
aI0
aI0
aI0
aI0
aI0
aI0
aI0
aI0
aI0
aI0
aI0
aI0
aI0
aI0
aI0
aI0
aI0
aI0
aI0
aI0
aI0
aI0
aI0
aI0
aI0
aI0
aI0
aI0
aI0
aI0
aI0
aI0
aI0
aI0
aI0
aI0
aI0
aI0
aI0
aI0
aI183
aI0
aI0
aI0
aI0
aI0
aI0
aI0
aI0
aI0
aI0
aI0
aI0
aI0
aI0
aI0
aI0
aI0
aI0
aI0
aI0
aI0
aI0
aI0
aI0
aI0
aI0
aI0
aI0
aI0
aI0
aI0
aI0
aI0
aI0
aI0
aI0
aI0
aI0
aI0
aI0
aI0
aI0
aI0
aI2
aI4
aI0
aI0
aI19
aI46
aI0
aI0
aI2
aI0
aI0
aI0
aI0
aI1
aI0
aI0
aI1
aI21
aI0
aI0
aI14
aI30
aI0
aI0
aI0
aI0
aI0
aI0
aI0
aI0
aI0
aI0
aI0
aI0
aI0
aI0
aI0
aI0
aI0
aI0
aI0
aI0
aI0
aI0
aI0
aI0
aI0
aI0
aI0
aI0
aI0
aI0
aI0
aI0
aI0
aI0
aI0
aI0
aI0
aI0
aI0
aI0
aI0
aI0
aI0
aI61
aI0
aI0
aI0
aI37
aI0
aI0
aI0
aI0
aI0
aI0
aI0
aI0
aI0
aI0
aI0
aI36
aI0
aI0
aI0
aI49
aI0
aI0
aI0
aI0
aI0
aI0
aI0
aI0
aI0
aI0
aI0
aI0
aI0
aI0
aI0
aI0
aI0
aI0
aI0
aI0
aI0
aI0
aI0
aa(lp28
F22.12260071704031
aF-42.77796670925253
aF43.6649876995663
aF208.12182406791464
aF557.8386560677311
aF583.5331602810434
aF0.24558208759853165
aF0.24558208759853165
aF0.24558208759853165
aF0.24558208759853165
aF0.24558208759853165
aF0.24558208759853165
aF0.24558208759853165
aF0.24558208759853165
aF0.24558208759853165
aF0.24558208759853165
aI1
aI3
aI5
aI0
aI1
aI3
aI13
aI3
aI0
aI2
aI2
aI6
aI0
aI0
aI0
aI0
aI4
aI1
aI6
aI3
aI7
aI0
aI0
aI1
aI1
aI0
aI0
aI8
aI0
aI0
aI0
aI3
aI11
aI1
aI5
aI0
aI4
aI0
aI0
aI3
aI1
aI0
aI0
aI8
aI0
aI1
aI0
aI1
aI4
aI7
aI7
aI0
aI9
aI21
aI4
aI1
aI0
aI6
aI3
aI2
aI0
aI0
aI0
aI0
aI0
aI1
aI0
aI0
aI6
aI0
aI1
aI3
aI12
aI3
aI4
aI9
aI0
aI2
aI3
aI0
aI1
aI0
aI0
aI0
aI7
aI0
aI0
aI2
aI24
aI0
aI0
aI15
aI1
aI0
aI2
aI4
aI0
aI0
aI0
aI1
aI3
aI0
aI0
aI11
aI8
aI0
aI0
aI23
aI1
aI2
aI1
aI5
aI0
aI0
aI0
aI0
aI2
aI0
aI0
aI1
aI3
aI2
aI8
aI27
aI0
aI4
aI2
aI1
aI0
aI0
aI0
aI0
aI0
aI0
aI0
aI0
aI0
aI0
aI0
aI0
aI0
aI0
aI0
aI0
aI0
aI0
aI0
aI0
aI0
aI0
aI0
aI0
aI0
aI0
aI0
aI0
aI0
aI0
aI0
aI0
aI0
aI0
aI0
aI0
aI0
aI0
aI0
aI152
aI0
aI0
aI0
aI53
aI0
aI0
aI0
aI0
aI0
aI0
aI0
aI0
aI0
aI0
aI0
aI0
aI0
aI0
aI0
aI0
aI0
aI0
aI0
aI0
aI0
aI1
aI1
aI0
aI0
aI0
aI0
aI2
aI0
aI0
aI0
aI0
aI0
aI0
aI0
aI0
aI1
aI1
aI0
aI1
aI10
aI0
aI0
aI24
aI34
aI0
aI0
aI0
aI0
aI0
aI0
aI0
aI7
aI3
aI2
aI5
aI32
aI0
aI0
aI9
aI38
aI0
aI0
aI1
aI0
aI0
aI0
aI0
aI0
aI0
aI0
aI0
aI0
aI0
aI0
aI0
aI0
aI0
aI0
aI0
aI0
aI0
aI0
aI0
aI0
aI0
aI0
aI0
aI0
aI0
aI0
aI0
aI0
aI0
aI0
aI0
aI0
aI0
aI0
aI0
aI0
aI0
aI0
aI0
aI80
aI0
aI0
aI0
aI32
aI0
aI0
aI0
aI0
aI0
aI0
aI0
aI0
aI0
aI0
aI0
aI14
aI0
aI0
aI0
aI79
aI0
aI0
aI0
aI0
aI0
aI0
aI0
aI0
aI0
aI0
aI0
aI0
aI0
aI0
aI0
aI0
aI0
aI0
aI0
aI0
aI0
aI0
aI0
aa(lp29
F11.165692410137392
aF-41.13518329435852
aF21.025294518573485
aF232.2851001021299
aF519.5219555505238
aF190.02651427969897
aF1.0
aF1.0
aF1.0
aF1.0
aF1.0
aF1.0
aF1.0
aF1.0
aF1.0
aF1.0
aI0
aI0
aI10
aI1
aI1
aI0
aI42
aI6
aI1
aI0
aI3
aI1
aI0
aI1
aI3
aI0
aI0
aI0
aI4
aI4
aI0
aI0
aI0
aI1
aI1
aI0
aI0
aI1
aI1
aI3
aI0
aI0
aI0
aI0
aI7
aI2
aI0
aI0
aI0
aI0
aI0
aI0
aI0
aI0
aI2
aI2
aI1
aI1
aI0
aI2
aI11
aI0
aI0
aI49
aI12
aI0
aI1
aI14
aI1
aI0
aI0
aI2
aI0
aI0
aI0
aI0
aI0
aI0
aI1
aI0
aI0
aI1
aI0
aI12
aI24
aI4
aI0
aI5
aI1
aI0
aI0
aI0
aI0
aI0
aI26
aI0
aI0
aI0
aI18
aI0
aI0
aI6
aI5
aI1
aI0
aI1
aI0
aI0
aI0
aI0
aI0
aI0
aI0
aI1
aI0
aI0
aI0
aI34
aI2
aI2
aI0
aI0
aI0
aI0
aI0
aI0
aI0
aI1
aI0
aI0
aI5
aI19
aI11
aI9
aI0
aI2
aI0
aI0
aI0
aI0
aI0
aI0
aI0
aI0
aI0
aI0
aI0
aI0
aI0
aI0
aI0
aI0
aI0
aI0
aI0
aI0
aI0
aI0
aI0
aI0
aI0
aI0
aI0
aI0
aI0
aI0
aI0
aI0
aI0
aI0
aI0
aI0
aI0
aI0
aI0
aI0
aI0
aI142
aI0
aI0
aI0
aI49
aI0
aI0
aI0
aI0
aI0
aI0
aI0
aI0
aI0
aI0
aI0
aI0
aI0
aI0
aI0
aI0
aI0
aI0
aI0
aI0
aI0
aI0
aI0
aI0
aI0
aI0
aI0
aI0
aI0
aI0
aI0
aI0
aI0
aI0
aI0
aI0
aI0
aI0
aI0
aI0
aI46
aI0
aI0
aI0
aI50
aI0
aI0
aI0
aI0
aI0
aI0
aI0
aI0
aI0
aI0
aI0
aI50
aI0
aI0
aI0
aI45
aI0
aI0
aI0
aI0
aI0
aI0
aI0
aI0
aI0
aI0
aI0
aI0
aI0
aI0
aI0
aI0
aI0
aI0
aI0
aI0
aI0
aI0
aI0
aI0
aI0
aI0
aI0
aI0
aI0
aI0
aI0
aI0
aI0
aI0
aI0
aI0
aI0
aI0
aI0
aI0
aI0
aI0
aI0
aI75
aI0
aI0
aI0
aI4
aI0
aI0
aI0
aI0
aI0
aI0
aI0
aI0
aI0
aI0
aI0
aI39
aI0
aI0
aI0
aI73
aI0
aI0
aI0
aI0
aI0
aI0
aI0
aI0
aI0
aI0
aI0
aI0
aI0
aI0
aI0
aI0
aI0
aI0
aI0
aI0
aI0
aI0
aI0
aa(lp30
F-2.856364823646797
aF-33.14490452245296
aF35.47533881548237
aF166.99456845419377
aF484.49243868998076
aF525.0583960704217
aF0.668424994012652
aF0.668424994012652
aF0.668424994012652
aF0.668424994012652
aF0.668424994012652
aF0.668424994012652
aF0.668424994012652
aF0.668424994012652
aF0.668424994012652
aF0.668424994012652
aI2
aI4
aI5
aI1
aI1
aI2
aI20
aI11
aI0
aI0
aI0
aI1
aI0
aI0
aI0
aI0
aI13
aI1
aI1
aI3
aI14
aI0
aI0
aI1
aI0
aI0
aI0
aI8
aI0
aI0
aI0
aI0
aI7
aI1
aI1
aI2
aI12
aI0
aI0
aI2
aI0
aI0
aI0
aI24
aI0
aI0
aI0
aI4
aI1
aI5
aI6
aI1
aI13
aI20
aI9
aI0
aI1
aI5
aI6
aI3
aI0
aI1
aI1
aI0
aI0
aI0
aI0
aI2
aI8
aI0
aI1
aI2
aI7
aI1
aI4
aI7
aI0
aI0
aI1
aI0
aI0
aI0
aI0
aI1
aI23
aI0
aI0
aI3
aI26
aI0
aI0
aI22
aI4
aI1
aI0
aI4
aI0
aI0
aI0
aI0
aI0
aI0
aI0
aI7
aI9
aI0
aI0
aI35
aI3
aI1
aI1
aI3
aI0
aI0
aI0
aI0
aI0
aI0
aI0
aI0
aI1
aI6
aI10
aI28
aI0
aI1
aI2
aI0
aI0
aI0
aI0
aI0
aI0
aI0
aI0
aI0
aI0
aI0
aI0
aI0
aI0
aI0
aI0
aI0
aI0
aI0
aI0
aI0
aI0
aI0
aI0
aI0
aI0
aI0
aI0
aI0
aI0
aI0
aI0
aI0
aI0
aI0
aI0
aI0
aI0
aI0
aI0
aI121
aI0
aI0
aI0
aI103
aI0
aI0
aI0
aI0
aI0
aI0
aI0
aI0
aI0
aI0
aI0
aI0
aI0
aI0
aI0
aI0
aI0
aI0
aI0
aI0
aI1
aI0
aI1
aI0
aI0
aI1
aI2
aI3
aI1
aI0
aI0
aI1
aI0
aI0
aI0
aI0
aI2
aI1
aI0
aI1
aI8
aI0
aI0
aI47
aI34
aI0
aI0
aI6
aI0
aI0
aI0
aI0
aI0
aI0
aI0
aI0
aI43
aI0
aI0
aI1
aI60
aI0
aI0
aI0
aI0
aI0
aI0
aI0
aI0
aI0
aI0
aI0
aI0
aI0
aI0
aI0
aI0
aI0
aI0
aI0
aI0
aI0
aI0
aI0
aI0
aI0
aI0
aI0
aI0
aI0
aI0
aI0
aI0
aI0
aI0
aI0
aI0
aI0
aI0
aI0
aI0
aI0
aI0
aI0
aI104
aI0
aI0
aI0
aI28
aI0
aI0
aI0
aI0
aI0
aI0
aI0
aI0
aI0
aI0
aI0
aI4
aI0
aI0
aI0
aI88
aI0
aI0
aI0
aI0
aI0
aI0
aI0
aI0
aI0
aI0
aI0
aI0
aI0
aI0
aI0
aI0
aI0
aI0
aI0
aI0
aI0
aI0
aI0
aa(lp31
F2.573702851476436
aF-36.296001059785624
aF26.185538257181456
aF155.81837159988697
aF671.9132794345178
aF388.95986696571305
aF0.3280763579135884
aF0.3280763579135884
aF0.3280763579135884
aF0.3280763579135884
aF0.3280763579135884
aF0.3280763579135884
aF0.3280763579135884
aF0.3280763579135884
aF0.3280763579135884
aF0.3280763579135884
aI2
aI6
aI7
aI1
aI1
aI5
aI15
aI3
aI0
aI0
aI1
aI3
aI0
aI0
aI1
aI0
aI17
aI1
aI4
aI2
aI12
aI0
aI0
aI0
aI0
aI0
aI0
aI12
aI0
aI0
aI0
aI3
aI5
aI2
aI5
aI0
aI3
aI0
aI0
aI0
aI0
aI0
aI0
aI10
aI0
aI0
aI0
aI6
aI2
aI7
aI3
aI0
aI11
aI30
aI7
aI1
aI0
aI0
aI3
aI3
aI0
aI0
aI0
aI0
aI0
aI0
aI0
aI0
aI4
aI0
aI0
aI0
aI8
aI6
aI11
aI9
aI1
aI2
aI2
aI0
aI1
aI0
aI0
aI0
aI20
aI0
aI0
aI4
aI16
aI0
aI0
aI6
aI3
aI1
aI0
aI0
aI0
aI0
aI0
aI0
aI3
aI0
aI0
aI7
aI9
aI0
aI0
aI45
aI2
aI1
aI0
aI3
aI0
aI0
aI0
aI0
aI0
aI0
aI2
aI2
aI4
aI7
aI11
aI28
aI0
aI2
aI2
aI0
aI0
aI0
aI0
aI0
aI0
aI0
aI0
aI0
aI0
aI0
aI0
aI0
aI0
aI0
aI0
aI0
aI0
aI0
aI0
aI0
aI0
aI0
aI0
aI0
aI0
aI0
aI0
aI0
aI0
aI0
aI0
aI0
aI0
aI0
aI0
aI0
aI0
aI0
aI0
aI122
aI0
aI0
aI0
aI100
aI0
aI0
aI0
aI0
aI0
aI0
aI0
aI0
aI0
aI0
aI0
aI0
aI0
aI0
aI0
aI0
aI0
aI0
aI0
aI0
aI0
aI2
aI3
aI2
aI0
aI0
aI0
aI1
aI0
aI0
aI0
aI0
aI0
aI0
aI0
aI0
aI2
aI0
aI0
aI0
aI8
aI0
aI0
aI45
aI38
aI0
aI0
aI0
aI0
aI0
aI0
aI0
aI4
aI3
aI3
aI4
aI33
aI0
aI0
aI5
aI40
aI0
aI0
aI0
aI0
aI0
aI0
aI0
aI0
aI1
aI0
aI0
aI0
aI0
aI0
aI0
aI0
aI0
aI0
aI0
aI0
aI0
aI0
aI0
aI0
aI0
aI0
aI0
aI0
aI0
aI0
aI0
aI0
aI0
aI0
aI0
aI0
aI0
aI0
aI0
aI0
aI0
aI0
aI0
aI107
aI0
aI0
aI0
aI15
aI0
aI0
aI0
aI0
aI0
aI0
aI0
aI0
aI0
aI0
aI0
aI10
aI0
aI0
aI0
aI90
aI0
aI0
aI0
aI0
aI0
aI0
aI0
aI0
aI0
aI0
aI0
aI0
aI0
aI0
aI0
aI0
aI0
aI0
aI0
aI0
aI0
aI0
aI0
aa(lp32
F-2.3776504645801357
aF-29.62562006846772
aF6.257760391835234
aF250.63411190881632
aF866.3149420838
aF637.0799797420028
aF0.06655621036488411
aF0.06655621036488411
aF0.06655621036488411
aF0.06655621036488411
aF0.06655621036488411
aF0.06655621036488411
aF0.06655621036488411
aF0.06655621036488411
aF0.06655621036488411
aF0.06655621036488411
aI10
aI4
aI3
aI0
aI3
aI2
aI12
aI1
aI0
aI2
aI0
aI4
aI0
aI1
aI1
aI0
aI18
aI0
aI0
aI1
aI10
aI0
aI0
aI1
aI3
aI0
aI0
aI11
aI1
aI1
aI4
aI3
aI4
aI0
aI2
aI2
aI13
aI0
aI0
aI1
aI0
aI0
aI0
aI14
aI0
aI0
aI0
aI12
aI1
aI2
aI4
aI0
aI6
aI19
aI8
aI0
aI0
aI0
aI1
aI5
aI0
aI0
aI0
aI1
aI0
aI0
aI0
aI0
aI9
aI3
aI1
aI1
aI16
aI10
aI6
aI7
aI0
aI1
aI1
aI1
aI0
aI0
aI0
aI1
aI28
aI0
aI0
aI1
aI28
aI0
aI0
aI9
aI2
aI2
aI0
aI2
aI0
aI0
aI1
aI0
aI2
aI0
aI0
aI17
aI5
aI0
aI0
aI41
aI4
aI0
aI2
aI1
aI0
aI0
aI0
aI0
aI1
aI0
aI1
aI3
aI4
aI6
aI15
aI31
aI1
aI1
aI0
aI3
aI0
aI0
aI0
aI0
aI0
aI0
aI0
aI0
aI0
aI0
aI0
aI0
aI0
aI0
aI0
aI0
aI0
aI0
aI0
aI0
aI0
aI0
aI0
aI0
aI0
aI0
aI0
aI0
aI0
aI0
aI0
aI0
aI0
aI0
aI0
aI0
aI0
aI0
aI0
aI109
aI0
aI0
aI0
aI159
aI0
aI0
aI0
aI0
aI0
aI0
aI0
aI0
aI0
aI0
aI0
aI0
aI0
aI0
aI0
aI0
aI0
aI0
aI0
aI0
aI0
aI0
aI0
aI0
aI0
aI0
aI0
aI0
aI0
aI0
aI0
aI0
aI0
aI0
aI0
aI0
aI0
aI0
aI0
aI3
aI0
aI0
aI0
aI66
aI46
aI0
aI0
aI0
aI0
aI0
aI0
aI0
aI0
aI0
aI2
aI10
aI0
aI0
aI0
aI19
aI37
aI0
aI0
aI0
aI0
aI0
aI0
aI0
aI0
aI0
aI6
aI2
aI0
aI0
aI0
aI0
aI0
aI0
aI0
aI0
aI0
aI0
aI0
aI0
aI0
aI0
aI0
aI0
aI0
aI0
aI0
aI0
aI0
aI0
aI0
aI0
aI0
aI0
aI0
aI0
aI0
aI0
aI0
aI0
aI109
aI0
aI0
aI0
aI8
aI0
aI0
aI0
aI0
aI0
aI0
aI0
aI0
aI0
aI0
aI0
aI22
aI0
aI0
aI0
aI129
aI0
aI0
aI0
aI0
aI0
aI0
aI0
aI0
aI0
aI0
aI0
aI0
aI0
aI0
aI0
aI0
aI0
aI0
aI0
aI0
aI0
aI0
aI0
aa(lp33
F-9.812083578132462
aF-43.18774603217261
aF16.034004569582926
aF238.96551551439725
aF681.5842628537359
aF859.2086716578915
aF1.1189760517712155
aF1.1189760517712155
aF1.1189760517712155
aF1.1189760517712155
aF1.1189760517712155
aF1.1189760517712155
aF1.1189760517712155
aF1.1189760517712155
aF1.1189760517712155
aF1.1189760517712155
aI0
aI2
aI13
aI0
aI0
aI1
aI58
aI1
aI0
aI6
aI5
aI1
aI0
aI8
aI5
aI0
aI0
aI2
aI6
aI0
aI0
aI0
aI0
aI0
aI0
aI0
aI0
aI1
aI1
aI0
aI0
aI0
aI0
aI1
aI5
aI0
aI0
aI0
aI0
aI0
aI0
aI0
aI0
aI0
aI1
aI2
aI0
aI1
aI0
aI3
aI9
aI0
aI0
aI58
aI11
aI1
aI1
aI9
aI1
aI0
aI0
aI2
aI0
aI0
aI0
aI0
aI0
aI0
aI0
aI0
aI0
aI0
aI0
aI1
aI24
aI0
aI0
aI2
aI2
aI0
aI0
aI0
aI0
aI0
aI30
aI0
aI0
aI0
aI15
aI0
aI0
aI5
aI0
aI1
aI1
aI0
aI0
aI0
aI0
aI1
aI0
aI0
aI0
aI3
aI0
aI0
aI0
aI70
aI0
aI2
aI1
aI1
aI0
aI0
aI0
aI0
aI0
aI0
aI0
aI0
aI0
aI28
aI7
aI5
aI0
aI12
aI1
aI0
aI0
aI0
aI0
aI0
aI0
aI0
aI0
aI0
aI0
aI0
aI0
aI0
aI0
aI0
aI0
aI0
aI0
aI0
aI0
aI0
aI0
aI0
aI0
aI0
aI0
aI0
aI0
aI0
aI0
aI0
aI0
aI0
aI0
aI0
aI0
aI0
aI0
aI0
aI0
aI203
aI0
aI0
aI0
aI9
aI0
aI0
aI0
aI0
aI0
aI0
aI0
aI0
aI0
aI0
aI0
aI0
aI0
aI0
aI0
aI0
aI0
aI0
aI0
aI0
aI0
aI0
aI0
aI0
aI0
aI0
aI0
aI0
aI0
aI0
aI0
aI0
aI0
aI0
aI0
aI0
aI0
aI0
aI0
aI0
aI50
aI0
aI0
aI0
aI66
aI0
aI0
aI0
aI0
aI0
aI0
aI0
aI0
aI0
aI0
aI0
aI54
aI0
aI0
aI3
aI42
aI0
aI0
aI0
aI0
aI0
aI0
aI0
aI0
aI0
aI0
aI0
aI0
aI0
aI0
aI0
aI0
aI0
aI0
aI0
aI0
aI0
aI0
aI0
aI0
aI0
aI0
aI0
aI0
aI0
aI0
aI0
aI0
aI0
aI0
aI0
aI0
aI0
aI0
aI0
aI0
aI0
aI0
aI0
aI58
aI0
aI0
aI0
aI39
aI0
aI0
aI0
aI0
aI0
aI0
aI0
aI0
aI0
aI0
aI0
aI42
aI0
aI0
aI0
aI73
aI0
aI0
aI0
aI0
aI0
aI0
aI0
aI0
aI0
aI0
aI0
aI0
aI0
aI0
aI0
aI0
aI0
aI0
aI0
aI0
aI0
aI0
aI0
aa(lp34
F-11.508294515340655
aF-44.99814390758191
aF23.658336147416517
aF300.53881356973005
aF886.8246937659479
aF200.25184348161469
aF0.9660329948861064
aF0.9660329948861064
aF0.9660329948861064
aF0.9660329948861064
aF0.9660329948861064
aF0.9660329948861064
aF0.9660329948861064
aF0.9660329948861064
aF0.9660329948861064
aF0.9660329948861064
aI0
aI1
aI15
aI1
aI0
aI0
aI68
aI5
aI0
aI1
aI1
aI0
aI0
aI0
aI0
aI1
aI1
aI0
aI7
aI4
aI0
aI0
aI0
aI3
aI1
aI0
aI0
aI2
aI3
aI2
aI8
aI3
aI0
aI2
aI6
aI1
aI0
aI0
aI0
aI0
aI1
aI0
aI0
aI1
aI0
aI0
aI0
aI0
aI0
aI3
aI9
aI0
aI0
aI46
aI18
aI1
aI0
aI12
aI3
aI0
aI0
aI1
aI0
aI0
aI0
aI1
aI0
aI0
aI8
aI3
aI0
aI1
aI1
aI3
aI21
aI4
aI0
aI1
aI1
aI0
aI0
aI0
aI0
aI1
aI32
aI0
aI0
aI1
aI35
aI0
aI0
aI1
aI2
aI1
aI1
aI1
aI0
aI0
aI0
aI0
aI0
aI0
aI0
aI7
aI3
aI0
aI0
aI40
aI1
aI3
aI0
aI0
aI0
aI0
aI0
aI0
aI0
aI0
aI0
aI0
aI5
aI26
aI10
aI8
aI1
aI8
aI0
aI1
aI0
aI0
aI0
aI0
aI0
aI0
aI0
aI0
aI0
aI0
aI0
aI0
aI0
aI0
aI0
aI0
aI0
aI0
aI0
aI0
aI0
aI0
aI0
aI0
aI0
aI0
aI0
aI0
aI0
aI0
aI0
aI0
aI0
aI0
aI0
aI0
aI0
aI0
aI0
aI89
aI0
aI0
aI0
aI143
aI0
aI0
aI0
aI0
aI0
aI0
aI0
aI0
aI0
aI0
aI0
aI0
aI0
aI0
aI0
aI0
aI0
aI0
aI0
aI0
aI0
aI0
aI0
aI0
aI0
aI0
aI0
aI0
aI0
aI0
aI0
aI0
aI0
aI0
aI0
aI0
aI0
aI0
aI0
aI0
aI67
aI0
aI0
aI0
aI61
aI0
aI0
aI0
aI0
aI0
aI0
aI0
aI0
aI0
aI0
aI0
aI67
aI0
aI0
aI0
aI36
aI0
aI0
aI0
aI0
aI0
aI0
aI0
aI0
aI0
aI0
aI0
aI0
aI0
aI0
aI0
aI0
aI0
aI0
aI0
aI0
aI0
aI0
aI0
aI0
aI0
aI0
aI0
aI0
aI0
aI0
aI0
aI0
aI0
aI0
aI0
aI0
aI0
aI0
aI0
aI0
aI0
aI0
aI0
aI75
aI0
aI0
aI0
aI22
aI0
aI0
aI0
aI0
aI0
aI0
aI0
aI0
aI0
aI0
aI0
aI45
aI0
aI0
aI0
aI90
aI0
aI0
aI0
aI0
aI0
aI0
aI0
aI0
aI0
aI0
aI0
aI0
aI0
aI0
aI0
aI0
aI0
aI0
aI0
aI0
aI0
aI0
aI0
aa(lp35
F-7.6478226624766465
aF-36.27612358065066
aF10.97168487057625
aF239.02083858540936
aF695.6668165008488
aF277.3601497151007
aF0.9061378111184791
aF0.9061378111184791
aF0.9061378111184791
aF0.9061378111184791
aF0.9061378111184791
aF0.9061378111184791
aF0.9061378111184791
aF0.9061378111184791
aF0.9061378111184791
aF0.9061378111184791
aI1
aI0
aI6
aI1
aI3
aI3
aI54
aI9
aI1
aI1
aI10
aI3
aI0
aI1
aI1
aI0
aI5
aI0
aI8
aI2
aI4
aI0
aI0
aI2
aI1
aI0
aI0
aI2
aI1
aI1
aI1
aI1
aI1
aI1
aI7
aI1
aI4
aI0
aI0
aI1
aI0
aI0
aI0
aI5
aI1
aI2
aI1
aI1
aI0
aI1
aI9
aI0
aI3
aI46
aI12
aI1
aI2
aI11
aI4
aI2
aI0
aI4
aI0
aI0
aI0
aI0
aI0
aI0
aI4
aI3
aI0
aI0
aI3
aI2
aI1
aI3
aI0
aI1
aI6
aI1
aI1
aI0
aI0
aI0
aI51
aI0
aI0
aI2
aI37
aI0
aI0
aI10
aI2
aI2
aI0
aI1
aI1
aI0
aI0
aI0
aI2
aI0
aI0
aI5
aI2
aI0
aI0
aI57
aI1
aI1
aI0
aI0
aI0
aI0
aI0
aI0
aI2
aI7
aI0
aI5
aI2
aI15
aI3
aI9
aI0
aI3
aI0
aI0
aI0
aI0
aI0
aI0
aI0
aI0
aI0
aI0
aI0
aI0
aI0
aI0
aI0
aI0
aI0
aI0
aI0
aI0
aI0
aI0
aI0
aI0
aI0
aI0
aI0
aI0
aI0
aI0
aI0
aI0
aI0
aI0
aI0
aI0
aI0
aI0
aI0
aI0
aI0
aI78
aI0
aI0
aI0
aI167
aI0
aI0
aI0
aI0
aI0
aI0
aI0
aI0
aI0
aI0
aI0
aI0
aI0
aI0
aI0
aI0
aI0
aI0
aI0
aI0
aI0
aI0
aI0
aI0
aI0
aI0
aI1
aI0
aI0
aI0
aI0
aI0
aI0
aI0
aI0
aI0
aI0
aI0
aI0
aI0
aI66
aI0
aI0
aI0
aI70
aI0
aI0
aI1
aI0
aI0
aI0
aI0
aI0
aI0
aI0
aI0
aI47
aI0
aI0
aI0
aI57
aI0
aI0
aI0
aI0
aI0
aI0
aI0
aI0
aI0
aI0
aI0
aI0
aI0
aI0
aI0
aI0
aI0
aI0
aI0
aI0
aI0
aI0
aI0
aI0
aI0
aI0
aI0
aI0
aI0
aI0
aI0
aI0
aI0
aI0
aI0
aI0
aI0
aI0
aI0
aI0
aI0
aI0
aI0
aI100
aI0
aI0
aI0
aI12
aI0
aI0
aI0
aI0
aI0
aI0
aI0
aI0
aI0
aI0
aI0
aI5
aI0
aI0
aI0
aI128
aI0
aI0
aI0
aI0
aI0
aI0
aI0
aI0
aI0
aI0
aI0
aI0
aI0
aI0
aI0
aI0
aI0
aI0
aI0
aI0
aI0
aI0
aI0
aa(lp36
F-4.2256871538301946
aF-31.75194858463975
aF19.351435116431205
aF197.53547505497386
aF506.91210603936906
aF214.1330943504435
aF0.8490774398880434
aF0.8490774398880434
aF0.8490774398880434
aF0.8490774398880434
aF0.8490774398880434
aF0.8490774398880434
aF0.8490774398880434
aF0.8490774398880434
aF0.8490774398880434
aF0.8490774398880434
aI3
aI4
aI12
aI1
aI2
aI15
aI40
aI5
aI1
aI3
aI3
aI6
aI0
aI5
aI3
aI1
aI1
aI3
aI9
aI2
aI0
aI0
aI0
aI1
aI0
aI0
aI0
aI6
aI1
aI2
aI0
aI0
aI0
aI0
aI1
aI2
aI1
aI0
aI0
aI1
aI4
aI0
aI0
aI2
aI2
aI0
aI1
aI1
aI0
aI3
aI10
aI0
aI2
aI55
aI9
aI1
aI1
aI8
aI6
aI0
aI0
aI2
aI1
aI0
aI0
aI0
aI0
aI0
aI8
aI1
aI0
aI0
aI3
aI1
aI0
aI0
aI0
aI2
aI0
aI0
aI0
aI2
aI1
aI0
aI63
aI0
aI0
aI3
aI31
aI0
aI0
aI8
aI1
aI0
aI0
aI0
aI1
aI0
aI0
aI2
aI2
aI0
aI0
aI7
aI9
aI0
aI0
aI67
aI0
aI1
aI1
aI1
aI0
aI0
aI0
aI0
aI0
aI0
aI2
aI6
aI0
aI0
aI4
aI20
aI0
aI0
aI0
aI0
aI0
aI0
aI0
aI0
aI0
aI0
aI0
aI0
aI0
aI0
aI0
aI0
aI0
aI0
aI0
aI0
aI0
aI0
aI0
aI0
aI0
aI0
aI0
aI0
aI0
aI0
aI0
aI0
aI0
aI0
aI0
aI0
aI0
aI0
aI0
aI0
aI0
aI0
aI0
aI31
aI0
aI0
aI0
aI216
aI0
aI0
aI0
aI0
aI0
aI0
aI0
aI0
aI0
aI0
aI0
aI0
aI0
aI0
aI0
aI0
aI0
aI0
aI0
aI0
aI0
aI0
aI0
aI0
aI0
aI0
aI0
aI0
aI0
aI0
aI0
aI0
aI0
aI0
aI0
aI0
aI0
aI0
aI0
aI1
aI51
aI0
aI0
aI0
aI82
aI0
aI0
aI0
aI0
aI0
aI0
aI0
aI0
aI0
aI0
aI0
aI57
aI0
aI0
aI1
aI50
aI0
aI0
aI0
aI0
aI0
aI0
aI0
aI0
aI0
aI0
aI0
aI0
aI0
aI0
aI0
aI0
aI0
aI0
aI0
aI0
aI0
aI0
aI0
aI0
aI0
aI0
aI0
aI0
aI0
aI0
aI0
aI0
aI0
aI0
aI0
aI0
aI0
aI0
aI0
aI0
aI0
aI0
aI0
aI86
aI0
aI0
aI0
aI27
aI0
aI0
aI0
aI0
aI0
aI0
aI0
aI0
aI0
aI0
aI0
aI32
aI0
aI0
aI0
aI102
aI0
aI0
aI0
aI0
aI0
aI0
aI0
aI0
aI0
aI0
aI0
aI0
aI0
aI0
aI0
aI0
aI0
aI0
aI0
aI0
aI0
aI0
aI0
aa(lp37
F10.90238192477861
aF-19.62795592560264
aF34.80684876283377
aF197.0092392169259
aF329.5739925241536
aF319.95160926667785
aF0.06658662765956266
aF0.06658662765956266
aF0.06658662765956266
aF0.06658662765956266
aF0.06658662765956266
aF0.06658662765956266
aF0.06658662765956266
aF0.06658662765956266
aF0.06658662765956266
aF0.06658662765956266
aI2
aI7
aI9
aI0
aI0
aI1
aI22
aI6
aI1
aI3
aI5
aI1
aI0
aI0
aI1
aI1
aI11
aI0
aI10
aI1
aI6
aI0
aI0
aI4
aI0
aI0
aI0
aI7
aI0
aI0
aI1
aI1
aI2
aI4
aI3
aI0
aI4
aI0
aI0
aI1
aI1
aI0
aI0
aI8
aI0
aI0
aI0
aI3
aI0
aI1
aI4
aI0
aI4
aI33
aI14
aI0
aI0
aI4
aI6
aI1
aI0
aI2
aI1
aI0
aI0
aI0
aI0
aI0
aI5
aI1
aI1
aI0
aI7
aI1
aI0
aI1
aI0
aI0
aI0
aI0
aI1
aI0
aI0
aI0
aI79
aI0
aI0
aI1
aI57
aI0
aI0
aI4
aI0
aI0
aI0
aI0
aI0
aI0
aI0
aI0
aI2
aI0
aI0
aI9
aI4
aI0
aI0
aI82
aI0
aI0
aI1
aI0
aI0
aI0
aI0
aI0
aI0
aI1
aI0
aI0
aI3
aI0
aI3
aI7
aI1
aI2
aI1
aI1
aI0
aI0
aI0
aI0
aI0
aI0
aI0
aI0
aI0
aI0
aI0
aI0
aI0
aI0
aI0
aI0
aI0
aI0
aI0
aI0
aI0
aI0
aI0
aI0
aI0
aI0
aI0
aI0
aI0
aI0
aI0
aI0
aI0
aI0
aI0
aI0
aI0
aI0
aI0
aI40
aI0
aI0
aI0
aI235
aI0
aI0
aI0
aI0
aI0
aI0
aI0
aI0
aI0
aI0
aI0
aI0
aI0
aI0
aI0
aI0
aI0
aI0
aI0
aI0
aI0
aI0
aI0
aI0
aI0
aI0
aI0
aI0
aI0
aI0
aI0
aI0
aI0
aI0
aI0
aI0
aI3
aI0
aI0
aI1
aI27
aI0
aI0
aI14
aI62
aI0
aI0
aI0
aI0
aI0
aI0
aI0
aI0
aI0
aI0
aI0
aI50
aI0
aI0
aI7
aI31
aI0
aI0
aI0
aI0
aI0
aI0
aI0
aI0
aI0
aI1
aI0
aI0
aI0
aI0
aI0
aI0
aI0
aI0
aI0
aI0
aI0
aI0
aI0
aI0
aI0
aI0
aI0
aI0
aI0
aI0
aI0
aI0
aI0
aI0
aI0
aI0
aI0
aI0
aI0
aI0
aI0
aI0
aI0
aI69
aI0
aI0
aI0
aI67
aI0
aI0
aI0
aI0
aI0
aI0
aI0
aI0
aI0
aI0
aI0
aI41
aI0
aI0
aI0
aI98
aI0
aI0
aI0
aI0
aI0
aI0
aI0
aI0
aI0
aI0
aI0
aI0
aI0
aI0
aI0
aI0
aI0
aI0
aI0
aI0
aI0
aI0
aI0
aa(lp38
F-13.653088143523867
aF-26.211196261168975
aF26.161188926804623
aF289.9675966573778
aF334.5502889905241
aF943.9659439594349
aF0.003447244758592093
aF0.003447244758592093
aF0.003447244758592093
aF0.003447244758592093
aF0.003447244758592093
aF0.003447244758592093
aF0.003447244758592093
aF0.003447244758592093
aF0.003447244758592093
aF0.003447244758592093
aI0
aI4
aI8
aI0
aI9
aI2
aI11
aI2
aI0
aI0
aI1
aI5
aI0
aI0
aI0
aI0
aI4
aI0
aI4
aI5
aI6
aI0
aI0
aI0
aI0
aI0
aI0
aI15
aI0
aI0
aI0
aI0
aI0
aI0
aI1
aI3
aI0
aI0
aI0
aI0
aI0
aI0
aI0
aI5
aI0
aI0
aI0
aI0
aI0
aI0
aI3
aI0
aI0
aI27
aI6
aI1
aI0
aI3
aI1
aI1
aI0
aI0
aI0
aI0
aI0
aI0
aI1
aI0
aI14
aI2
aI0
aI1
aI11
aI0
aI3
aI0
aI1
aI3
aI0
aI0
aI0
aI0
aI0
aI0
aI49
aI0
aI0
aI1
aI25
aI0
aI0
aI6
aI3
aI0
aI0
aI0
aI0
aI0
aI2
aI0
aI3
aI0
aI0
aI5
aI13
aI0
aI0
aI57
aI3
aI2
aI0
aI0
aI0
aI0
aI0
aI0
aI3
aI3
aI1
aI7
aI1
aI0
aI3
aI31
aI1
aI1
aI2
aI0
aI0
aI0
aI0
aI0
aI0
aI0
aI0
aI0
aI0
aI0
aI0
aI0
aI0
aI0
aI0
aI0
aI0
aI0
aI0
aI0
aI0
aI0
aI0
aI0
aI0
aI0
aI0
aI0
aI0
aI0
aI0
aI0
aI0
aI0
aI0
aI0
aI0
aI0
aI0
aI4
aI0
aI0
aI0
aI254
aI0
aI0
aI0
aI0
aI0
aI0
aI0
aI0
aI0
aI0
aI0
aI0
aI0
aI0
aI0
aI0
aI0
aI0
aI0
aI0
aI0
aI0
aI0
aI0
aI0
aI0
aI0
aI0
aI0
aI0
aI0
aI0
aI0
aI0
aI0
aI0
aI0
aI0
aI0
aI0
aI7
aI0
aI0
aI30
aI33
aI0
aI0
aI0
aI0
aI0
aI0
aI0
aI0
aI0
aI0
aI0
aI17
aI0
aI0
aI3
aI37
aI0
aI0
aI0
aI0
aI0
aI0
aI0
aI0
aI0
aI0
aI0
aI0
aI0
aI0
aI0
aI0
aI0
aI0
aI0
aI0
aI0
aI0
aI0
aI0
aI0
aI0
aI0
aI0
aI0
aI0
aI0
aI0
aI0
aI0
aI0
aI0
aI0
aI0
aI0
aI0
aI0
aI0
aI0
aI91
aI0
aI0
aI0
aI4
aI0
aI0
aI0
aI0
aI0
aI0
aI0
aI0
aI0
aI0
aI0
aI25
aI0
aI0
aI0
aI138
aI0
aI0
aI0
aI0
aI0
aI0
aI0
aI0
aI0
aI0
aI0
aI0
aI0
aI0
aI0
aI0
aI0
aI0
aI0
aI0
aI0
aI0
aI0
aa(lp39
F-10.483241989808251
aF-16.319712868983586
aF51.40043664793938
aF382.5877638017373
aF309.0115797861473
aF607.2377167155429
aF0.13522774926074807
aF0.13522774926074807
aF0.13522774926074807
aF0.13522774926074807
aF0.13522774926074807
aF0.13522774926074807
aF0.13522774926074807
aF0.13522774926074807
aF0.13522774926074807
aF0.13522774926074807
aI1
aI1
aI4
aI1
aI1
aI1
aI28
aI6
aI0
aI0
aI1
aI3
aI0
aI0
aI0
aI0
aI7
aI0
aI3
aI2
aI4
aI0
aI0
aI3
aI0
aI0
aI0
aI9
aI0
aI0
aI1
aI3
aI1
aI0
aI2
aI4
aI2
aI0
aI0
aI2
aI1
aI0
aI0
aI4
aI0
aI0
aI5
aI4
aI0
aI0
aI7
aI0
aI3
aI23
aI25
aI0
aI1
aI2
aI13
aI3
aI0
aI0
aI2
aI0
aI0
aI0
aI0
aI0
aI6
aI2
aI1
aI2
aI5
aI1
aI0
aI1
aI0
aI1
aI0
aI0
aI1
aI1
aI0
aI1
aI69
aI0
aI0
aI2
aI28
aI0
aI0
aI3
aI2
aI0
aI0
aI0
aI0
aI1
aI0
aI1
aI5
aI0
aI0
aI8
aI8
aI0
aI0
aI62
aI2
aI0
aI1
aI3
aI0
aI0
aI0
aI0
aI1
aI1
aI0
aI0
aI2
aI1
aI2
aI9
aI1
aI0
aI1
aI0
aI0
aI0
aI0
aI0
aI0
aI0
aI0
aI0
aI0
aI0
aI0
aI0
aI0
aI0
aI0
aI0
aI0
aI0
aI0
aI0
aI0
aI0
aI0
aI0
aI0
aI0
aI0
aI0
aI0
aI0
aI0
aI0
aI0
aI0
aI0
aI0
aI0
aI0
aI0
aI28
aI0
aI0
aI0
aI207
aI0
aI0
aI0
aI0
aI0
aI0
aI0
aI0
aI0
aI0
aI0
aI0
aI0
aI0
aI0
aI0
aI0
aI0
aI0
aI0
aI0
aI0
aI0
aI0
aI0
aI0
aI0
aI1
aI0
aI0
aI0
aI0
aI0
aI0
aI0
aI0
aI0
aI0
aI0
aI0
aI22
aI0
aI0
aI16
aI58
aI0
aI0
aI0
aI0
aI0
aI0
aI0
aI1
aI0
aI0
aI1
aI35
aI0
aI0
aI13
aI35
aI0
aI0
aI0
aI0
aI0
aI0
aI0
aI0
aI0
aI0
aI0
aI1
aI0
aI0
aI0
aI0
aI0
aI0
aI0
aI0
aI0
aI0
aI0
aI0
aI0
aI0
aI0
aI0
aI0
aI0
aI0
aI0
aI0
aI0
aI0
aI0
aI0
aI0
aI0
aI0
aI0
aI0
aI0
aI65
aI0
aI0
aI0
aI74
aI0
aI0
aI0
aI0
aI0
aI0
aI0
aI0
aI0
aI0
aI0
aI51
aI0
aI0
aI0
aI45
aI0
aI0
aI0
aI0
aI0
aI0
aI0
aI0
aI0
aI0
aI0
aI0
aI0
aI0
aI0
aI0
aI0
aI0
aI0
aI0
aI0
aI0
aI0
aa(lp40
F2.6699904622670103
aF-27.019304903307816
aF46.497708926667244
aF412.78474932845785
aF487.99317886018804
aF773.2990609220969
aF0.4634063868826156
aF0.4634063868826156
aF0.4634063868826156
aF0.4634063868826156
aF0.4634063868826156
aF0.4634063868826156
aF0.4634063868826156
aF0.4634063868826156
aF0.4634063868826156
aF0.4634063868826156
aI2
aI1
aI4
aI1
aI4
aI2
aI40
aI5
aI0
aI0
aI1
aI5
aI1
aI0
aI0
aI0
aI7
aI0
aI2
aI4
aI3
aI0
aI0
aI0
aI0
aI0
aI0
aI2
aI0
aI0
aI0
aI3
aI0
aI1
aI5
aI4
aI3
aI0
aI0
aI0
aI0
aI0
aI0
aI2
aI0
aI1
aI0
aI11
aI0
aI3
aI12
aI0
aI2
aI33
aI20
aI0
aI0
aI8
aI15
aI1
aI0
aI5
aI3
aI2
aI0
aI0
aI0
aI0
aI10
aI2
aI0
aI1
aI3
aI0
aI3
aI0
aI0
aI1
aI1
aI0
aI0
aI0
aI0
aI0
aI97
aI0
aI0
aI0
aI13
aI0
aI0
aI4
aI0
aI0
aI0
aI1
aI0
aI0
aI0
aI0
aI6
aI0
aI0
aI2
aI3
aI0
aI0
aI69
aI0
aI1
aI0
aI0
aI0
aI0
aI0
aI0
aI1
aI0
aI1
aI1
aI0
aI0
aI0
aI20
aI0
aI0
aI0
aI0
aI0
aI0
aI0
aI0
aI0
aI0
aI0
aI0
aI0
aI0
aI0
aI0
aI0
aI0
aI0
aI0
aI0
aI0
aI0
aI0
aI0
aI0
aI0
aI0
aI0
aI0
aI0
aI0
aI0
aI0
aI0
aI0
aI0
aI0
aI0
aI0
aI0
aI0
aI0
aI0
aI0
aI0
aI0
aI240
aI0
aI0
aI0
aI0
aI0
aI0
aI0
aI0
aI0
aI0
aI0
aI0
aI0
aI0
aI0
aI0
aI0
aI0
aI0
aI0
aI0
aI0
aI0
aI0
aI1
aI0
aI0
aI0
aI0
aI0
aI0
aI0
aI0
aI0
aI0
aI0
aI0
aI0
aI0
aI0
aI33
aI0
aI0
aI23
aI63
aI0
aI0
aI0
aI0
aI0
aI0
aI0
aI0
aI0
aI0
aI0
aI51
aI0
aI0
aI0
aI47
aI0
aI0
aI0
aI0
aI0
aI0
aI0
aI0
aI0
aI0
aI0
aI0
aI0
aI0
aI0
aI0
aI0
aI0
aI0
aI0
aI0
aI0
aI0
aI0
aI0
aI0
aI0
aI0
aI0
aI0
aI0
aI0
aI0
aI0
aI0
aI0
aI0
aI0
aI0
aI0
aI0
aI0
aI0
aI93
aI0
aI0
aI0
aI15
aI0
aI0
aI0
aI0
aI0
aI0
aI0
aI0
aI0
aI0
aI0
aI21
aI0
aI0
aI0
aI111
aI0
aI0
aI0
aI0
aI0
aI0
aI0
aI0
aI0
aI0
aI0
aI0
aI0
aI0
aI0
aI0
aI0
aI0
aI0
aI0
aI0
aI0
aI0
aa(lp41
F-4.825006968942242
aF-36.00412234281183
aF26.776737451843577
aF256.1665738293726
aF604.175317881247
aF330.37327886021257
aF1.0
aF1.0
aF1.0
aF1.0
aF1.0
aF1.0
aF1.0
aF1.0
aF1.0
aF1.0
aI2
aI0
aI7
aI2
aI1
aI2
aI53
aI3
aI0
aI0
aI0
aI2
aI0
aI0
aI0
aI0
aI5
aI1
aI5
aI3
aI4
aI0
aI0
aI0
aI1
aI0
aI0
aI1
aI0
aI0
aI0
aI3
aI1
aI0
aI5
aI4
aI5
aI0
aI0
aI0
aI1
aI0
aI0
aI1
aI3
aI4
aI0
aI4
aI0
aI2
aI9
aI1
aI1
aI45
aI24
aI1
aI0
aI8
aI2
aI0
aI0
aI1
aI3
aI0
aI0
aI1
aI0
aI0
aI9
aI0
aI1
aI1
aI7
aI0
aI0
aI0
aI0
aI3
aI1
aI0
aI2
aI0
aI0
aI0
aI69
aI0
aI0
aI1
aI5
aI0
aI0
aI2
aI2
aI0
aI0
aI1
aI0
aI0
aI0
aI1
aI4
aI0
aI0
aI7
aI1
aI0
aI0
aI76
aI0
aI0
aI1
aI1
aI0
aI0
aI0
aI0
aI0
aI0
aI0
aI1
aI0
aI0
aI0
aI22
aI0
aI0
aI1
aI0
aI0
aI0
aI0
aI0
aI0
aI0
aI0
aI0
aI0
aI0
aI0
aI0
aI0
aI0
aI0
aI0
aI0
aI0
aI0
aI0
aI0
aI0
aI0
aI0
aI0
aI0
aI0
aI0
aI0
aI0
aI0
aI0
aI0
aI0
aI0
aI0
aI0
aI0
aI0
aI0
aI0
aI0
aI0
aI220
aI0
aI0
aI0
aI0
aI0
aI0
aI0
aI0
aI0
aI0
aI0
aI0
aI0
aI0
aI0
aI0
aI0
aI0
aI0
aI0
aI0
aI0
aI0
aI0
aI0
aI0
aI0
aI0
aI0
aI0
aI0
aI0
aI0
aI0
aI0
aI0
aI0
aI0
aI0
aI0
aI50
aI0
aI0
aI2
aI69
aI0
aI0
aI0
aI0
aI0
aI0
aI0
aI0
aI0
aI0
aI0
aI58
aI0
aI0
aI0
aI41
aI0
aI0
aI0
aI0
aI0
aI0
aI0
aI0
aI0
aI0
aI0
aI0
aI0
aI0
aI0
aI0
aI0
aI0
aI0
aI0
aI0
aI0
aI0
aI0
aI0
aI0
aI0
aI0
aI0
aI0
aI0
aI0
aI0
aI0
aI0
aI0
aI0
aI0
aI0
aI0
aI0
aI0
aI0
aI75
aI0
aI0
aI0
aI13
aI0
aI0
aI0
aI0
aI0
aI0
aI0
aI0
aI0
aI0
aI0
aI14
aI0
aI0
aI0
aI118
aI0
aI0
aI0
aI0
aI0
aI0
aI0
aI0
aI0
aI0
aI0
aI0
aI0
aI0
aI0
aI0
aI0
aI0
aI0
aI0
aI0
aI0
aI0
aa(lp42
F22.471579516251104
aF-36.62396757317322
aF24.626094865946527
aF214.48890967015836
aF367.2134952649731
aF261.6149008837522
aF0.10704450651655151
aF0.10704450651655151
aF0.10704450651655151
aF0.10704450651655151
aF0.10704450651655151
aF0.10704450651655151
aF0.10704450651655151
aF0.10704450651655151
aF0.10704450651655151
aF0.10704450651655151
aI1
aI0
aI4
aI2
aI0
aI1
aI34
aI3
aI0
aI1
aI2
aI2
aI1
aI0
aI2
aI1
aI3
aI2
aI1
aI7
aI1
aI0
aI0
aI0
aI0
aI0
aI0
aI2
aI0
aI0
aI1
aI2
aI1
aI3
aI3
aI5
aI2
aI0
aI0
aI0
aI2
aI0
aI0
aI1
aI2
aI1
aI1
aI5
aI0
aI1
aI11
aI1
aI2
aI28
aI31
aI1
aI1
aI2
aI2
aI1
aI0
aI0
aI0
aI0
aI0
aI1
aI1
aI0
aI13
aI1
aI0
aI0
aI7
aI2
aI0
aI3
aI0
aI1
aI0
aI0
aI0
aI1
aI0
aI0
aI67
aI0
aI0
aI4
aI6
aI0
aI0
aI7
aI1
aI4
aI0
aI2
aI0
aI0
aI1
aI0
aI3
aI0
aI0
aI1
aI2
aI0
aI0
aI80
aI1
aI0
aI0
aI2
aI0
aI0
aI0
aI0
aI1
aI0
aI1
aI0
aI2
aI0
aI2
aI18
aI0
aI2
aI1
aI0
aI0
aI0
aI0
aI0
aI0
aI0
aI0
aI0
aI0
aI0
aI0
aI0
aI0
aI0
aI0
aI0
aI0
aI0
aI0
aI0
aI0
aI0
aI0
aI0
aI0
aI0
aI0
aI0
aI0
aI0
aI0
aI0
aI0
aI0
aI0
aI0
aI0
aI0
aI0
aI0
aI0
aI0
aI0
aI238
aI0
aI0
aI0
aI0
aI0
aI0
aI0
aI0
aI0
aI0
aI0
aI0
aI0
aI0
aI0
aI0
aI0
aI0
aI0
aI0
aI0
aI0
aI0
aI0
aI0
aI0
aI0
aI0
aI0
aI0
aI0
aI0
aI0
aI0
aI0
aI0
aI0
aI0
aI0
aI0
aI30
aI0
aI0
aI8
aI59
aI0
aI0
aI0
aI0
aI0
aI0
aI0
aI0
aI0
aI0
aI0
aI52
aI0
aI0
aI0
aI31
aI0
aI0
aI0
aI0
aI0
aI0
aI0
aI0
aI0
aI0
aI0
aI0
aI0
aI0
aI0
aI0
aI0
aI0
aI0
aI0
aI0
aI0
aI0
aI0
aI0
aI0
aI0
aI0
aI0
aI0
aI0
aI0
aI0
aI0
aI0
aI0
aI0
aI0
aI0
aI0
aI0
aI0
aI0
aI57
aI0
aI0
aI0
aI40
aI0
aI0
aI0
aI0
aI0
aI0
aI0
aI0
aI0
aI0
aI0
aI58
aI0
aI0
aI0
aI83
aI0
aI0
aI0
aI0
aI0
aI0
aI0
aI0
aI0
aI0
aI0
aI0
aI0
aI0
aI0
aI0
aI0
aI0
aI0
aI0
aI0
aI0
aI0
aa(lp43
F20.023968528604822
aF-38.153163301473754
aF3.2442935462878095
aF155.6315947820908
aF198.11260958048214
aF208.3685352719755
aF0.0032678483597902096
aF0.0032678483597902096
aF0.0032678483597902096
aF0.0032678483597902096
aF0.0032678483597902096
aF0.0032678483597902096
aF0.0032678483597902096
aF0.0032678483597902096
aF0.0032678483597902096
aF0.0032678483597902096
aI1
aI1
aI3
aI0
aI0
aI0
aI22
aI2
aI1
aI0
aI4
aI3
aI0
aI1
aI1
aI0
aI2
aI2
aI7
aI3
aI4
aI0
aI0
aI3
aI0
aI0
aI0
aI1
aI0
aI0
aI0
aI3
aI0
aI0
aI3
aI2
aI1
aI0
aI0
aI0
aI1
aI0
aI0
aI2
aI0
aI0
aI0
aI0
aI0
aI6
aI9
aI0
aI4
aI21
aI11
aI0
aI2
aI2
aI1
aI3
aI0
aI0
aI1
aI0
aI0
aI1
aI0
aI0
aI12
aI0
aI2
aI1
aI5
aI1
aI1
aI0
aI1
aI1
aI0
aI0
aI3
aI1
aI0
aI1
aI72
aI0
aI0
aI1
aI12
aI0
aI0
aI5
aI3
aI1
aI2
aI2
aI0
aI0
aI0
aI1
aI12
aI0
aI0
aI1
aI7
aI0
aI0
aI76
aI1
aI0
aI0
aI6
aI0
aI0
aI1
aI0
aI0
aI0
aI0
aI1
aI1
aI2
aI2
aI28
aI1
aI0
aI1
aI2
aI0
aI0
aI0
aI0
aI0
aI0
aI0
aI0
aI0
aI0
aI0
aI0
aI0
aI0
aI0
aI0
aI0
aI0
aI0
aI0
aI0
aI0
aI0
aI0
aI0
aI0
aI0
aI0
aI0
aI0
aI0
aI0
aI0
aI0
aI0
aI0
aI0
aI0
aI0
aI0
aI0
aI0
aI0
aI271
aI0
aI0
aI0
aI0
aI0
aI0
aI0
aI0
aI0
aI0
aI0
aI0
aI0
aI0
aI0
aI0
aI0
aI0
aI0
aI0
aI0
aI0
aI0
aI0
aI0
aI0
aI0
aI0
aI0
aI0
aI0
aI0
aI0
aI0
aI0
aI0
aI0
aI0
aI0
aI0
aI28
aI0
aI0
aI0
aI44
aI0
aI0
aI0
aI0
aI0
aI0
aI0
aI0
aI0
aI0
aI0
aI40
aI0
aI0
aI3
aI18
aI0
aI0
aI0
aI0
aI0
aI0
aI0
aI0
aI0
aI0
aI0
aI0
aI0
aI0
aI0
aI0
aI0
aI0
aI0
aI0
aI0
aI0
aI0
aI0
aI0
aI0
aI0
aI0
aI0
aI0
aI0
aI0
aI0
aI0
aI0
aI0
aI0
aI0
aI0
aI0
aI0
aI0
aI0
aI88
aI0
aI0
aI0
aI21
aI0
aI0
aI0
aI0
aI0
aI0
aI0
aI0
aI0
aI0
aI0
aI46
aI0
aI0
aI0
aI116
aI0
aI0
aI0
aI0
aI0
aI0
aI0
aI0
aI0
aI0
aI0
aI0
aI0
aI0
aI0
aI0
aI0
aI0
aI0
aI0
aI0
aI0
aI0
aa(lp44
F32.20425772867944
aF41.56659766866245
aF-31.829067883828454
aF826.6068035260269
aF486.4134218648084
aF318.6203547069856
aF0.10724186899950902
aF0.10724186899950902
aF0.10724186899950902
aF0.10724186899950902
aF0.10724186899950902
aF0.10724186899950902
aF0.10724186899950902
aF0.10724186899950902
aF0.10724186899950902
aF0.10724186899950902
aI0
aI0
aI7
aI0
aI0
aI0
aI13
aI2
aI0
aI1
aI6
aI0
aI0
aI0
aI9
aI0
aI0
aI1
aI8
aI0
aI0
aI0
aI0
aI1
aI2
aI0
aI0
aI0
aI0
aI0
aI5
aI1
aI0
aI3
aI3
aI1
aI0
aI0
aI0
aI0
aI2
aI0
aI0
aI2
aI10
aI7
aI8
aI1
aI0
aI4
aI0
aI0
aI0
aI7
aI0
aI0
aI1
aI13
aI2
aI2
aI6
aI14
aI3
aI1
aI0
aI1
aI4
aI0
aI0
aI0
aI14
aI0
aI7
aI2
aI1
aI0
aI6
aI4
aI0
aI0
aI0
aI8
aI0
aI0
aI0
aI0
aI0
aI3
aI4
aI0
aI0
aI1
aI4
aI0
aI0
aI0
aI0
aI1
aI10
aI1
aI0
aI0
aI0
aI4
aI1
aI0
aI0
aI2
aI2
aI1
aI0
aI0
aI0
aI4
aI8
aI2
aI1
aI10
aI5
aI0
aI1
aI6
aI6
aI0
aI0
aI2
aI0
aI0
aI0
aI0
aI0
aI0
aI0
aI0
aI0
aI0
aI0
aI0
aI0
aI0
aI0
aI0
aI0
aI0
aI0
aI0
aI0
aI0
aI0
aI0
aI0
aI0
aI0
aI0
aI0
aI0
aI0
aI0
aI0
aI0
aI0
aI0
aI0
aI48
aI0
aI0
aI0
aI39
aI0
aI0
aI0
aI0
aI0
aI0
aI0
aI0
aI0
aI0
aI32
aI7
aI0
aI0
aI0
aI0
aI0
aI0
aI0
aI0
aI0
aI0
aI0
aI0
aI0
aI0
aI0
aI0
aI0
aI0
aI0
aI0
aI0
aI0
aI0
aI0
aI0
aI0
aI0
aI0
aI0
aI0
aI0
aI0
aI40
aI0
aI0
aI0
aI48
aI0
aI0
aI0
aI0
aI0
aI0
aI0
aI0
aI0
aI0
aI0
aI28
aI0
aI0
aI0
aI30
aI0
aI0
aI0
aI0
aI0
aI0
aI0
aI0
aI0
aI0
aI0
aI0
aI0
aI0
aI0
aI0
aI0
aI0
aI0
aI0
aI0
aI0
aI0
aI0
aI0
aI0
aI0
aI0
aI0
aI0
aI0
aI0
aI0
aI0
aI0
aI0
aI0
aI0
aI0
aI0
aI0
aI0
aI0
aI32
aI0
aI0
aI0
aI39
aI0
aI0
aI0
aI0
aI0
aI0
aI0
aI0
aI0
aI0
aI0
aI25
aI0
aI0
aI0
aI30
aI0
aI0
aI0
aI0
aI0
aI0
aI0
aI0
aI0
aI0
aI0
aI0
aI0
aI0
aI0
aI0
aI0
aI0
aI0
aI0
aI0
aI0
aI0
aa(lp45
F11.360282007733872
aF48.93754509255656
aF-19.750387073949945
aF767.8465891635793
aF576.5345799892042
aF282.92342338837375
aF0.03714404601417077
aF0.03714404601417077
aF0.03714404601417077
aF0.03714404601417077
aF0.03714404601417077
aF0.03714404601417077
aF0.03714404601417077
aF0.03714404601417077
aF0.03714404601417077
aF0.03714404601417077
aI0
aI0
aI6
aI1
aI0
aI0
aI8
aI1
aI0
aI0
aI5
aI0
aI0
aI0
aI4
aI0
aI0
aI0
aI7
aI0
aI0
aI0
aI0
aI0
aI0
aI0
aI0
aI0
aI2
aI7
aI7
aI0
aI0
aI0
aI6
aI0
aI0
aI0
aI0
aI0
aI0
aI0
aI0
aI2
aI13
aI4
aI5
aI5
aI0
aI4
aI3
aI0
aI0
aI4
aI0
aI0
aI1
aI7
aI0
aI0
aI4
aI1
aI1
aI0
aI0
aI1
aI2
aI2
aI2
aI0
aI2
aI5
aI6
aI0
aI2
aI1
aI0
aI4
aI2
aI0
aI0
aI0
aI8
aI0
aI0
aI0
aI0
aI2
aI2
aI0
aI0
aI0
aI2
aI0
aI7
aI0
aI0
aI5
aI7
aI1
aI0
aI0
aI0
aI0
aI0
aI0
aI0
aI0
aI0
aI2
aI4
aI0
aI0
aI1
aI7
aI0
aI0
aI3
aI6
aI1
aI0
aI5
aI3
aI0
aI0
aI2
aI1
aI0
aI0
aI0
aI0
aI0
aI0
aI0
aI0
aI0
aI0
aI0
aI0
aI0
aI0
aI0
aI0
aI0
aI0
aI0
aI0
aI0
aI0
aI0
aI0
aI0
aI0
aI0
aI0
aI0
aI0
aI0
aI0
aI0
aI0
aI0
aI0
aI14
aI0
aI0
aI0
aI54
aI0
aI0
aI0
aI0
aI0
aI0
aI0
aI0
aI0
aI0
aI20
aI10
aI0
aI0
aI0
aI0
aI0
aI0
aI0
aI0
aI0
aI0
aI0
aI0
aI0
aI0
aI0
aI0
aI0
aI0
aI0
aI0
aI0
aI0
aI0
aI0
aI0
aI0
aI0
aI0
aI0
aI0
aI0
aI0
aI31
aI0
aI0
aI0
aI31
aI0
aI0
aI0
aI0
aI0
aI0
aI0
aI0
aI0
aI0
aI0
aI23
aI0
aI0
aI0
aI23
aI0
aI0
aI0
aI0
aI0
aI0
aI0
aI0
aI0
aI0
aI0
aI0
aI0
aI0
aI0
aI0
aI0
aI0
aI0
aI0
aI0
aI0
aI0
aI0
aI0
aI0
aI0
aI0
aI0
aI0
aI0
aI0
aI0
aI0
aI0
aI0
aI0
aI0
aI0
aI0
aI0
aI0
aI0
aI31
aI0
aI0
aI0
aI22
aI0
aI0
aI0
aI0
aI0
aI0
aI0
aI0
aI0
aI0
aI0
aI24
aI0
aI0
aI0
aI21
aI0
aI0
aI0
aI0
aI0
aI0
aI0
aI0
aI0
aI0
aI0
aI0
aI0
aI0
aI0
aI0
aI0
aI0
aI0
aI0
aI0
aI0
aI0
aa(lp46
F-7.369762985326048
aF36.41559104076918
aF-11.451944670474324
aF844.5793787169908
aF784.2333784679762
aF406.4034088305114
aF0.046055328088402084
aF0.046055328088402084
aF0.046055328088402084
aF0.046055328088402084
aF0.046055328088402084
aF0.046055328088402084
aF0.046055328088402084
aF0.046055328088402084
aF0.046055328088402084
aF0.046055328088402084
aI0
aI0
aI7
aI0
aI3
aI2
aI7
aI0
aI3
aI0
aI7
aI0
aI0
aI2
aI3
aI0
aI0
aI0
aI10
aI0
aI0
aI0
aI0
aI0
aI0
aI0
aI0
aI0
aI4
aI3
aI4
aI3
aI0
aI0
aI6
aI0
aI0
aI0
aI0
aI1
aI0
aI0
aI0
aI7
aI12
aI6
aI4
aI8
aI0
aI6
aI1
aI0
aI0
aI6
aI0
aI0
aI4
aI7
aI0
aI0
aI2
aI2
aI0
aI0
aI0
aI1
aI2
aI0
aI0
aI1
aI2
aI2
aI2
aI5
aI2
aI4
aI2
aI0
aI1
aI1
aI1
aI0
aI0
aI1
aI0
aI0
aI0
aI3
aI2
aI0
aI0
aI0
aI4
aI0
aI3
aI0
aI0
aI0
aI0
aI0
aI1
aI0
aI0
aI1
aI0
aI0
aI0
aI1
aI1
aI0
aI2
aI1
aI1
aI0
aI1
aI0
aI0
aI3
aI3
aI0
aI0
aI3
aI7
aI2
aI0
aI2
aI5
aI0
aI0
aI0
aI0
aI0
aI0
aI0
aI0
aI0
aI0
aI0
aI0
aI0
aI0
aI0
aI0
aI0
aI0
aI0
aI0
aI0
aI0
aI0
aI0
aI0
aI0
aI0
aI0
aI0
aI0
aI0
aI0
aI0
aI0
aI0
aI0
aI11
aI0
aI0
aI0
aI36
aI0
aI0
aI0
aI0
aI0
aI0
aI0
aI0
aI0
aI0
aI12
aI2
aI0
aI0
aI10
aI2
aI0
aI0
aI0
aI0
aI0
aI0
aI0
aI0
aI0
aI0
aI0
aI0
aI0
aI0
aI0
aI0
aI0
aI0
aI0
aI0
aI0
aI0
aI0
aI0
aI0
aI0
aI0
aI0
aI44
aI0
aI0
aI0
aI31
aI0
aI0
aI0
aI0
aI0
aI0
aI0
aI0
aI0
aI0
aI0
aI23
aI0
aI0
aI0
aI32
aI0
aI0
aI0
aI0
aI0
aI0
aI0
aI0
aI0
aI0
aI0
aI0
aI0
aI0
aI0
aI0
aI0
aI0
aI0
aI0
aI0
aI0
aI0
aI0
aI0
aI0
aI0
aI0
aI0
aI0
aI0
aI0
aI0
aI0
aI0
aI0
aI0
aI0
aI0
aI0
aI0
aI0
aI0
aI18
aI0
aI0
aI0
aI16
aI0
aI0
aI0
aI0
aI0
aI0
aI0
aI0
aI0
aI0
aI0
aI20
aI0
aI0
aI0
aI19
aI0
aI0
aI0
aI0
aI0
aI0
aI0
aI0
aI0
aI0
aI0
aI0
aI0
aI0
aI0
aI0
aI0
aI0
aI0
aI0
aI0
aI0
aI0
aa(lp47
F1.9728029440025494
aF29.996276122924908
aF1.8594147941470272
aF831.1880663343496
aF712.9191228242562
aF411.2704824171957
aF0.018608564936635954
aF0.018608564936635954
aF0.018608564936635954
aF0.018608564936635954
aF0.018608564936635954
aF0.018608564936635954
aF0.018608564936635954
aF0.018608564936635954
aF0.018608564936635954
aF0.018608564936635954
aI0
aI0
aI6
aI1
aI0
aI0
aI7
aI0
aI0
aI0
aI6
aI0
aI0
aI0
aI12
aI1
aI0
aI0
aI8
aI0
aI0
aI0
aI0
aI0
aI0
aI0
aI0
aI0
aI4
aI1
aI6
aI1
aI0
aI0
aI6
aI0
aI0
aI0
aI0
aI0
aI0
aI0
aI0
aI0
aI6
aI5
aI1
aI11
aI0
aI5
aI3
aI0
aI0
aI8
aI0
aI0
aI2
aI4
aI0
aI0
aI4
aI2
aI0
aI0
aI0
aI0
aI8
aI0
aI0
aI0
aI9
aI2
aI7
aI0
aI3
aI1
aI1
aI1
aI4
aI2
aI0
aI0
aI3
aI0
aI0
aI0
aI0
aI2
aI2
aI0
aI0
aI0
aI2
aI2
aI1
aI0
aI1
aI1
aI0
aI0
aI0
aI0
aI0
aI2
aI1
aI0
aI0
aI3
aI4
aI0
aI0
aI0
aI1
aI3
aI8
aI0
aI2
aI4
aI9
aI0
aI3
aI1
aI3
aI0
aI0
aI5
aI0
aI0
aI0
aI0
aI0
aI0
aI0
aI0
aI0
aI0
aI0
aI0
aI0
aI0
aI0
aI0
aI0
aI0
aI0
aI0
aI0
aI0
aI0
aI0
aI0
aI0
aI0
aI0
aI0
aI0
aI0
aI0
aI0
aI0
aI0
aI0
aI0
aI4
aI0
aI0
aI0
aI44
aI0
aI0
aI0
aI0
aI0
aI0
aI0
aI0
aI0
aI0
aI33
aI6
aI0
aI0
aI14
aI0
aI0
aI0
aI0
aI0
aI0
aI0
aI0
aI0
aI0
aI0
aI0
aI0
aI0
aI0
aI0
aI0
aI0
aI0
aI0
aI0
aI0
aI0
aI0
aI0
aI0
aI0
aI0
aI0
aI40
aI0
aI0
aI0
aI22
aI0
aI0
aI0
aI0
aI0
aI0
aI0
aI0
aI0
aI0
aI0
aI21
aI0
aI0
aI0
aI27
aI0
aI0
aI0
aI0
aI0
aI0
aI0
aI0
aI0
aI0
aI0
aI0
aI0
aI0
aI0
aI0
aI0
aI0
aI0
aI0
aI0
aI0
aI0
aI0
aI0
aI0
aI0
aI0
aI0
aI0
aI0
aI0
aI0
aI0
aI0
aI0
aI0
aI0
aI0
aI0
aI0
aI0
aI0
aI34
aI0
aI0
aI0
aI19
aI0
aI0
aI0
aI0
aI0
aI0
aI0
aI0
aI0
aI0
aI0
aI21
aI0
aI0
aI0
aI27
aI0
aI0
aI0
aI0
aI0
aI0
aI0
aI0
aI0
aI0
aI0
aI0
aI0
aI0
aI0
aI0
aI0
aI0
aI0
aI0
aI0
aI0
aI0
aa(lp48
F17.662593950834307
aF36.035866363960345
aF-9.840566991302817
aF1361.5521086986605
aF960.3250151194915
aF583.7651545114371
aF0.03693100269820493
aF0.03693100269820493
aF0.03693100269820493
aF0.03693100269820493
aF0.03693100269820493
aF0.03693100269820493
aF0.03693100269820493
aF0.03693100269820493
aF0.03693100269820493
aF0.03693100269820493
aI0
aI0
aI6
aI0
aI0
aI0
aI6
aI0
aI0
aI0
aI8
aI0
aI0
aI0
aI6
aI0
aI0
aI0
aI7
aI1
aI0
aI0
aI0
aI0
aI0
aI0
aI0
aI0
aI8
aI7
aI14
aI0
aI0
aI0
aI9
aI0
aI0
aI0
aI0
aI0
aI0
aI0
aI0
aI0
aI11
aI1
aI9
aI7
aI0
aI1
aI9
aI0
aI0
aI9
aI1
aI2
aI5
aI9
aI0
aI6
aI2
aI0
aI1
aI0
aI0
aI1
aI6
aI1
aI0
aI2
aI2
aI4
aI5
aI1
aI3
aI5
aI1
aI0
aI8
aI0
aI0
aI0
aI2
aI1
aI1
aI0
aI0
aI4
aI1
aI0
aI0
aI3
aI4
aI1
aI2
aI2
aI1
aI5
aI5
aI0
aI1
aI0
aI0
aI0
aI0
aI0
aI0
aI0
aI3
aI1
aI0
aI1
aI0
aI0
aI6
aI0
aI2
aI3
aI0
aI0
aI1
aI9
aI1
aI0
aI0
aI1
aI1
aI0
aI0
aI0
aI0
aI0
aI0
aI0
aI0
aI0
aI0
aI0
aI0
aI0
aI0
aI0
aI0
aI0
aI0
aI0
aI0
aI0
aI0
aI0
aI0
aI0
aI0
aI0
aI0
aI0
aI0
aI0
aI0
aI0
aI0
aI0
aI0
aI12
aI0
aI0
aI0
aI55
aI0
aI0
aI0
aI0
aI0
aI0
aI0
aI0
aI0
aI0
aI5
aI22
aI0
aI0
aI2
aI5
aI0
aI0
aI0
aI0
aI0
aI0
aI0
aI0
aI0
aI0
aI0
aI0
aI0
aI0
aI0
aI0
aI0
aI0
aI0
aI0
aI0
aI0
aI0
aI0
aI0
aI0
aI0
aI0
aI30
aI0
aI0
aI0
aI57
aI0
aI0
aI0
aI0
aI0
aI0
aI0
aI0
aI0
aI0
aI0
aI32
aI0
aI0
aI0
aI26
aI0
aI0
aI0
aI0
aI0
aI0
aI0
aI0
aI0
aI0
aI0
aI0
aI0
aI0
aI0
aI0
aI0
aI0
aI0
aI0
aI0
aI0
aI0
aI0
aI0
aI0
aI0
aI0
aI0
aI0
aI0
aI0
aI0
aI0
aI0
aI0
aI0
aI0
aI0
aI0
aI0
aI0
aI0
aI10
aI0
aI0
aI0
aI41
aI0
aI0
aI0
aI0
aI0
aI0
aI0
aI0
aI0
aI0
aI0
aI32
aI0
aI0
aI0
aI18
aI0
aI0
aI0
aI0
aI0
aI0
aI0
aI0
aI0
aI0
aI0
aI0
aI0
aI0
aI0
aI0
aI0
aI0
aI0
aI0
aI0
aI0
aI0
aa(lp49
F19.522266254506686
aF17.742329851625456
aF6.433228943842414
aF1272.7180769341574
aF1201.552326300165
aF259.8388328596793
aF0.023969073361072513
aF0.023969073361072513
aF0.023969073361072513
aF0.023969073361072513
aF0.023969073361072513
aF0.023969073361072513
aF0.023969073361072513
aF0.023969073361072513
aF0.023969073361072513
aF0.023969073361072513
aI0
aI0
aI7
aI0
aI0
aI0
aI11
aI1
aI2
aI0
aI10
aI0
aI0
aI3
aI2
aI0
aI0
aI0
aI7
aI0
aI0
aI0
aI0
aI0
aI1
aI0
aI0
aI1
aI3
aI2
aI0
aI0
aI0
aI0
aI10
aI0
aI0
aI0
aI0
aI2
aI0
aI0
aI0
aI3
aI6
aI24
aI1
aI1
aI0
aI6
aI4
aI0
aI0
aI10
aI2
aI2
aI0
aI2
aI1
aI0
aI0
aI12
aI2
aI0
aI0
aI12
aI7
aI0
aI2
aI2
aI5
aI1
aI1
aI5
aI0
aI3
aI0
aI2
aI2
aI1
aI0
aI2
aI9
aI1
aI0
aI0
aI0
aI7
aI2
aI0
aI0
aI6
aI4
aI3
aI0
aI0
aI1
aI0
aI0
aI1
aI0
aI0
aI0
aI3
aI4
aI0
aI0
aI1
aI1
aI0
aI0
aI0
aI0
aI0
aI0
aI0
aI0
aI0
aI1
aI0
aI0
aI7
aI4
aI0
aI0
aI2
aI1
aI0
aI0
aI0
aI0
aI0
aI0
aI0
aI0
aI0
aI0
aI0
aI0
aI0
aI0
aI0
aI0
aI0
aI0
aI0
aI0
aI0
aI0
aI0
aI0
aI0
aI0
aI0
aI0
aI0
aI0
aI0
aI0
aI0
aI0
aI0
aI0
aI10
aI0
aI0
aI0
aI76
aI0
aI0
aI0
aI0
aI0
aI0
aI0
aI0
aI0
aI0
aI4
aI8
aI0
aI0
aI3
aI2
aI0
aI0
aI0
aI0
aI0
aI0
aI0
aI0
aI0
aI0
aI0
aI0
aI0
aI0
aI0
aI0
aI0
aI0
aI0
aI0
aI0
aI0
aI0
aI0
aI0
aI0
aI0
aI0
aI33
aI0
aI0
aI0
aI47
aI0
aI0
aI0
aI0
aI0
aI0
aI0
aI0
aI0
aI0
aI0
aI28
aI0
aI0
aI0
aI30
aI0
aI0
aI0
aI0
aI0
aI0
aI0
aI0
aI0
aI0
aI0
aI0
aI0
aI0
aI0
aI0
aI0
aI0
aI0
aI0
aI0
aI0
aI0
aI0
aI0
aI0
aI0
aI0
aI0
aI0
aI0
aI0
aI0
aI0
aI0
aI0
aI0
aI0
aI0
aI0
aI0
aI0
aI0
aI10
aI0
aI0
aI0
aI42
aI0
aI0
aI0
aI0
aI0
aI0
aI0
aI0
aI0
aI0
aI0
aI29
aI0
aI0
aI0
aI22
aI0
aI0
aI0
aI0
aI0
aI0
aI0
aI0
aI0
aI0
aI0
aI0
aI0
aI0
aI0
aI0
aI0
aI0
aI0
aI0
aI0
aI0
aI0
aa(lp50
F-13.909148985467274
aF44.79579103025447
aF-19.76502745052003
aF1276.9216020288786
aF1102.7208777097526
aF574.5812118663669
aF0.04417097531953203
aF0.04417097531953203
aF0.04417097531953203
aF0.04417097531953203
aF0.04417097531953203
aF0.04417097531953203
aF0.04417097531953203
aF0.04417097531953203
aF0.04417097531953203
aF0.04417097531953203
aI0
aI0
aI8
aI0
aI0
aI0
aI8
aI2
aI0
aI0
aI5
aI1
aI0
aI0
aI11
aI0
aI0
aI0
aI9
aI0
aI0
aI0
aI0
aI0
aI0
aI0
aI0
aI0
aI9
aI12
aI6
aI0
aI0
aI0
aI8
aI0
aI0
aI0
aI0
aI0
aI0
aI0
aI0
aI0
aI11
aI4
aI4
aI0
aI0
aI4
aI5
aI0
aI0
aI8
aI0
aI0
aI1
aI9
aI0
aI0
aI2
aI3
aI0
aI0
aI0
aI0
aI1
aI1
aI2
aI1
aI1
aI4
aI2
aI0
aI5
aI2
aI0
aI1
aI7
aI0
aI0
aI0
aI5
aI2
aI0
aI0
aI0
aI4
aI1
aI0
aI0
aI2
aI5
aI2
aI0
aI1
aI0
aI0
aI5
aI0
aI1
aI0
aI0
aI4
aI0
aI0
aI0
aI0
aI2
aI2
aI0
aI1
aI0
aI0
aI0
aI0
aI3
aI2
aI0
aI1
aI1
aI5
aI5
aI0
aI0
aI1
aI1
aI0
aI0
aI0
aI0
aI0
aI0
aI0
aI0
aI0
aI0
aI0
aI0
aI0
aI0
aI0
aI0
aI0
aI0
aI0
aI0
aI0
aI0
aI0
aI0
aI0
aI0
aI0
aI0
aI0
aI0
aI0
aI0
aI0
aI0
aI0
aI0
aI10
aI0
aI0
aI0
aI54
aI0
aI0
aI0
aI0
aI0
aI0
aI0
aI0
aI0
aI0
aI8
aI8
aI0
aI0
aI0
aI3
aI0
aI0
aI0
aI0
aI0
aI0
aI0
aI0
aI0
aI0
aI0
aI0
aI0
aI0
aI0
aI0
aI0
aI0
aI0
aI0
aI0
aI0
aI0
aI0
aI0
aI0
aI0
aI0
aI47
aI0
aI0
aI0
aI29
aI0
aI0
aI0
aI0
aI0
aI0
aI0
aI0
aI0
aI0
aI0
aI23
aI0
aI0
aI0
aI31
aI0
aI0
aI0
aI0
aI0
aI0
aI0
aI0
aI0
aI0
aI0
aI0
aI0
aI0
aI0
aI0
aI0
aI0
aI0
aI0
aI0
aI0
aI0
aI0
aI0
aI0
aI0
aI0
aI0
aI0
aI0
aI0
aI0
aI0
aI0
aI0
aI0
aI0
aI0
aI0
aI0
aI0
aI0
aI13
aI0
aI0
aI0
aI26
aI0
aI0
aI0
aI0
aI0
aI0
aI0
aI0
aI0
aI0
aI0
aI24
aI0
aI0
aI0
aI20
aI0
aI0
aI0
aI0
aI0
aI0
aI0
aI0
aI0
aI0
aI0
aI0
aI0
aI0
aI0
aI0
aI0
aI0
aI0
aI0
aI0
aI0
aI0
aa(lp51
F7.102803535897571
aF35.83590920316176
aF-28.608049976596398
aF1132.7131829327056
aF1339.2531536014626
aF289.84900719123004
aF0.043149234277347945
aF0.043149234277347945
aF0.043149234277347945
aF0.043149234277347945
aF0.043149234277347945
aF0.043149234277347945
aF0.043149234277347945
aF0.043149234277347945
aF0.043149234277347945
aF0.043149234277347945
aI0
aI0
aI7
aI0
aI0
aI0
aI11
aI0
aI0
aI1
aI6
aI1
aI0
aI5
aI3
aI0
aI1
aI0
aI10
aI0
aI0
aI0
aI0
aI0
aI2
aI0
aI0
aI0
aI5
aI12
aI0
aI1
aI0
aI0
aI9
aI0
aI0
aI0
aI0
aI0
aI2
aI0
aI0
aI4
aI15
aI10
aI0
aI0
aI0
aI6
aI4
aI0
aI1
aI10
aI0
aI0
aI7
aI11
aI5
aI2
aI0
aI9
aI0
aI0
aI0
aI7
aI8
aI0
aI1
aI2
aI3
aI3
aI7
aI2
aI8
aI4
aI1
aI7
aI1
aI1
aI0
aI7
aI9
aI2
aI0
aI0
aI0
aI4
aI1
aI0
aI0
aI1
aI3
aI2
aI0
aI0
aI0
aI0
aI2
aI0
aI0
aI0
aI0
aI4
aI2
aI0
aI0
aI0
aI1
aI3
aI1
aI1
aI0
aI0
aI0
aI0
aI0
aI0
aI0
aI0
aI0
aI7
aI2
aI1
aI1
aI3
aI0
aI0
aI0
aI0
aI0
aI0
aI0
aI0
aI0
aI0
aI0
aI0
aI0
aI0
aI0
aI0
aI0
aI0
aI0
aI0
aI0
aI0
aI0
aI0
aI0
aI0
aI0
aI0
aI0
aI0
aI0
aI0
aI0
aI0
aI0
aI0
aI0
aI5
aI0
aI0
aI0
aI95
aI0
aI0
aI0
aI0
aI0
aI0
aI0
aI0
aI0
aI0
aI6
aI3
aI0
aI0
aI2
aI1
aI0
aI0
aI0
aI0
aI0
aI0
aI0
aI0
aI0
aI0
aI0
aI0
aI0
aI0
aI0
aI0
aI0
aI0
aI0
aI0
aI0
aI0
aI0
aI0
aI0
aI0
aI0
aI0
aI34
aI0
aI0
aI0
aI63
aI0
aI0
aI0
aI0
aI0
aI0
aI0
aI0
aI0
aI0
aI0
aI33
aI0
aI0
aI0
aI30
aI0
aI0
aI0
aI0
aI0
aI0
aI0
aI0
aI0
aI0
aI0
aI0
aI0
aI0
aI0
aI0
aI0
aI0
aI0
aI0
aI0
aI0
aI0
aI0
aI0
aI0
aI0
aI0
aI0
aI0
aI0
aI0
aI0
aI0
aI0
aI0
aI0
aI0
aI0
aI0
aI0
aI0
aI0
aI5
aI0
aI0
aI0
aI52
aI0
aI0
aI0
aI0
aI0
aI0
aI0
aI0
aI0
aI0
aI0
aI38
aI0
aI0
aI0
aI17
aI0
aI0
aI0
aI0
aI0
aI0
aI0
aI0
aI0
aI0
aI0
aI0
aI0
aI0
aI0
aI0
aI0
aI0
aI0
aI0
aI0
aI0
aI0
aa(lp52
F1.9522006567263919
aF48.014926931550846
aF-39.04536491070941
aF1138.7665208109229
aF852.7443820080163
aF478.2458472841714
aF0.05935914630474867
aF0.05935914630474867
aF0.05935914630474867
aF0.05935914630474867
aF0.05935914630474867
aF0.05935914630474867
aF0.05935914630474867
aF0.05935914630474867
aF0.05935914630474867
aF0.05935914630474867
aI0
aI0
aI6
aI1
aI0
aI0
aI11
aI0
aI0
aI0
aI7
aI0
aI0
aI4
aI1
aI0
aI0
aI0
aI9
aI1
aI0
aI0
aI0
aI0
aI3
aI0
aI0
aI0
aI7
aI12
aI1
aI0
aI0
aI0
aI8
aI0
aI0
aI0
aI0
aI0
aI0
aI0
aI0
aI0
aI13
aI14
aI3
aI2
aI0
aI3
aI6
aI0
aI1
aI10
aI0
aI0
aI8
aI3
aI0
aI1
aI1
aI0
aI1
aI0
aI2
aI3
aI5
aI2
aI1
aI2
aI6
aI1
aI2
aI1
aI3
aI3
aI1
aI1
aI2
aI2
aI0
aI7
aI3
aI1
aI0
aI0
aI0
aI4
aI2
aI0
aI0
aI4
aI2
aI2
aI1
aI2
aI1
aI2
aI7
aI0
aI0
aI0
aI0
aI2
aI2
aI0
aI0
aI0
aI2
aI3
aI0
aI0
aI0
aI5
aI3
aI0
aI1
aI5
aI4
aI0
aI4
aI7
aI8
aI0
aI0
aI1
aI0
aI0
aI0
aI0
aI0
aI0
aI0
aI0
aI0
aI0
aI0
aI0
aI0
aI0
aI0
aI0
aI0
aI0
aI0
aI0
aI0
aI0
aI0
aI0
aI0
aI0
aI0
aI0
aI0
aI0
aI0
aI0
aI0
aI0
aI0
aI0
aI0
aI1
aI0
aI0
aI0
aI68
aI0
aI0
aI0
aI0
aI0
aI0
aI0
aI0
aI0
aI0
aI11
aI8
aI0
aI0
aI27
aI7
aI0
aI0
aI0
aI0
aI0
aI0
aI0
aI0
aI0
aI0
aI0
aI0
aI0
aI0
aI0
aI0
aI0
aI0
aI0
aI0
aI0
aI0
aI0
aI0
aI0
aI0
aI0
aI0
aI35
aI0
aI0
aI0
aI45
aI0
aI0
aI0
aI0
aI0
aI0
aI0
aI0
aI0
aI0
aI0
aI29
aI0
aI0
aI0
aI28
aI0
aI0
aI0
aI0
aI0
aI0
aI0
aI0
aI0
aI0
aI0
aI0
aI0
aI0
aI0
aI0
aI0
aI0
aI0
aI0
aI0
aI0
aI0
aI0
aI0
aI0
aI0
aI0
aI0
aI0
aI0
aI0
aI0
aI0
aI0
aI0
aI0
aI0
aI0
aI0
aI0
aI0
aI0
aI31
aI0
aI0
aI0
aI35
aI0
aI0
aI0
aI0
aI0
aI0
aI0
aI0
aI0
aI0
aI0
aI31
aI0
aI0
aI0
aI25
aI0
aI0
aI0
aI0
aI0
aI0
aI0
aI0
aI0
aI0
aI0
aI0
aI0
aI0
aI0
aI0
aI0
aI0
aI0
aI0
aI0
aI0
aI0
aa(lp53
F-5.85347442347286
aF12.942134427196377
aF3.935411695481969
aF1104.55506578853
aF1368.1152733312767
aF720.0476340940071
aF0.022158790103172614
aF0.022158790103172614
aF0.022158790103172614
aF0.022158790103172614
aF0.022158790103172614
aF0.022158790103172614
aF0.022158790103172614
aF0.022158790103172614
aF0.022158790103172614
aF0.022158790103172614
aI0
aI0
aI9
aI0
aI0
aI0
aI9
aI0
aI4
aI0
aI6
aI0
aI0
aI5
aI8
aI0
aI0
aI0
aI8
aI0
aI0
aI0
aI0
aI0
aI2
aI0
aI0
aI0
aI5
aI5
aI15
aI0
aI0
aI0
aI13
aI0
aI0
aI0
aI0
aI0
aI0
aI0
aI0
aI1
aI3
aI4
aI3
aI2
aI0
aI2
aI9
aI0
aI0
aI13
aI3
aI0
aI1
aI6
aI0
aI0
aI1
aI4
aI0
aI0
aI0
aI4
aI0
aI0
aI5
aI1
aI2
aI3
aI5
aI1
aI2
aI3
aI0
aI0
aI1
aI1
aI2
aI4
aI2
aI2
aI2
aI0
aI0
aI2
aI3
aI0
aI0
aI6
aI2
aI4
aI9
aI1
aI2
aI5
aI6
aI6
aI0
aI0
aI0
aI5
aI2
aI0
aI0
aI3
aI0
aI5
aI2
aI0
aI1
aI2
aI8
aI0
aI4
aI3
aI7
aI0
aI0
aI2
aI10
aI1
aI0
aI0
aI1
aI0
aI0
aI0
aI0
aI0
aI0
aI0
aI0
aI0
aI0
aI0
aI0
aI0
aI0
aI0
aI0
aI0
aI0
aI0
aI0
aI0
aI0
aI0
aI0
aI0
aI0
aI0
aI0
aI0
aI0
aI0
aI0
aI0
aI0
aI0
aI0
aI10
aI0
aI0
aI0
aI76
aI0
aI0
aI0
aI0
aI0
aI0
aI0
aI0
aI0
aI0
aI32
aI14
aI0
aI0
aI4
aI6
aI0
aI0
aI0
aI0
aI0
aI0
aI0
aI0
aI0
aI0
aI0
aI0
aI0
aI0
aI0
aI0
aI0
aI0
aI0
aI0
aI0
aI0
aI0
aI0
aI0
aI0
aI0
aI0
aI31
aI0
aI0
aI0
aI46
aI0
aI0
aI0
aI0
aI0
aI0
aI0
aI0
aI0
aI0
aI0
aI37
aI0
aI0
aI0
aI27
aI0
aI0
aI0
aI0
aI0
aI0
aI0
aI0
aI0
aI0
aI0
aI0
aI0
aI0
aI0
aI0
aI0
aI0
aI0
aI0
aI0
aI0
aI0
aI0
aI0
aI0
aI0
aI0
aI0
aI0
aI0
aI0
aI0
aI0
aI0
aI0
aI0
aI0
aI0
aI0
aI0
aI0
aI0
aI39
aI0
aI0
aI0
aI41
aI0
aI0
aI0
aI0
aI0
aI0
aI0
aI0
aI0
aI0
aI0
aI38
aI0
aI0
aI0
aI24
aI0
aI0
aI0
aI0
aI0
aI0
aI0
aI0
aI0
aI0
aI0
aI0
aI0
aI0
aI0
aI0
aI0
aI0
aI0
aI0
aI0
aI0
aI0
aa(lp54
F-17.829632564613245
aF51.19089526439103
aF-11.863703868093312
aF943.9382123681308
aF1155.4864768957177
aF364.3233648747647
aF0.020152768752851935
aF0.020152768752851935
aF0.020152768752851935
aF0.020152768752851935
aF0.020152768752851935
aF0.020152768752851935
aF0.020152768752851935
aF0.020152768752851935
aF0.020152768752851935
aF0.020152768752851935
aI0
aI0
aI9
aI0
aI0
aI0
aI11
aI1
aI0
aI0
aI8
aI0
aI0
aI1
aI9
aI0
aI0
aI0
aI9
aI0
aI0
aI0
aI0
aI0
aI6
aI0
aI0
aI0
aI4
aI18
aI1
aI0
aI0
aI0
aI8
aI0
aI0
aI0
aI0
aI1
aI1
aI0
aI0
aI0
aI9
aI17
aI4
aI1
aI0
aI0
aI4
aI0
aI0
aI7
aI0
aI0
aI5
aI5
aI0
aI4
aI0
aI1
aI4
aI3
aI0
aI2
aI0
aI2
aI0
aI4
aI2
aI2
aI4
aI0
aI1
aI4
aI1
aI3
aI1
aI0
aI1
aI7
aI11
aI3
aI1
aI0
aI0
aI5
aI3
aI0
aI0
aI4
aI5
aI1
aI6
aI2
aI1
aI3
aI6
aI5
aI3
aI0
aI0
aI4
aI0
aI0
aI0
aI0
aI0
aI1
aI0
aI0
aI0
aI0
aI0
aI0
aI2
aI0
aI0
aI1
aI1
aI4
aI7
aI0
aI0
aI5
aI0
aI0
aI0
aI0
aI0
aI0
aI0
aI0
aI0
aI0
aI0
aI0
aI0
aI0
aI0
aI0
aI0
aI0
aI0
aI0
aI0
aI0
aI0
aI0
aI0
aI0
aI0
aI0
aI0
aI0
aI0
aI0
aI0
aI0
aI0
aI0
aI0
aI14
aI0
aI0
aI0
aI73
aI0
aI0
aI0
aI0
aI0
aI0
aI0
aI0
aI0
aI0
aI7
aI17
aI0
aI0
aI4
aI3
aI0
aI0
aI0
aI0
aI0
aI0
aI0
aI0
aI0
aI0
aI0
aI0
aI0
aI0
aI0
aI0
aI0
aI0
aI0
aI0
aI0
aI0
aI0
aI0
aI0
aI0
aI0
aI0
aI38
aI0
aI0
aI0
aI57
aI0
aI0
aI0
aI0
aI0
aI0
aI0
aI0
aI0
aI0
aI0
aI33
aI0
aI0
aI0
aI23
aI0
aI0
aI0
aI0
aI0
aI0
aI0
aI0
aI0
aI0
aI0
aI0
aI0
aI0
aI0
aI0
aI0
aI0
aI0
aI0
aI0
aI0
aI0
aI0
aI0
aI0
aI0
aI0
aI0
aI0
aI0
aI0
aI0
aI0
aI0
aI0
aI0
aI0
aI0
aI0
aI0
aI0
aI0
aI13
aI0
aI0
aI0
aI44
aI0
aI0
aI0
aI0
aI0
aI0
aI0
aI0
aI0
aI0
aI0
aI36
aI0
aI0
aI0
aI25
aI0
aI0
aI0
aI0
aI0
aI0
aI0
aI0
aI0
aI0
aI0
aI0
aI0
aI0
aI0
aI0
aI0
aI0
aI0
aI0
aI0
aI0
aI0
aa(lp55
F16.516650810566773
aF30.85456145903764
aF-7.906924514212063
aF1140.1588686606242
aF1544.7768978154086
aF277.51171091664247
aF0.03600406062696961
aF0.03600406062696961
aF0.03600406062696961
aF0.03600406062696961
aF0.03600406062696961
aF0.03600406062696961
aF0.03600406062696961
aF0.03600406062696961
aF0.03600406062696961
aF0.03600406062696961
aI0
aI0
aI10
aI0
aI0
aI0
aI10
aI0
aI0
aI1
aI6
aI0
aI0
aI9
aI0
aI0
aI0
aI0
aI8
aI0
aI0
aI0
aI0
aI0
aI2
aI0
aI0
aI0
aI3
aI20
aI1
aI0
aI0
aI0
aI8
aI0
aI0
aI0
aI0
aI4
aI2
aI0
aI0
aI4
aI15
aI13
aI8
aI2
aI0
aI6
aI11
aI0
aI1
aI9
aI0
aI0
aI7
aI4
aI0
aI1
aI0
aI0
aI0
aI0
aI0
aI2
aI5
aI0
aI3
aI1
aI0
aI5
aI6
aI1
aI1
aI3
aI0
aI7
aI6
aI0
aI1
aI12
aI10
aI2
aI3
aI0
aI0
aI6
aI1
aI0
aI0
aI1
aI3
aI5
aI7
aI0
aI0
aI6
aI10
aI1
aI2
aI0
aI0
aI7
aI0
aI0
aI0
aI1
aI3
aI2
aI0
aI0
aI0
aI0
aI5
aI0
aI1
aI4
aI9
aI3
aI0
aI11
aI4
aI0
aI0
aI1
aI0
aI0
aI0
aI0
aI0
aI0
aI0
aI0
aI0
aI0
aI0
aI0
aI0
aI0
aI0
aI0
aI0
aI0
aI0
aI0
aI0
aI0
aI0
aI0
aI0
aI0
aI0
aI0
aI0
aI0
aI0
aI0
aI0
aI0
aI0
aI0
aI0
aI13
aI0
aI0
aI0
aI113
aI0
aI0
aI0
aI0
aI0
aI0
aI0
aI0
aI0
aI0
aI18
aI15
aI0
aI0
aI0
aI2
aI0
aI0
aI0
aI0
aI0
aI0
aI0
aI0
aI0
aI0
aI0
aI0
aI0
aI0
aI0
aI0
aI0
aI0
aI0
aI0
aI0
aI0
aI0
aI0
aI0
aI0
aI0
aI0
aI34
aI0
aI0
aI0
aI63
aI0
aI0
aI0
aI0
aI0
aI0
aI0
aI0
aI0
aI0
aI0
aI38
aI0
aI0
aI0
aI30
aI0
aI0
aI0
aI0
aI0
aI0
aI0
aI0
aI0
aI0
aI0
aI0
aI0
aI0
aI0
aI0
aI0
aI0
aI0
aI0
aI0
aI0
aI0
aI0
aI0
aI0
aI0
aI0
aI0
aI0
aI0
aI0
aI0
aI0
aI0
aI0
aI0
aI0
aI0
aI0
aI0
aI0
aI0
aI42
aI0
aI0
aI0
aI50
aI0
aI0
aI0
aI0
aI0
aI0
aI0
aI0
aI0
aI0
aI0
aI36
aI0
aI0
aI0
aI33
aI0
aI0
aI0
aI0
aI0
aI0
aI0
aI0
aI0
aI0
aI0
aI0
aI0
aI0
aI0
aI0
aI0
aI0
aI0
aI0
aI0
aI0
aI0
aa(lp56
F-10.468921252479147
aF35.596113012195346
aF-37.3271399739498
aF1174.4795564487094
aF1166.3709325334487
aF362.7243825003647
aF0.007309921833857968
aF0.007309921833857968
aF0.007309921833857968
aF0.007309921833857968
aF0.007309921833857968
aF0.007309921833857968
aF0.007309921833857968
aF0.007309921833857968
aF0.007309921833857968
aF0.007309921833857968
aI0
aI0
aI10
aI0
aI0
aI0
aI9
aI0
aI0
aI0
aI7
aI0
aI0
aI3
aI5
aI0
aI0
aI0
aI9
aI0
aI0
aI0
aI0
aI0
aI3
aI0
aI0
aI0
aI7
aI26
aI4
aI1
aI0
aI0
aI10
aI0
aI0
aI0
aI0
aI0
aI0
aI0
aI0
aI0
aI13
aI0
aI4
aI2
aI0
aI4
aI4
aI0
aI0
aI11
aI0
aI0
aI5
aI7
aI0
aI0
aI2
aI0
aI0
aI0
aI0
aI0
aI2
aI0
aI0
aI5
aI0
aI3
aI6
aI1
aI2
aI7
aI2
aI0
aI2
aI2
aI2
aI6
aI3
aI4
aI4
aI0
aI0
aI6
aI1
aI0
aI0
aI3
aI5
aI1
aI0
aI1
aI0
aI11
aI5
aI0
aI0
aI0
aI0
aI4
aI0
aI0
aI0
aI1
aI2
aI2
aI0
aI1
aI0
aI0
aI13
aI0
aI0
aI0
aI9
aI1
aI0
aI5
aI12
aI1
aI0
aI1
aI2
aI0
aI0
aI0
aI0
aI0
aI0
aI0
aI0
aI0
aI0
aI0
aI0
aI0
aI0
aI0
aI0
aI0
aI0
aI0
aI0
aI0
aI0
aI0
aI0
aI0
aI0
aI0
aI0
aI0
aI0
aI0
aI0
aI0
aI0
aI0
aI0
aI18
aI0
aI0
aI0
aI76
aI0
aI0
aI0
aI0
aI0
aI0
aI0
aI0
aI0
aI0
aI16
aI15
aI0
aI0
aI2
aI11
aI0
aI0
aI0
aI0
aI0
aI0
aI0
aI0
aI0
aI0
aI0
aI0
aI0
aI0
aI0
aI0
aI0
aI0
aI0
aI0
aI0
aI0
aI0
aI0
aI0
aI0
aI0
aI0
aI40
aI0
aI0
aI0
aI45
aI0
aI0
aI0
aI0
aI0
aI0
aI0
aI0
aI0
aI0
aI0
aI30
aI0
aI0
aI0
aI31
aI0
aI0
aI0
aI0
aI0
aI0
aI0
aI0
aI0
aI0
aI0
aI0
aI0
aI0
aI0
aI0
aI0
aI0
aI0
aI0
aI0
aI0
aI0
aI0
aI0
aI0
aI0
aI0
aI0
aI0
aI0
aI0
aI0
aI0
aI0
aI0
aI0
aI0
aI0
aI0
aI0
aI0
aI0
aI40
aI0
aI0
aI0
aI36
aI0
aI0
aI0
aI0
aI0
aI0
aI0
aI0
aI0
aI0
aI0
aI30
aI0
aI0
aI0
aI32
aI0
aI0
aI0
aI0
aI0
aI0
aI0
aI0
aI0
aI0
aI0
aI0
aI0
aI0
aI0
aI0
aI0
aI0
aI0
aI0
aI0
aI0
aI0
aa(lp57
F5.252623212017301
aF19.65363269588133
aF-15.36417653843908
aF1384.392119225709
aF1256.9885936895898
aF122.1802714371551
aF0.02569335316872413
aF0.02569335316872413
aF0.02569335316872413
aF0.02569335316872413
aF0.02569335316872413
aF0.02569335316872413
aF0.02569335316872413
aF0.02569335316872413
aF0.02569335316872413
aF0.02569335316872413
aI0
aI0
aI6
aI0
aI0
aI0
aI6
aI0
aI0
aI3
aI10
aI0
aI0
aI9
aI1
aI0
aI0
aI0
aI9
aI0
aI0
aI0
aI0
aI0
aI1
aI0
aI0
aI0
aI6
aI16
aI0
aI0
aI0
aI0
aI10
aI0
aI0
aI0
aI0
aI0
aI0
aI0
aI0
aI0
aI4
aI9
aI6
aI0
aI0
aI3
aI7
aI0
aI0
aI15
aI0
aI4
aI0
aI9
aI0
aI0
aI1
aI7
aI0
aI1
aI1
aI3
aI4
aI0
aI1
aI2
aI2
aI4
aI1
aI7
aI8
aI2
aI0
aI0
aI8
aI0
aI2
aI17
aI6
aI1
aI2
aI0
aI0
aI5
aI1
aI0
aI0
aI0
aI7
aI3
aI0
aI1
aI0
aI12
aI2
aI3
aI5
aI0
aI0
aI3
aI3
aI0
aI0
aI0
aI1
aI0
aI0
aI0
aI0
aI3
aI4
aI0
aI0
aI1
aI13
aI1
aI1
aI0
aI8
aI0
aI0
aI0
aI2
aI0
aI0
aI0
aI0
aI0
aI0
aI0
aI0
aI0
aI0
aI0
aI0
aI0
aI0
aI0
aI0
aI0
aI0
aI0
aI0
aI0
aI0
aI0
aI0
aI0
aI0
aI0
aI0
aI0
aI0
aI0
aI0
aI0
aI0
aI0
aI0
aI12
aI0
aI0
aI0
aI89
aI0
aI0
aI0
aI0
aI0
aI0
aI0
aI0
aI0
aI0
aI33
aI13
aI0
aI0
aI2
aI1
aI0
aI0
aI0
aI0
aI0
aI0
aI0
aI0
aI0
aI0
aI0
aI0
aI0
aI0
aI0
aI0
aI0
aI0
aI0
aI0
aI0
aI0
aI0
aI0
aI0
aI0
aI0
aI0
aI24
aI0
aI0
aI0
aI55
aI0
aI0
aI0
aI0
aI0
aI0
aI0
aI0
aI0
aI0
aI0
aI36
aI0
aI0
aI0
aI28
aI0
aI0
aI0
aI0
aI0
aI0
aI0
aI0
aI0
aI0
aI0
aI0
aI0
aI0
aI0
aI0
aI0
aI0
aI0
aI0
aI0
aI0
aI0
aI0
aI0
aI0
aI0
aI0
aI0
aI0
aI0
aI0
aI0
aI0
aI0
aI0
aI0
aI0
aI0
aI0
aI0
aI0
aI0
aI30
aI0
aI0
aI0
aI54
aI0
aI0
aI0
aI0
aI0
aI0
aI0
aI0
aI0
aI0
aI0
aI42
aI0
aI0
aI0
aI24
aI0
aI0
aI0
aI0
aI0
aI0
aI0
aI0
aI0
aI0
aI0
aI0
aI0
aI0
aI0
aI0
aI0
aI0
aI0
aI0
aI0
aI0
aI0
aa(lp58
F-15.430890465741498
aF31.46777566012424
aF-24.353343848476044
aF805.5533247543959
aF1065.8766089146409
aF1775.6895712226267
aF0.44296631310554124
aF0.44296631310554124
aF0.44296631310554124
aF0.44296631310554124
aF0.44296631310554124
aF0.44296631310554124
aF0.44296631310554124
aF0.44296631310554124
aF0.44296631310554124
aF0.44296631310554124
aI0
aI2
aI4
aI0
aI2
aI0
aI10
aI1
aI10
aI7
aI5
aI0
aI3
aI9
aI10
aI0
aI1
aI2
aI10
aI1
aI1
aI0
aI0
aI0
aI1
aI0
aI0
aI0
aI7
aI9
aI17
aI1
aI3
aI0
aI11
aI0
aI2
aI0
aI0
aI0
aI0
aI0
aI0
aI2
aI7
aI4
aI2
aI1
aI1
aI8
aI10
aI0
aI2
aI10
aI1
aI1
aI2
aI8
aI1
aI0
aI1
aI5
aI1
aI0
aI0
aI3
aI3
aI1
aI0
aI0
aI3
aI3
aI4
aI1
aI1
aI1
aI0
aI9
aI4
aI0
aI3
aI5
aI4
aI2
aI1
aI0
aI0
aI6
aI2
aI0
aI0
aI1
aI0
aI4
aI9
aI0
aI6
aI8
aI6
aI1
aI0
aI0
aI0
aI3
aI0
aI0
aI0
aI0
aI0
aI2
aI6
aI0
aI0
aI1
aI5
aI0
aI2
aI6
aI6
aI0
aI0
aI10
aI5
aI0
aI0
aI3
aI0
aI0
aI0
aI0
aI0
aI0
aI0
aI0
aI0
aI0
aI0
aI0
aI0
aI0
aI0
aI0
aI0
aI0
aI0
aI0
aI0
aI0
aI0
aI0
aI0
aI0
aI0
aI0
aI0
aI0
aI0
aI0
aI0
aI0
aI0
aI0
aI2
aI16
aI0
aI0
aI0
aI94
aI0
aI0
aI0
aI0
aI0
aI0
aI0
aI0
aI0
aI0
aI18
aI8
aI0
aI0
aI0
aI2
aI0
aI0
aI0
aI0
aI0
aI0
aI0
aI0
aI0
aI0
aI0
aI0
aI0
aI0
aI0
aI0
aI0
aI0
aI0
aI0
aI0
aI0
aI0
aI0
aI0
aI0
aI0
aI0
aI30
aI0
aI0
aI0
aI60
aI0
aI0
aI0
aI0
aI0
aI0
aI0
aI0
aI0
aI0
aI0
aI77
aI0
aI0
aI0
aI29
aI0
aI0
aI0
aI0
aI0
aI0
aI0
aI0
aI0
aI0
aI0
aI0
aI0
aI0
aI0
aI0
aI0
aI0
aI0
aI0
aI0
aI0
aI0
aI0
aI0
aI0
aI0
aI0
aI0
aI0
aI0
aI0
aI0
aI0
aI0
aI0
aI0
aI0
aI0
aI0
aI0
aI0
aI0
aI31
aI0
aI0
aI0
aI44
aI0
aI0
aI0
aI0
aI0
aI0
aI0
aI0
aI0
aI0
aI0
aI37
aI0
aI0
aI0
aI28
aI0
aI0
aI0
aI0
aI0
aI0
aI0
aI0
aI0
aI0
aI0
aI0
aI0
aI0
aI0
aI0
aI0
aI0
aI0
aI0
aI0
aI0
aI0
aa(lp59
F1.6611944229171225
aF26.44991681423986
aF-24.327821805472546
aF1135.7423657733375
aF1275.8570017113086
aF209.40965098703214
aF0.025979739906145608
aF0.025979739906145608
aF0.025979739906145608
aF0.025979739906145608
aF0.025979739906145608
aF0.025979739906145608
aF0.025979739906145608
aF0.025979739906145608
aF0.025979739906145608
aF0.025979739906145608
aI0
aI0
aI8
aI0
aI0
aI0
aI9
aI0
aI0
aI2
aI8
aI0
aI0
aI5
aI0
aI0
aI0
aI0
aI9
aI0
aI0
aI0
aI0
aI0
aI1
aI0
aI0
aI0
aI12
aI13
aI0
aI0
aI0
aI0
aI10
aI0
aI0
aI0
aI0
aI0
aI0
aI0
aI0
aI0
aI6
aI18
aI1
aI0
aI0
aI4
aI7
aI0
aI0
aI11
aI0
aI0
aI0
aI9
aI0
aI0
aI0
aI12
aI2
aI0
aI0
aI5
aI2
aI1
aI7
aI2
aI0
aI2
aI5
aI2
aI6
aI1
aI0
aI11
aI2
aI0
aI0
aI16
aI7
aI3
aI1
aI0
aI0
aI6
aI0
aI0
aI0
aI3
aI0
aI6
aI4
aI0
aI0
aI2
aI4
aI2
aI1
aI0
aI0
aI7
aI1
aI0
aI0
aI0
aI0
aI7
aI2
aI0
aI0
aI0
aI6
aI0
aI1
aI0
aI6
aI0
aI1
aI10
aI7
aI0
aI0
aI2
aI1
aI0
aI0
aI0
aI0
aI0
aI0
aI0
aI0
aI0
aI0
aI0
aI0
aI0
aI0
aI0
aI0
aI0
aI0
aI0
aI0
aI0
aI0
aI0
aI0
aI0
aI0
aI0
aI0
aI0
aI0
aI0
aI0
aI0
aI0
aI0
aI0
aI8
aI0
aI0
aI0
aI105
aI0
aI0
aI0
aI0
aI0
aI0
aI0
aI0
aI0
aI0
aI23
aI6
aI0
aI0
aI10
aI0
aI0
aI0
aI0
aI0
aI0
aI0
aI0
aI0
aI0
aI0
aI0
aI0
aI0
aI0
aI0
aI0
aI0
aI0
aI0
aI0
aI0
aI0
aI0
aI0
aI0
aI0
aI0
aI0
aI31
aI0
aI0
aI0
aI54
aI0
aI0
aI0
aI0
aI0
aI0
aI0
aI0
aI0
aI0
aI0
aI31
aI0
aI0
aI0
aI31
aI0
aI0
aI0
aI0
aI0
aI0
aI0
aI0
aI0
aI0
aI0
aI0
aI0
aI0
aI0
aI0
aI0
aI0
aI0
aI0
aI0
aI0
aI0
aI0
aI0
aI0
aI0
aI0
aI0
aI0
aI0
aI0
aI0
aI0
aI0
aI0
aI0
aI0
aI0
aI0
aI0
aI0
aI0
aI36
aI0
aI0
aI0
aI50
aI0
aI0
aI0
aI0
aI0
aI0
aI0
aI0
aI0
aI0
aI0
aI34
aI0
aI0
aI0
aI32
aI0
aI0
aI0
aI0
aI0
aI0
aI0
aI0
aI0
aI0
aI0
aI0
aI0
aI0
aI0
aI0
aI0
aI0
aI0
aI0
aI0
aI0
aI0
aa(lp60
F-0.4199847552941303
aF29.871718396812827
aF-23.638632610539698
aF1342.7717533481289
aF1517.0668328391816
aF255.68208242313557
aF0.014570121087121203
aF0.014570121087121203
aF0.014570121087121203
aF0.014570121087121203
aF0.014570121087121203
aF0.014570121087121203
aF0.014570121087121203
aF0.014570121087121203
aF0.014570121087121203
aF0.014570121087121203
aI0
aI0
aI7
aI0
aI0
aI0
aI8
aI0
aI0
aI0
aI8
aI0
aI0
aI5
aI2
aI0
aI0
aI0
aI11
aI0
aI0
aI0
aI0
aI0
aI1
aI0
aI0
aI0
aI7
aI20
aI0
aI0
aI0
aI0
aI10
aI0
aI0
aI0
aI0
aI0
aI0
aI0
aI0
aI0
aI7
aI15
aI5
aI0
aI0
aI3
aI7
aI0
aI0
aI7
aI1
aI0
aI2
aI13
aI0
aI0
aI0
aI6
aI0
aI0
aI0
aI3
aI3
aI0
aI2
aI3
aI1
aI5
aI2
aI1
aI6
aI1
aI0
aI2
aI2
aI0
aI1
aI14
aI9
aI3
aI0
aI0
aI0
aI7
aI2
aI0
aI0
aI2
aI2
aI5
aI3
aI2
aI0
aI8
aI1
aI3
aI0
aI0
aI0
aI7
aI2
aI0
aI0
aI4
aI2
aI3
aI1
aI0
aI0
aI2
aI5
aI0
aI0
aI1
aI8
aI0
aI0
aI7
aI10
aI0
aI0
aI4
aI0
aI0
aI0
aI0
aI0
aI0
aI0
aI0
aI0
aI0
aI0
aI0
aI0
aI0
aI0
aI0
aI0
aI0
aI0
aI0
aI0
aI0
aI0
aI0
aI0
aI0
aI0
aI0
aI0
aI0
aI0
aI0
aI0
aI0
aI0
aI0
aI0
aI6
aI0
aI0
aI0
aI102
aI0
aI0
aI0
aI0
aI0
aI0
aI0
aI0
aI0
aI0
aI18
aI12
aI0
aI0
aI8
aI3
aI0
aI0
aI0
aI0
aI0
aI0
aI0
aI0
aI0
aI0
aI0
aI0
aI0
aI0
aI0
aI0
aI0
aI0
aI0
aI0
aI0
aI0
aI0
aI0
aI0
aI0
aI0
aI0
aI35
aI0
aI0
aI0
aI47
aI0
aI0
aI0
aI0
aI0
aI0
aI0
aI0
aI0
aI0
aI0
aI30
aI0
aI0
aI0
aI33
aI0
aI0
aI0
aI0
aI0
aI0
aI0
aI0
aI0
aI0
aI0
aI0
aI0
aI0
aI0
aI0
aI0
aI0
aI0
aI0
aI0
aI0
aI0
aI0
aI0
aI0
aI0
aI0
aI0
aI0
aI0
aI0
aI0
aI0
aI0
aI0
aI0
aI0
aI0
aI0
aI0
aI0
aI0
aI38
aI0
aI0
aI0
aI45
aI0
aI0
aI0
aI0
aI0
aI0
aI0
aI0
aI0
aI0
aI0
aI31
aI0
aI0
aI0
aI35
aI0
aI0
aI0
aI0
aI0
aI0
aI0
aI0
aI0
aI0
aI0
aI0
aI0
aI0
aI0
aI0
aI0
aI0
aI0
aI0
aI0
aI0
aI0
aa(lp61
F6.639695555420147
aF45.201254449023615
aF-16.530496890566706
aF949.7927708012907
aF1207.8150639565065
aF542.3961062434565
aF0.036599481468520996
aF0.036599481468520996
aF0.036599481468520996
aF0.036599481468520996
aF0.036599481468520996
aF0.036599481468520996
aF0.036599481468520996
aF0.036599481468520996
aF0.036599481468520996
aF0.036599481468520996
aI0
aI0
aI3
aI3
aI0
aI0
aI7
aI3
aI0
aI1
aI7
aI0
aI0
aI9
aI2
aI0
aI0
aI0
aI10
aI5
aI0
aI0
aI0
aI0
aI0
aI0
aI0
aI0
aI20
aI11
aI0
aI0
aI0
aI0
aI9
aI1
aI0
aI0
aI0
aI3
aI1
aI0
aI0
aI3
aI8
aI15
aI5
aI3
aI0
aI1
aI14
aI0
aI0
aI4
aI4
aI0
aI5
aI6
aI0
aI1
aI2
aI0
aI0
aI0
aI1
aI6
aI0
aI0
aI2
aI0
aI1
aI0
aI3
aI0
aI1
aI1
aI0
aI3
aI2
aI2
aI4
aI18
aI4
aI5
aI1
aI0
aI0
aI5
aI6
aI0
aI0
aI4
aI3
aI3
aI3
aI0
aI0
aI8
aI1
aI8
aI3
aI0
aI0
aI13
aI0
aI0
aI0
aI7
aI2
aI1
aI0
aI0
aI0
aI0
aI7
aI0
aI3
aI5
aI8
aI0
aI0
aI15
aI1
aI3
aI0
aI2
aI2
aI0
aI0
aI0
aI0
aI0
aI0
aI0
aI0
aI0
aI0
aI0
aI0
aI0
aI0
aI0
aI0
aI0
aI0
aI0
aI0
aI0
aI0
aI0
aI0
aI0
aI0
aI0
aI0
aI0
aI0
aI0
aI0
aI0
aI0
aI0
aI0
aI12
aI0
aI0
aI0
aI110
aI0
aI0
aI0
aI5
aI0
aI0
aI0
aI0
aI0
aI0
aI15
aI1
aI0
aI0
aI11
aI13
aI0
aI0
aI0
aI0
aI0
aI0
aI0
aI0
aI0
aI0
aI0
aI0
aI0
aI0
aI0
aI0
aI0
aI0
aI0
aI0
aI0
aI0
aI0
aI0
aI0
aI0
aI0
aI0
aI38
aI0
aI0
aI0
aI60
aI0
aI0
aI0
aI0
aI0
aI0
aI0
aI0
aI0
aI0
aI0
aI37
aI0
aI0
aI0
aI31
aI0
aI0
aI0
aI0
aI0
aI0
aI0
aI0
aI0
aI0
aI0
aI0
aI0
aI0
aI0
aI0
aI0
aI0
aI0
aI0
aI0
aI0
aI0
aI0
aI0
aI0
aI0
aI0
aI0
aI0
aI0
aI0
aI0
aI0
aI0
aI0
aI0
aI0
aI0
aI0
aI0
aI0
aI0
aI43
aI0
aI0
aI0
aI55
aI0
aI0
aI0
aI0
aI0
aI0
aI0
aI0
aI0
aI0
aI0
aI36
aI0
aI0
aI0
aI33
aI0
aI0
aI0
aI0
aI0
aI0
aI0
aI0
aI0
aI0
aI0
aI0
aI0
aI0
aI0
aI0
aI0
aI0
aI0
aI0
aI0
aI0
aI0
aa(lp62
F0.0
aF0.0
aF0.0
aI0
aI0
aI0
aI0
aI0
aI0
aI0
aI0
aI0
aI0
aI0
aI0
aI0
aI0
aI0
aI0
aI0
aI0
aI0
aI0
aI0
aI0
aI0
aI0
aI0
aI0
aI0
aI0
aI0
aI0
aI0
aI0
aI0
aI0
aI0
aI0
aI0
aI0
aI0
aI0
aI0
aI0
aI0
aI0
aI0
aI0
aI0
aI0
aI0
aI0
aI0
aI0
aI0
aI0
aI0
aI0
aI0
aI0
aI0
aI0
aI0
aI0
aI0
aI0
aI0
aI0
aI0
aI0
aI0
aI0
aI0
aI0
aI0
aI0
aI0
aI0
aI0
aI0
aI0
aI0
aI0
aI0
aI0
aI0
aI0
aI0
aI0
aI0
aI0
aI0
aI0
aI0
aI0
aI0
aI0
aI0
aI0
aI0
aI0
aI0
aI0
aI0
aI0
aI0
aI0
aI0
aI0
aI0
aI0
aI0
aI0
aI0
aI0
aI0
aI0
aI0
aI0
aI0
aI0
aI0
aI0
aI0
aI0
aI0
aI0
aI0
aI0
aI0
aI0
aI0
aI0
aI0
aI0
aI0
aI0
aI0
aI0
aI0
aI0
aI0
aI0
aI0
aI0
aI0
aI0
aI0
aI0
aI0
aI0
aI0
aI0
aI0
aI0
aI0
aI0
aI0
aI0
aI0
aI0
aI0
aI0
aI0
aI0
aI0
aI0
aI0
aI0
aI0
aI0
aI0
aI0
aI0
aI0
aI0
aI0
aI0
aI0
aI0
aI0
aI0
aI0
aI0
aI0
aI0
aI0
aI0
aI0
aI0
aI0
aI0
aI0
aI0
aI0
aI0
aI0
aI0
aI0
aI0
aI0
aI0
aI0
aI0
aI0
aI0
aI0
aI0
aI0
aI0
aI0
aI0
aI0
aI0
aI0
aI0
aI0
aI0
aI0
aI0
aI0
aI0
aI0
aI0
aI0
aI0
aI0
aI0
aI0
aI0
aI0
aI0
aI0
aI0
aI0
aI0
aI0
aI0
aI0
aI0
aI0
aI0
aI0
aI0
aI0
aI0
aI0
aI0
aI0
aI0
aI0
aI0
aI0
aI0
aI0
aI0
aI0
aI0
aI0
aI0
aI0
aI0
aI0
aI0
aI0
aI0
aI0
aI0
aI0
aI0
aI0
aI0
aI0
aI0
aI0
aI0
aI0
aI0
aI0
aI0
aI0
aI0
aI0
aI0
aI0
aI0
aI0
aI0
aI0
aI0
aI0
aI0
aI0
aI0
aI0
aI0
aI0
aI0
aI0
aI0
aI0
aI0
aI0
aI0
aI0
aI0
aI0
aI0
aI0
aI0
aI0
aI0
aI0
aI0
aI0
aI0
aI0
aI0
aI0
aI0
aI0
aI0
aI0
aI0
aI0
aI0
aI0
aI0
aI0
aI0
aI0
aI0
aI0
aI0
aI0
aa(lp63
F0.06671760874246933
aF46.93773796848139
aF-24.148109422428135
aF1205.074682530265
aF1188.910260242883
aF320.3311684030781
aF0.015171218446162815
aF0.015171218446162815
aF0.015171218446162815
aF0.015171218446162815
aF0.015171218446162815
aF0.015171218446162815
aF0.015171218446162815
aF0.015171218446162815
aF0.015171218446162815
aF0.015171218446162815
aI0
aI0
aI3
aI1
aI0
aI0
aI6
aI0
aI0
aI0
aI9
aI0
aI0
aI1
aI7
aI0
aI0
aI0
aI10
aI0
aI0
aI0
aI0
aI0
aI0
aI0
aI0
aI0
aI8
aI15
aI2
aI0
aI0
aI0
aI9
aI0
aI0
aI0
aI0
aI0
aI0
aI0
aI0
aI0
aI10
aI1
aI9
aI1
aI0
aI5
aI5
aI0
aI0
aI8
aI0
aI0
aI4
aI8
aI0
aI0
aI3
aI0
aI0
aI0
aI0
aI2
aI3
aI3
aI0
aI0
aI2
aI2
aI3
aI0
aI6
aI1
aI0
aI6
aI3
aI0
aI6
aI5
aI3
aI3
aI0
aI0
aI0
aI5
aI0
aI0
aI0
aI0
aI4
aI7
aI1
aI0
aI1
aI9
aI1
aI0
aI1
aI0
aI0
aI4
aI0
aI0
aI0
aI0
aI2
aI1
aI1
aI0
aI0
aI5
aI3
aI0
aI0
aI6
aI4
aI0
aI0
aI10
aI2
aI0
aI0
aI2
aI1
aI0
aI0
aI0
aI0
aI0
aI0
aI0
aI0
aI0
aI0
aI0
aI0
aI0
aI0
aI0
aI0
aI0
aI0
aI0
aI0
aI0
aI0
aI0
aI0
aI0
aI0
aI0
aI0
aI0
aI0
aI0
aI0
aI0
aI0
aI0
aI0
aI9
aI0
aI0
aI0
aI74
aI0
aI0
aI0
aI0
aI0
aI0
aI0
aI0
aI0
aI0
aI9
aI6
aI0
aI0
aI15
aI5
aI0
aI0
aI0
aI0
aI0
aI0
aI0
aI0
aI0
aI0
aI0
aI0
aI0
aI0
aI0
aI0
aI0
aI0
aI0
aI0
aI0
aI0
aI0
aI0
aI0
aI0
aI0
aI0
aI25
aI0
aI0
aI0
aI47
aI0
aI0
aI0
aI0
aI0
aI0
aI0
aI0
aI0
aI0
aI0
aI30
aI0
aI0
aI0
aI23
aI0
aI0
aI0
aI0
aI0
aI0
aI0
aI0
aI0
aI0
aI0
aI0
aI0
aI0
aI0
aI0
aI0
aI0
aI0
aI0
aI0
aI0
aI0
aI0
aI0
aI0
aI0
aI0
aI0
aI0
aI0
aI0
aI0
aI0
aI0
aI0
aI0
aI0
aI0
aI0
aI0
aI0
aI0
aI24
aI0
aI0
aI0
aI40
aI0
aI0
aI0
aI0
aI0
aI0
aI0
aI0
aI0
aI0
aI0
aI32
aI0
aI0
aI0
aI22
aI0
aI0
aI0
aI0
aI0
aI0
aI0
aI0
aI0
aI0
aI0
aI0
aI0
aI0
aI0
aI0
aI0
aI0
aI0
aI0
aI0
aI0
aI0
aa(lp64
F1.2907190460866234
aF49.787073176837204
aF-29.500267390110633
aF1040.1016318509455
aF1240.8971797310203
aF447.53511424155533
aF0.0375215161247312
aF0.0375215161247312
aF0.0375215161247312
aF0.0375215161247312
aF0.0375215161247312
aF0.0375215161247312
aF0.0375215161247312
aF0.0375215161247312
aF0.0375215161247312
aF0.0375215161247312
aI0
aI0
aI3
aI1
aI0
aI0
aI6
aI0
aI0
aI0
aI9
aI0
aI0
aI0
aI12
aI0
aI0
aI0
aI9
aI1
aI0
aI0
aI0
aI0
aI0
aI0
aI0
aI0
aI16
aI11
aI5
aI0
aI0
aI0
aI10
aI0
aI0
aI0
aI0
aI0
aI2
aI0
aI0
aI0
aI8
aI3
aI3
aI0
aI0
aI4
aI4
aI0
aI0
aI7
aI0
aI0
aI9
aI5
aI0
aI0
aI0
aI4
aI4
aI0
aI2
aI7
aI3
aI0
aI1
aI0
aI0
aI0
aI6
aI0
aI1
aI0
aI0
aI0
aI0
aI0
aI2
aI8
aI5
aI2
aI0
aI0
aI0
aI5
aI4
aI0
aI0
aI6
aI2
aI1
aI3
aI1
aI3
aI6
aI2
aI0
aI0
aI0
aI0
aI14
aI1
aI0
aI0
aI12
aI0
aI0
aI2
aI0
aI1
aI7
aI0
aI0
aI0
aI11
aI0
aI1
aI0
aI4
aI4
aI2
aI0
aI1
aI3
aI0
aI0
aI0
aI0
aI0
aI0
aI0
aI0
aI0
aI0
aI0
aI0
aI0
aI0
aI0
aI0
aI0
aI0
aI0
aI0
aI0
aI0
aI0
aI0
aI0
aI0
aI0
aI0
aI0
aI0
aI0
aI0
aI0
aI0
aI0
aI0
aI11
aI0
aI0
aI0
aI93
aI0
aI0
aI0
aI0
aI0
aI0
aI0
aI0
aI0
aI0
aI0
aI13
aI0
aI0
aI0
aI16
aI0
aI0
aI0
aI0
aI0
aI0
aI0
aI0
aI0
aI0
aI0
aI0
aI0
aI0
aI0
aI0
aI0
aI0
aI0
aI0
aI0
aI0
aI0
aI0
aI0
aI0
aI0
aI0
aI27
aI0
aI0
aI0
aI52
aI0
aI0
aI0
aI0
aI0
aI0
aI0
aI0
aI0
aI0
aI0
aI34
aI0
aI0
aI0
aI23
aI0
aI0
aI0
aI0
aI0
aI0
aI0
aI0
aI0
aI0
aI0
aI0
aI0
aI0
aI0
aI0
aI0
aI0
aI0
aI0
aI0
aI0
aI0
aI0
aI0
aI0
aI0
aI0
aI0
aI0
aI0
aI0
aI0
aI0
aI0
aI0
aI0
aI0
aI0
aI0
aI0
aI0
aI0
aI23
aI0
aI0
aI0
aI52
aI0
aI0
aI0
aI0
aI0
aI0
aI0
aI0
aI0
aI0
aI0
aI35
aI0
aI0
aI0
aI23
aI0
aI0
aI0
aI0
aI0
aI0
aI0
aI0
aI0
aI0
aI0
aI0
aI0
aI0
aI0
aI0
aI0
aI0
aI0
aI0
aI0
aI0
aI0
aa(lp65
F6.90731093121163
aF45.085468503905396
aF28.38923102863655
aF1694.5284759387876
aF1291.375891372775
aF550.038630110165
aF0.013469752777677934
aF0.013469752777677934
aF0.013469752777677934
aF0.013469752777677934
aF0.013469752777677934
aF0.013469752777677934
aF0.013469752777677934
aF0.013469752777677934
aF0.013469752777677934
aF0.013469752777677934
aI0
aI0
aI4
aI0
aI0
aI0
aI8
aI0
aI0
aI0
aI11
aI0
aI0
aI2
aI13
aI0
aI0
aI0
aI7
aI1
aI0
aI0
aI0
aI0
aI0
aI0
aI0
aI2
aI6
aI6
aI14
aI0
aI0
aI0
aI11
aI0
aI0
aI0
aI0
aI0
aI0
aI0
aI0
aI2
aI1
aI8
aI3
aI4
aI0
aI1
aI10
aI0
aI0
aI9
aI2
aI0
aI0
aI12
aI0
aI1
aI0
aI5
aI0
aI0
aI0
aI1
aI2
aI2
aI1
aI0
aI4
aI2
aI3
aI0
aI2
aI3
aI0
aI9
aI2
aI0
aI9
aI3
aI3
aI3
aI8
aI0
aI0
aI0
aI0
aI0
aI0
aI5
aI1
aI8
aI3
aI0
aI10
aI16
aI6
aI8
aI1
aI0
aI0
aI6
aI0
aI0
aI0
aI1
aI2
aI5
aI0
aI0
aI0
aI8
aI1
aI0
aI0
aI12
aI4
aI0
aI1
aI8
aI0
aI1
aI0
aI2
aI1
aI0
aI0
aI0
aI0
aI0
aI0
aI0
aI0
aI0
aI0
aI0
aI0
aI0
aI0
aI0
aI0
aI0
aI0
aI0
aI0
aI0
aI0
aI0
aI0
aI0
aI0
aI0
aI0
aI0
aI0
aI0
aI0
aI0
aI0
aI0
aI0
aI21
aI0
aI0
aI0
aI121
aI0
aI0
aI0
aI0
aI0
aI0
aI0
aI0
aI0
aI0
aI5
aI13
aI0
aI0
aI0
aI7
aI0
aI0
aI0
aI0
aI0
aI0
aI0
aI0
aI0
aI0
aI0
aI0
aI0
aI0
aI0
aI0
aI0
aI0
aI0
aI0
aI0
aI0
aI0
aI0
aI0
aI0
aI0
aI0
aI31
aI0
aI0
aI0
aI49
aI0
aI0
aI0
aI0
aI0
aI0
aI0
aI0
aI0
aI0
aI0
aI36
aI0
aI0
aI0
aI27
aI0
aI0
aI0
aI0
aI0
aI0
aI0
aI0
aI0
aI0
aI0
aI0
aI0
aI0
aI0
aI0
aI0
aI0
aI0
aI0
aI0
aI0
aI0
aI0
aI0
aI0
aI0
aI0
aI0
aI0
aI0
aI0
aI0
aI0
aI0
aI0
aI0
aI0
aI0
aI0
aI0
aI0
aI0
aI32
aI0
aI0
aI0
aI64
aI0
aI0
aI0
aI0
aI0
aI0
aI0
aI0
aI0
aI0
aI0
aI44
aI0
aI0
aI0
aI27
aI0
aI0
aI0
aI0
aI0
aI0
aI0
aI0
aI0
aI0
aI0
aI0
aI0
aI0
aI0
aI0
aI0
aI0
aI0
aI0
aI0
aI0
aI0
aa(lp66
F-458.0126918240462
aF9.900026636510882
aF31.8909552665103
aF9153.49817879179
aF94.39015924510107
aF1348.3250711117084
aF10.215406143863731
aF10.215406143863731
aF10.215406143863731
aF10.215406143863731
aF10.215406143863731
aF10.215406143863731
aF10.215406143863731
aF10.215406143863731
aF10.215406143863731
aF10.215406143863731
aI0
aI0
aI0
aI3
aI0
aI12
aI126
aI28
aI2
aI100
aI75
aI4
aI0
aI0
aI0
aI0
aI0
aI0
aI0
aI2
aI0
aI0
aI0
aI5
aI0
aI0
aI0
aI0
aI0
aI0
aI0
aI0
aI0
aI0
aI0
aI0
aI0
aI0
aI0
aI0
aI0
aI0
aI0
aI0
aI0
aI0
aI0
aI0
aI0
aI0
aI0
aI0
aI0
aI0
aI0
aI0
aI0
aI0
aI0
aI0
aI0
aI0
aI0
aI0
aI0
aI0
aI0
aI0
aI0
aI0
aI0
aI0
aI0
aI0
aI0
aI0
aI0
aI0
aI0
aI0
aI0
aI0
aI0
aI0
aI0
aI0
aI0
aI0
aI1
aI0
aI0
aI0
aI0
aI0
aI0
aI0
aI0
aI0
aI0
aI0
aI0
aI0
aI0
aI1
aI6
aI0
aI0
aI0
aI1
aI0
aI0
aI0
aI0
aI0
aI0
aI0
aI0
aI26
aI31
aI1
aI4
aI20
aI5
aI1
aI0
aI1
aI2
aI0
aI0
aI0
aI0
aI0
aI0
aI0
aI0
aI0
aI0
aI0
aI0
aI0
aI0
aI0
aI0
aI0
aI0
aI0
aI0
aI0
aI0
aI0
aI0
aI21
aI0
aI0
aI0
aI1
aI0
aI0
aI0
aI0
aI0
aI0
aI0
aI0
aI0
aI0
aI0
aI72
aI0
aI0
aI0
aI6
aI0
aI0
aI0
aI0
aI0
aI0
aI0
aI0
aI0
aI0
aI0
aI0
aI0
aI0
aI0
aI0
aI0
aI0
aI0
aI0
aI0
aI0
aI0
aI0
aI0
aI0
aI0
aI0
aI0
aI0
aI0
aI0
aI0
aI0
aI0
aI0
aI0
aI0
aI0
aI0
aI77
aI0
aI0
aI0
aI119
aI0
aI0
aI0
aI0
aI0
aI0
aI0
aI0
aI0
aI0
aI0
aI80
aI0
aI0
aI0
aI81
aI0
aI0
aI0
aI0
aI0
aI0
aI0
aI0
aI0
aI0
aI0
aI0
aI0
aI0
aI0
aI0
aI0
aI0
aI0
aI0
aI0
aI0
aI0
aI0
aI0
aI0
aI0
aI0
aI0
aI0
aI0
aI0
aI0
aI0
aI0
aI0
aI0
aI0
aI0
aI0
aI0
aI0
aI0
aI10
aI0
aI0
aI0
aI47
aI0
aI0
aI0
aI0
aI0
aI0
aI0
aI0
aI0
aI0
aI0
aI31
aI0
aI0
aI0
aI12
aI0
aI0
aI0
aI0
aI0
aI0
aI0
aI0
aI0
aI0
aI0
aI0
aI0
aI0
aI0
aI0
aI0
aI0
aI0
aI0
aI0
aI0
aI0
aa(lp67
F-353.2931287026542
aF65.48456406447767
aF-22.043110648382022
aF8563.353753554806
aF308.17520071185345
aF1375.3203907727398
aF150.76497833271006
aF150.76497833271006
aF150.76497833271006
aF150.76497833271006
aF150.76497833271006
aF150.76497833271006
aF150.76497833271006
aF150.76497833271006
aF150.76497833271006
aF150.76497833271006
aI0
aI0
aI0
aI0
aI0
aI8
aI104
aI28
aI20
aI141
aI52
aI4
aI5
aI6
aI0
aI0
aI0
aI0
aI0
aI4
aI0
aI0
aI0
aI4
aI0
aI0
aI0
aI1
aI1
aI0
aI0
aI0
aI0
aI0
aI1
aI1
aI0
aI0
aI0
aI0
aI0
aI0
aI0
aI0
aI0
aI0
aI0
aI0
aI0
aI0
aI0
aI0
aI0
aI0
aI0
aI0
aI0
aI0
aI0
aI0
aI0
aI0
aI0
aI0
aI0
aI0
aI0
aI0
aI0
aI0
aI0
aI0
aI0
aI0
aI0
aI0
aI0
aI0
aI2
aI0
aI0
aI0
aI0
aI0
aI0
aI0
aI0
aI0
aI1
aI0
aI0
aI0
aI0
aI1
aI1
aI0
aI0
aI0
aI0
aI0
aI5
aI0
aI0
aI1
aI3
aI0
aI0
aI0
aI0
aI1
aI0
aI0
aI0
aI0
aI0
aI0
aI2
aI26
aI27
aI1
aI4
aI21
aI0
aI0
aI0
aI1
aI1
aI0
aI0
aI0
aI0
aI0
aI0
aI0
aI0
aI0
aI0
aI0
aI0
aI0
aI0
aI0
aI0
aI0
aI0
aI0
aI0
aI0
aI0
aI0
aI0
aI19
aI0
aI0
aI0
aI0
aI0
aI0
aI0
aI0
aI0
aI0
aI0
aI9
aI0
aI0
aI0
aI65
aI0
aI0
aI0
aI0
aI0
aI0
aI0
aI0
aI0
aI0
aI0
aI0
aI0
aI0
aI0
aI2
aI0
aI0
aI0
aI3
aI0
aI0
aI0
aI0
aI0
aI0
aI0
aI0
aI0
aI0
aI0
aI0
aI0
aI0
aI0
aI0
aI0
aI0
aI0
aI0
aI0
aI0
aI0
aI0
aI7
aI0
aI0
aI0
aI187
aI0
aI0
aI0
aI0
aI0
aI0
aI0
aI0
aI0
aI0
aI0
aI141
aI0
aI0
aI0
aI45
aI0
aI0
aI0
aI0
aI0
aI0
aI0
aI0
aI0
aI0
aI0
aI0
aI0
aI0
aI0
aI0
aI0
aI0
aI0
aI0
aI0
aI0
aI0
aI0
aI0
aI0
aI0
aI0
aI0
aI0
aI0
aI0
aI0
aI0
aI0
aI0
aI0
aI0
aI0
aI0
aI0
aI0
aI0
aI12
aI0
aI0
aI0
aI43
aI0
aI0
aI0
aI0
aI0
aI0
aI0
aI0
aI0
aI0
aI0
aI24
aI0
aI0
aI0
aI19
aI0
aI0
aI0
aI0
aI0
aI0
aI0
aI0
aI0
aI0
aI0
aI0
aI0
aI0
aI0
aI0
aI0
aI0
aI0
aI0
aI0
aI0
aI0
aa(lp68
F-456.26030683635184
aF41.84765443657632
aF0.2976262031250108
aF9431.502815750866
aF233.28923240290158
aF978.5600898036816
aF19.810802562693915
aF19.810802562693915
aF19.810802562693915
aF19.810802562693915
aF19.810802562693915
aF19.810802562693915
aF19.810802562693915
aF19.810802562693915
aF19.810802562693915
aF19.810802562693915
aI0
aI0
aI0
aI1
aI0
aI15
aI110
aI29
aI12
aI106
aI20
aI0
aI1
aI14
aI0
aI0
aI0
aI0
aI0
aI1
aI0
aI0
aI0
aI11
aI0
aI0
aI0
aI0
aI1
aI0
aI0
aI0
aI0
aI0
aI0
aI0
aI0
aI0
aI0
aI0
aI0
aI0
aI0
aI0
aI0
aI0
aI0
aI0
aI0
aI0
aI0
aI0
aI0
aI0
aI0
aI0
aI0
aI0
aI0
aI0
aI0
aI0
aI0
aI0
aI0
aI0
aI0
aI0
aI0
aI0
aI0
aI0
aI0
aI0
aI0
aI0
aI0
aI0
aI0
aI0
aI0
aI0
aI0
aI0
aI0
aI0
aI0
aI0
aI0
aI0
aI0
aI0
aI0
aI0
aI0
aI0
aI0
aI0
aI0
aI0
aI1
aI0
aI0
aI2
aI0
aI0
aI0
aI0
aI1
aI1
aI0
aI0
aI0
aI0
aI0
aI0
aI1
aI7
aI23
aI1
aI10
aI29
aI4
aI1
aI0
aI3
aI0
aI0
aI0
aI0
aI0
aI0
aI0
aI0
aI0
aI0
aI0
aI0
aI0
aI0
aI0
aI0
aI0
aI0
aI0
aI0
aI0
aI5
aI0
aI0
aI0
aI11
aI0
aI0
aI0
aI0
aI0
aI0
aI0
aI0
aI0
aI0
aI0
aI18
aI0
aI0
aI0
aI40
aI0
aI0
aI0
aI0
aI0
aI0
aI0
aI0
aI0
aI0
aI0
aI0
aI0
aI0
aI0
aI9
aI0
aI0
aI0
aI1
aI0
aI0
aI0
aI0
aI0
aI0
aI0
aI0
aI0
aI0
aI0
aI0
aI0
aI0
aI0
aI0
aI0
aI0
aI0
aI0
aI0
aI0
aI0
aI0
aI86
aI0
aI0
aI0
aI86
aI0
aI0
aI0
aI0
aI0
aI0
aI0
aI0
aI0
aI0
aI0
aI78
aI0
aI0
aI0
aI71
aI0
aI0
aI0
aI0
aI0
aI0
aI0
aI0
aI0
aI0
aI0
aI0
aI0
aI0
aI0
aI0
aI0
aI0
aI0
aI0
aI0
aI0
aI0
aI0
aI0
aI0
aI0
aI0
aI0
aI0
aI0
aI0
aI0
aI0
aI0
aI0
aI0
aI0
aI0
aI0
aI0
aI0
aI0
aI21
aI0
aI0
aI0
aI26
aI0
aI0
aI0
aI0
aI0
aI0
aI0
aI0
aI0
aI0
aI0
aI9
aI0
aI0
aI0
aI28
aI0
aI0
aI0
aI0
aI0
aI0
aI0
aI0
aI0
aI0
aI0
aI0
aI0
aI0
aI0
aI0
aI0
aI0
aI0
aI0
aI0
aI0
aI0
aa(lp69
F-535.804240138415
aF58.113573396290555
aF67.53672068115429
aF8806.621785667036
aF372.6740987273375
aF1192.8634893675176
aF28.618902953339074
aF28.618902953339074
aF28.618902953339074
aF28.618902953339074
aF28.618902953339074
aF28.618902953339074
aF28.618902953339074
aF28.618902953339074
aF28.618902953339074
aF28.618902953339074
aI0
aI0
aI7
aI4
aI0
aI2
aI89
aI29
aI0
aI82
aI53
aI0
aI0
aI20
aI0
aI0
aI0
aI0
aI0
aI4
aI0
aI0
aI0
aI2
aI0
aI0
aI0
aI0
aI0
aI0
aI0
aI0
aI0
aI0
aI0
aI0
aI0
aI0
aI0
aI0
aI0
aI0
aI0
aI0
aI0
aI0
aI0
aI0
aI0
aI0
aI0
aI0
aI0
aI0
aI0
aI0
aI0
aI0
aI0
aI0
aI0
aI0
aI0
aI0
aI0
aI0
aI0
aI0
aI0
aI0
aI0
aI0
aI0
aI0
aI0
aI0
aI0
aI0
aI0
aI0
aI0
aI0
aI0
aI0
aI3
aI0
aI0
aI0
aI2
aI0
aI0
aI0
aI1
aI1
aI0
aI0
aI0
aI0
aI0
aI0
aI0
aI0
aI0
aI0
aI1
aI0
aI0
aI0
aI0
aI1
aI2
aI1
aI0
aI3
aI1
aI0
aI1
aI33
aI2
aI0
aI2
aI23
aI3
aI2
aI0
aI3
aI0
aI0
aI0
aI0
aI0
aI0
aI0
aI0
aI0
aI0
aI0
aI0
aI0
aI0
aI0
aI0
aI0
aI0
aI0
aI0
aI0
aI0
aI0
aI0
aI0
aI23
aI0
aI0
aI0
aI0
aI0
aI0
aI0
aI0
aI0
aI0
aI0
aI9
aI0
aI0
aI0
aI41
aI0
aI0
aI0
aI2
aI0
aI0
aI0
aI0
aI0
aI0
aI0
aI2
aI0
aI0
aI0
aI3
aI0
aI0
aI0
aI5
aI0
aI0
aI0
aI0
aI0
aI0
aI0
aI0
aI0
aI0
aI0
aI0
aI0
aI0
aI0
aI0
aI0
aI0
aI0
aI0
aI0
aI0
aI0
aI0
aI56
aI0
aI0
aI0
aI91
aI0
aI0
aI0
aI0
aI0
aI0
aI0
aI0
aI0
aI0
aI0
aI75
aI0
aI0
aI0
aI70
aI0
aI0
aI0
aI0
aI0
aI0
aI0
aI0
aI0
aI0
aI0
aI0
aI0
aI0
aI0
aI0
aI0
aI0
aI0
aI0
aI0
aI0
aI0
aI0
aI0
aI0
aI0
aI0
aI0
aI0
aI0
aI0
aI0
aI0
aI0
aI0
aI0
aI0
aI0
aI0
aI0
aI0
aI0
aI23
aI0
aI0
aI0
aI24
aI0
aI0
aI0
aI0
aI0
aI0
aI0
aI0
aI0
aI0
aI0
aI17
aI0
aI0
aI0
aI21
aI0
aI0
aI0
aI0
aI0
aI0
aI0
aI0
aI0
aI0
aI0
aI0
aI0
aI0
aI0
aI0
aI0
aI0
aI0
aI0
aI0
aI0
aI0
aa(lp70
F-486.0978183076675
aF55.056686164346885
aF13.93314524762782
aF7547.3740633066345
aF353.54909043911556
aF868.3484588162256
aF55.912568163388336
aF55.912568163388336
aF55.912568163388336
aF55.912568163388336
aF55.912568163388336
aF55.912568163388336
aF55.912568163388336
aF55.912568163388336
aF55.912568163388336
aF55.912568163388336
aI0
aI0
aI2
aI1
aI0
aI9
aI116
aI13
aI0
aI69
aI31
aI0
aI4
aI43
aI1
aI0
aI0
aI0
aI0
aI0
aI0
aI0
aI0
aI1
aI0
aI0
aI0
aI0
aI1
aI5
aI0
aI0
aI0
aI0
aI0
aI0
aI0
aI0
aI0
aI0
aI0
aI0
aI0
aI0
aI0
aI0
aI0
aI0
aI0
aI0
aI0
aI0
aI0
aI0
aI0
aI0
aI0
aI0
aI0
aI0
aI0
aI0
aI0
aI0
aI0
aI0
aI0
aI0
aI0
aI0
aI0
aI0
aI0
aI0
aI0
aI0
aI0
aI0
aI0
aI0
aI0
aI0
aI0
aI0
aI0
aI0
aI0
aI0
aI0
aI0
aI0
aI0
aI0
aI0
aI0
aI0
aI0
aI0
aI0
aI0
aI1
aI0
aI0
aI0
aI0
aI0
aI0
aI1
aI1
aI2
aI0
aI0
aI0
aI0
aI0
aI0
aI1
aI16
aI5
aI0
aI2
aI14
aI7
aI3
aI0
aI2
aI5
aI0
aI0
aI0
aI0
aI0
aI0
aI0
aI0
aI0
aI0
aI0
aI0
aI0
aI0
aI0
aI0
aI0
aI0
aI0
aI0
aI0
aI0
aI0
aI0
aI12
aI0
aI0
aI0
aI0
aI0
aI0
aI0
aI0
aI0
aI0
aI0
aI3
aI0
aI0
aI0
aI43
aI0
aI0
aI0
aI0
aI0
aI0
aI0
aI0
aI0
aI0
aI0
aI0
aI0
aI0
aI0
aI2
aI0
aI0
aI0
aI0
aI0
aI0
aI0
aI0
aI0
aI0
aI0
aI0
aI0
aI0
aI0
aI0
aI0
aI0
aI0
aI0
aI0
aI0
aI0
aI0
aI0
aI0
aI0
aI0
aI53
aI0
aI0
aI0
aI98
aI0
aI0
aI0
aI0
aI0
aI0
aI0
aI0
aI0
aI0
aI0
aI77
aI0
aI0
aI0
aI68
aI0
aI0
aI0
aI0
aI0
aI0
aI0
aI0
aI0
aI0
aI0
aI0
aI0
aI0
aI0
aI0
aI0
aI0
aI0
aI0
aI0
aI0
aI0
aI0
aI0
aI0
aI0
aI0
aI0
aI0
aI0
aI0
aI0
aI0
aI0
aI0
aI0
aI0
aI0
aI0
aI0
aI0
aI0
aI19
aI0
aI0
aI0
aI13
aI0
aI0
aI0
aI0
aI0
aI0
aI0
aI0
aI0
aI0
aI0
aI3
aI0
aI0
aI0
aI25
aI0
aI0
aI0
aI0
aI0
aI0
aI0
aI0
aI0
aI0
aI0
aI0
aI0
aI0
aI0
aI0
aI0
aI0
aI0
aI0
aI0
aI0
aI0
aa(lp71
F-544.4042145061683
aF60.208933981849334
aF30.981160562470315
aF8443.74463927772
aF307.9997741608626
aF873.7379413971014
aF4.161958893290645
aF4.161958893290645
aF4.161958893290645
aF4.161958893290645
aF4.161958893290645
aF4.161958893290645
aF4.161958893290645
aF4.161958893290645
aF4.161958893290645
aF4.161958893290645
aI0
aI0
aI4
aI1
aI0
aI1
aI89
aI16
aI3
aI76
aI39
aI0
aI2
aI11
aI0
aI0
aI0
aI0
aI0
aI0
aI0
aI0
aI0
aI1
aI0
aI0
aI0
aI0
aI1
aI1
aI0
aI0
aI0
aI0
aI0
aI0
aI0
aI0
aI0
aI0
aI0
aI0
aI0
aI0
aI0
aI0
aI0
aI0
aI0
aI0
aI0
aI0
aI0
aI0
aI0
aI0
aI0
aI0
aI0
aI0
aI0
aI0
aI0
aI0
aI0
aI0
aI0
aI0
aI0
aI0
aI0
aI0
aI0
aI0
aI0
aI0
aI0
aI0
aI0
aI0
aI0
aI0
aI0
aI0
aI0
aI0
aI0
aI0
aI0
aI0
aI0
aI0
aI0
aI0
aI0
aI0
aI0
aI0
aI0
aI0
aI0
aI0
aI0
aI0
aI0
aI0
aI0
aI2
aI0
aI2
aI0
aI0
aI0
aI0
aI0
aI0
aI0
aI21
aI0
aI2
aI0
aI25
aI2
aI1
aI0
aI2
aI0
aI0
aI0
aI0
aI0
aI0
aI0
aI0
aI0
aI0
aI0
aI0
aI0
aI0
aI0
aI0
aI0
aI0
aI0
aI0
aI0
aI0
aI0
aI0
aI0
aI6
aI0
aI0
aI0
aI0
aI0
aI0
aI0
aI0
aI0
aI0
aI0
aI1
aI0
aI0
aI0
aI41
aI0
aI0
aI0
aI0
aI0
aI0
aI0
aI0
aI0
aI0
aI0
aI0
aI0
aI0
aI0
aI5
aI0
aI0
aI0
aI4
aI0
aI0
aI0
aI0
aI0
aI0
aI0
aI0
aI0
aI0
aI0
aI0
aI0
aI0
aI0
aI0
aI0
aI0
aI0
aI0
aI0
aI0
aI0
aI0
aI38
aI0
aI0
aI0
aI89
aI0
aI0
aI0
aI0
aI0
aI0
aI0
aI0
aI0
aI0
aI0
aI74
aI0
aI0
aI0
aI44
aI0
aI0
aI0
aI0
aI0
aI0
aI0
aI0
aI0
aI0
aI0
aI0
aI0
aI0
aI0
aI0
aI0
aI0
aI0
aI0
aI0
aI0
aI0
aI0
aI0
aI0
aI0
aI0
aI0
aI0
aI0
aI0
aI0
aI0
aI0
aI0
aI0
aI0
aI0
aI0
aI0
aI0
aI0
aI20
aI0
aI0
aI0
aI10
aI0
aI0
aI0
aI0
aI0
aI0
aI0
aI0
aI0
aI0
aI0
aI3
aI0
aI0
aI0
aI24
aI0
aI0
aI0
aI0
aI0
aI0
aI0
aI0
aI0
aI0
aI0
aI0
aI0
aI0
aI0
aI0
aI0
aI0
aI0
aI0
aI0
aI0
aI0
aa(lp72
F-522.1872806913503
aF-13.795746163279391
aF-12.790964374070045
aF8447.554887617196
aF252.69193131716747
aF739.7507363809964
aF24.91827146138727
aF24.91827146138727
aF24.91827146138727
aF24.91827146138727
aF24.91827146138727
aF24.91827146138727
aF24.91827146138727
aF24.91827146138727
aF24.91827146138727
aF24.91827146138727
aI0
aI0
aI4
aI1
aI0
aI57
aI110
aI9
aI1
aI68
aI7
aI0
aI1
aI25
aI0
aI0
aI0
aI0
aI0
aI0
aI0
aI0
aI0
aI1
aI0
aI0
aI0
aI0
aI0
aI0
aI0
aI0
aI0
aI0
aI0
aI0
aI0
aI0
aI0
aI0
aI0
aI0
aI0
aI0
aI0
aI0
aI0
aI0
aI0
aI0
aI0
aI0
aI0
aI0
aI0
aI0
aI0
aI0
aI0
aI0
aI0
aI0
aI0
aI0
aI0
aI0
aI0
aI0
aI0
aI0
aI0
aI0
aI0
aI0
aI0
aI0
aI0
aI0
aI0
aI0
aI0
aI0
aI0
aI0
aI0
aI0
aI0
aI0
aI0
aI0
aI0
aI0
aI0
aI0
aI0
aI0
aI0
aI0
aI0
aI0
aI1
aI0
aI0
aI0
aI1
aI0
aI0
aI0
aI3
aI1
aI0
aI0
aI0
aI0
aI0
aI0
aI2
aI2
aI18
aI2
aI1
aI24
aI16
aI0
aI0
aI1
aI1
aI0
aI0
aI0
aI0
aI0
aI0
aI0
aI0
aI0
aI0
aI0
aI0
aI0
aI0
aI0
aI0
aI0
aI0
aI0
aI0
aI8
aI0
aI0
aI0
aI13
aI0
aI0
aI0
aI0
aI0
aI0
aI0
aI0
aI0
aI0
aI0
aI20
aI0
aI0
aI0
aI22
aI0
aI0
aI0
aI5
aI0
aI0
aI0
aI0
aI0
aI0
aI0
aI0
aI0
aI0
aI0
aI5
aI0
aI0
aI0
aI0
aI0
aI0
aI0
aI0
aI0
aI0
aI0
aI0
aI0
aI0
aI0
aI0
aI0
aI0
aI0
aI0
aI0
aI0
aI0
aI0
aI0
aI0
aI0
aI0
aI79
aI0
aI0
aI0
aI66
aI0
aI0
aI0
aI0
aI0
aI0
aI0
aI0
aI0
aI0
aI0
aI63
aI0
aI0
aI0
aI76
aI0
aI0
aI0
aI0
aI0
aI0
aI0
aI0
aI0
aI0
aI0
aI0
aI0
aI0
aI0
aI0
aI0
aI0
aI0
aI0
aI0
aI0
aI0
aI0
aI0
aI0
aI0
aI0
aI0
aI0
aI0
aI0
aI0
aI0
aI0
aI0
aI0
aI0
aI0
aI0
aI0
aI0
aI0
aI23
aI0
aI0
aI0
aI16
aI0
aI0
aI0
aI0
aI0
aI0
aI0
aI0
aI0
aI0
aI0
aI1
aI0
aI0
aI0
aI33
aI0
aI0
aI0
aI0
aI0
aI0
aI0
aI0
aI0
aI0
aI0
aI0
aI0
aI0
aI0
aI0
aI0
aI0
aI0
aI0
aI0
aI0
aI0
aa(lp73
F-487.0129431853493
aF65.93834365156421
aF-12.394352263247633
aF8882.135979446255
aF408.99311359506044
aF830.1953004484897
aF37.32371592740386
aF37.32371592740386
aF37.32371592740386
aF37.32371592740386
aF37.32371592740386
aF37.32371592740386
aF37.32371592740386
aF37.32371592740386
aF37.32371592740386
aF37.32371592740386
aI0
aI0
aI4
aI1
aI0
aI20
aI107
aI6
aI1
aI81
aI28
aI0
aI3
aI37
aI0
aI0
aI0
aI0
aI0
aI0
aI0
aI0
aI0
aI0
aI0
aI0
aI0
aI0
aI3
aI14
aI0
aI0
aI0
aI0
aI0
aI0
aI0
aI0
aI0
aI0
aI0
aI0
aI0
aI0
aI0
aI0
aI0
aI0
aI0
aI0
aI0
aI0
aI0
aI0
aI0
aI0
aI0
aI0
aI0
aI0
aI0
aI0
aI0
aI0
aI0
aI0
aI0
aI0
aI0
aI0
aI0
aI0
aI0
aI0
aI0
aI0
aI0
aI0
aI0
aI0
aI0
aI0
aI0
aI0
aI0
aI0
aI0
aI0
aI0
aI0
aI0
aI0
aI0
aI0
aI0
aI0
aI0
aI0
aI0
aI0
aI0
aI0
aI0
aI0
aI1
aI0
aI0
aI0
aI0
aI2
aI0
aI0
aI0
aI0
aI0
aI0
aI0
aI10
aI17
aI0
aI2
aI23
aI10
aI1
aI1
aI2
aI2
aI0
aI0
aI0
aI0
aI0
aI0
aI0
aI0
aI0
aI0
aI0
aI0
aI0
aI0
aI0
aI0
aI0
aI0
aI0
aI0
aI8
aI0
aI0
aI0
aI10
aI0
aI0
aI0
aI0
aI0
aI0
aI0
aI0
aI0
aI0
aI0
aI18
aI0
aI0
aI0
aI27
aI0
aI0
aI0
aI4
aI0
aI0
aI0
aI0
aI0
aI0
aI0
aI0
aI0
aI0
aI0
aI0
aI0
aI0
aI0
aI4
aI0
aI0
aI0
aI0
aI0
aI0
aI0
aI0
aI0
aI0
aI0
aI0
aI0
aI0
aI0
aI0
aI0
aI0
aI0
aI0
aI0
aI0
aI0
aI0
aI38
aI0
aI0
aI0
aI111
aI0
aI0
aI0
aI0
aI0
aI0
aI0
aI0
aI0
aI0
aI0
aI96
aI0
aI0
aI0
aI60
aI0
aI0
aI0
aI0
aI0
aI0
aI0
aI0
aI0
aI0
aI0
aI0
aI0
aI0
aI0
aI0
aI0
aI0
aI0
aI0
aI0
aI0
aI0
aI0
aI0
aI0
aI0
aI0
aI0
aI0
aI0
aI0
aI0
aI0
aI0
aI0
aI0
aI0
aI0
aI0
aI0
aI0
aI0
aI21
aI0
aI0
aI0
aI15
aI0
aI0
aI0
aI0
aI0
aI0
aI0
aI0
aI0
aI0
aI0
aI4
aI0
aI0
aI0
aI31
aI0
aI0
aI0
aI0
aI0
aI0
aI0
aI0
aI0
aI0
aI0
aI0
aI0
aI0
aI0
aI0
aI0
aI0
aI0
aI0
aI0
aI0
aI0
aa(lp74
F-521.6254960004578
aF17.76796732663845
aF1.9615278125471918
aF7725.203812551172
aF201.91564362618172
aF665.4284802344473
aF4.273943749618476
aF4.273943749618476
aF4.273943749618476
aF4.273943749618476
aF4.273943749618476
aF4.273943749618476
aF4.273943749618476
aF4.273943749618476
aF4.273943749618476
aF4.273943749618476
aI0
aI0
aI8
aI0
aI0
aI21
aI78
aI14
aI0
aI113
aI20
aI0
aI0
aI9
aI0
aI0
aI0
aI0
aI0
aI1
aI0
aI0
aI0
aI1
aI0
aI0
aI0
aI0
aI0
aI0
aI0
aI0
aI0
aI0
aI0
aI0
aI0
aI0
aI0
aI0
aI0
aI0
aI0
aI0
aI0
aI0
aI0
aI0
aI0
aI0
aI0
aI0
aI0
aI0
aI0
aI0
aI0
aI0
aI0
aI0
aI0
aI0
aI0
aI0
aI0
aI0
aI0
aI0
aI0
aI0
aI0
aI0
aI0
aI0
aI0
aI0
aI0
aI0
aI0
aI0
aI0
aI0
aI0
aI0
aI0
aI0
aI0
aI0
aI0
aI0
aI0
aI0
aI0
aI0
aI0
aI0
aI0
aI0
aI0
aI0
aI0
aI0
aI0
aI1
aI0
aI0
aI0
aI0
aI1
aI0
aI0
aI0
aI0
aI0
aI0
aI0
aI0
aI14
aI23
aI1
aI1
aI18
aI5
aI0
aI0
aI6
aI2
aI0
aI0
aI0
aI0
aI0
aI0
aI0
aI0
aI0
aI0
aI0
aI0
aI0
aI0
aI0
aI0
aI0
aI0
aI0
aI0
aI5
aI0
aI0
aI0
aI9
aI0
aI0
aI0
aI0
aI0
aI0
aI0
aI0
aI0
aI0
aI0
aI28
aI0
aI0
aI0
aI24
aI0
aI0
aI0
aI0
aI0
aI0
aI0
aI0
aI0
aI0
aI0
aI0
aI0
aI0
aI0
aI4
aI0
aI0
aI0
aI2
aI0
aI0
aI0
aI0
aI0
aI0
aI0
aI0
aI0
aI0
aI0
aI0
aI0
aI0
aI0
aI0
aI0
aI0
aI0
aI0
aI0
aI0
aI0
aI0
aI71
aI0
aI0
aI0
aI68
aI0
aI0
aI0
aI0
aI0
aI0
aI0
aI0
aI0
aI0
aI0
aI67
aI0
aI0
aI0
aI59
aI0
aI0
aI0
aI0
aI0
aI0
aI0
aI0
aI0
aI0
aI0
aI0
aI0
aI0
aI0
aI0
aI0
aI0
aI0
aI0
aI0
aI0
aI0
aI0
aI0
aI0
aI0
aI0
aI0
aI0
aI0
aI0
aI0
aI0
aI0
aI0
aI0
aI0
aI0
aI0
aI0
aI0
aI0
aI17
aI0
aI0
aI0
aI21
aI0
aI0
aI0
aI0
aI0
aI0
aI0
aI0
aI0
aI0
aI0
aI8
aI0
aI0
aI0
aI26
aI0
aI0
aI0
aI0
aI0
aI0
aI0
aI0
aI0
aI0
aI0
aI0
aI0
aI0
aI0
aI0
aI0
aI0
aI0
aI0
aI0
aI0
aI0
aa(lp75
F-477.3985507035646
aF75.94486183665356
aF-23.77733075496862
aF7401.344736319826
aF437.2731061733491
aF621.7921590078893
aF20.633282485033224
aF20.633282485033224
aF20.633282485033224
aF20.633282485033224
aF20.633282485033224
aF20.633282485033224
aF20.633282485033224
aF20.633282485033224
aF20.633282485033224
aF20.633282485033224
aI0
aI0
aI7
aI1
aI0
aI19
aI93
aI3
aI0
aI53
aI23
aI0
aI4
aI49
aI3
aI0
aI0
aI0
aI0
aI0
aI0
aI0
aI0
aI0
aI3
aI0
aI0
aI0
aI7
aI7
aI1
aI0
aI0
aI0
aI0
aI0
aI0
aI0
aI0
aI0
aI0
aI0
aI0
aI0
aI0
aI0
aI0
aI0
aI0
aI0
aI0
aI0
aI0
aI0
aI0
aI0
aI0
aI0
aI0
aI0
aI0
aI0
aI0
aI0
aI0
aI0
aI0
aI0
aI0
aI0
aI0
aI0
aI0
aI0
aI0
aI0
aI0
aI0
aI0
aI0
aI0
aI0
aI0
aI0
aI0
aI0
aI0
aI0
aI0
aI0
aI0
aI0
aI0
aI0
aI0
aI0
aI0
aI0
aI0
aI0
aI0
aI0
aI0
aI0
aI1
aI0
aI0
aI0
aI1
aI1
aI0
aI1
aI0
aI0
aI0
aI0
aI0
aI13
aI7
aI1
aI0
aI20
aI9
aI0
aI1
aI3
aI2
aI0
aI0
aI0
aI0
aI0
aI0
aI0
aI0
aI0
aI0
aI0
aI0
aI0
aI0
aI0
aI0
aI0
aI0
aI0
aI0
aI7
aI0
aI0
aI0
aI10
aI0
aI0
aI0
aI0
aI0
aI0
aI0
aI0
aI0
aI0
aI0
aI9
aI0
aI0
aI0
aI30
aI0
aI0
aI0
aI0
aI0
aI0
aI0
aI0
aI0
aI0
aI0
aI0
aI0
aI0
aI0
aI4
aI0
aI0
aI0
aI0
aI0
aI0
aI0
aI0
aI0
aI0
aI0
aI0
aI0
aI0
aI0
aI0
aI0
aI0
aI0
aI0
aI0
aI0
aI0
aI0
aI0
aI0
aI0
aI0
aI44
aI0
aI0
aI0
aI86
aI0
aI0
aI0
aI0
aI0
aI0
aI0
aI0
aI0
aI0
aI0
aI86
aI0
aI0
aI0
aI57
aI0
aI0
aI0
aI0
aI0
aI0
aI0
aI0
aI0
aI0
aI0
aI0
aI0
aI0
aI0
aI0
aI0
aI0
aI0
aI0
aI0
aI0
aI0
aI0
aI0
aI0
aI0
aI0
aI0
aI0
aI0
aI0
aI0
aI0
aI0
aI0
aI0
aI0
aI0
aI0
aI0
aI0
aI0
aI18
aI0
aI0
aI0
aI14
aI0
aI0
aI0
aI0
aI0
aI0
aI0
aI0
aI0
aI0
aI0
aI2
aI0
aI0
aI0
aI26
aI0
aI0
aI0
aI0
aI0
aI0
aI0
aI0
aI0
aI0
aI0
aI0
aI0
aI0
aI0
aI0
aI0
aI0
aI0
aI0
aI0
aI0
aI0
aa(lp76
F-430.2333354877128
aF47.658428051177054
aF-10.262093553667844
aF7642.873023753344
aF376.4097066894478
aF896.4365086911272
aF25.62890625
aF25.62890625
aF25.62890625
aF25.62890625
aF25.62890625
aF25.62890625
aF25.62890625
aF25.62890625
aF25.62890625
aF25.62890625
aI0
aI0
aI22
aI0
aI0
aI35
aI85
aI4
aI0
aI64
aI28
aI0
aI0
aI43
aI0
aI0
aI0
aI0
aI0
aI4
aI0
aI0
aI0
aI1
aI0
aI0
aI0
aI0
aI5
aI15
aI0
aI0
aI0
aI0
aI0
aI0
aI0
aI0
aI0
aI0
aI0
aI0
aI0
aI0
aI0
aI0
aI0
aI0
aI0
aI0
aI0
aI0
aI0
aI0
aI0
aI0
aI0
aI0
aI0
aI0
aI0
aI0
aI0
aI0
aI0
aI0
aI0
aI0
aI0
aI0
aI0
aI0
aI0
aI0
aI0
aI0
aI0
aI0
aI0
aI0
aI0
aI0
aI0
aI0
aI0
aI0
aI0
aI0
aI0
aI0
aI0
aI0
aI0
aI0
aI0
aI0
aI0
aI0
aI0
aI0
aI0
aI0
aI0
aI0
aI2
aI0
aI0
aI2
aI0
aI2
aI1
aI1
aI0
aI0
aI0
aI0
aI0
aI13
aI9
aI0
aI4
aI9
aI14
aI2
aI1
aI4
aI2
aI0
aI0
aI0
aI0
aI0
aI0
aI0
aI0
aI0
aI0
aI0
aI0
aI0
aI0
aI0
aI0
aI0
aI0
aI0
aI0
aI6
aI0
aI0
aI0
aI5
aI0
aI0
aI0
aI0
aI0
aI0
aI0
aI0
aI0
aI0
aI0
aI11
aI0
aI0
aI0
aI39
aI0
aI0
aI0
aI0
aI0
aI0
aI0
aI0
aI0
aI0
aI0
aI0
aI0
aI0
aI0
aI2
aI0
aI0
aI0
aI3
aI0
aI0
aI0
aI0
aI0
aI0
aI0
aI0
aI0
aI0
aI0
aI0
aI0
aI0
aI0
aI0
aI0
aI0
aI0
aI0
aI0
aI0
aI0
aI0
aI47
aI0
aI0
aI0
aI109
aI0
aI0
aI0
aI0
aI0
aI0
aI0
aI0
aI0
aI0
aI0
aI90
aI0
aI0
aI0
aI60
aI0
aI0
aI0
aI0
aI0
aI0
aI0
aI0
aI0
aI0
aI0
aI0
aI0
aI0
aI0
aI0
aI0
aI0
aI0
aI0
aI0
aI0
aI0
aI0
aI0
aI0
aI0
aI0
aI0
aI0
aI0
aI0
aI0
aI0
aI0
aI0
aI0
aI0
aI0
aI0
aI0
aI0
aI0
aI21
aI0
aI0
aI0
aI14
aI0
aI0
aI0
aI0
aI0
aI0
aI0
aI0
aI0
aI0
aI0
aI0
aI0
aI0
aI0
aI31
aI0
aI0
aI0
aI0
aI0
aI0
aI0
aI0
aI0
aI0
aI0
aI0
aI0
aI0
aI0
aI0
aI0
aI0
aI0
aI0
aI0
aI0
aI0
aa(lp77
F-465.5405616550101
aF102.90580329271597
aF-31.090747171148475
aF7740.381073650593
aF461.842734639166
aF934.9402202601034
aF14.952872302339115
aF14.952872302339115
aF14.952872302339115
aF14.952872302339115
aF14.952872302339115
aF14.952872302339115
aF14.952872302339115
aF14.952872302339115
aF14.952872302339115
aF14.952872302339115
aI0
aI0
aI7
aI1
aI0
aI11
aI59
aI7
aI1
aI64
aI21
aI0
aI3
aI61
aI1
aI0
aI0
aI0
aI0
aI2
aI0
aI0
aI0
aI0
aI0
aI0
aI0
aI0
aI1
aI4
aI0
aI0
aI0
aI0
aI0
aI0
aI1
aI0
aI0
aI0
aI0
aI0
aI0
aI0
aI0
aI0
aI0
aI0
aI0
aI0
aI0
aI0
aI0
aI0
aI0
aI0
aI0
aI0
aI0
aI0
aI0
aI0
aI0
aI0
aI0
aI0
aI0
aI0
aI0
aI0
aI0
aI0
aI0
aI0
aI0
aI0
aI0
aI0
aI0
aI0
aI0
aI0
aI0
aI0
aI0
aI0
aI0
aI0
aI0
aI0
aI0
aI0
aI0
aI0
aI0
aI0
aI0
aI0
aI0
aI0
aI0
aI0
aI0
aI0
aI1
aI0
aI0
aI0
aI0
aI1
aI0
aI0
aI0
aI0
aI0
aI0
aI0
aI12
aI17
aI1
aI0
aI15
aI6
aI1
aI1
aI7
aI5
aI0
aI0
aI0
aI0
aI0
aI0
aI0
aI0
aI0
aI0
aI0
aI0
aI0
aI0
aI0
aI0
aI0
aI0
aI0
aI0
aI1
aI0
aI0
aI0
aI6
aI0
aI0
aI0
aI0
aI0
aI0
aI0
aI0
aI0
aI0
aI0
aI21
aI0
aI0
aI0
aI31
aI0
aI0
aI0
aI0
aI0
aI0
aI0
aI0
aI0
aI0
aI0
aI0
aI0
aI0
aI0
aI5
aI0
aI0
aI0
aI3
aI0
aI0
aI0
aI0
aI0
aI0
aI0
aI0
aI0
aI0
aI0
aI0
aI0
aI0
aI0
aI0
aI0
aI0
aI0
aI0
aI0
aI0
aI0
aI0
aI27
aI0
aI0
aI0
aI84
aI0
aI0
aI0
aI0
aI0
aI0
aI0
aI0
aI0
aI0
aI0
aI88
aI0
aI0
aI0
aI45
aI0
aI0
aI0
aI0
aI0
aI0
aI0
aI0
aI0
aI0
aI0
aI0
aI0
aI0
aI0
aI0
aI0
aI0
aI0
aI0
aI0
aI0
aI0
aI0
aI0
aI0
aI0
aI0
aI0
aI0
aI0
aI0
aI0
aI0
aI0
aI0
aI0
aI0
aI0
aI0
aI0
aI0
aI0
aI20
aI0
aI0
aI0
aI15
aI0
aI0
aI0
aI0
aI0
aI0
aI0
aI0
aI0
aI0
aI0
aI4
aI0
aI0
aI0
aI28
aI0
aI0
aI0
aI0
aI0
aI0
aI0
aI0
aI0
aI0
aI0
aI0
aI0
aI0
aI0
aI0
aI0
aI0
aI0
aI0
aI0
aI0
aI0
aa(lp78
F-452.382540065313
aF-25.500619814099835
aF-38.091785342978014
aF7745.648562263612
aF397.1455757890598
aF797.5901572369219
aF63.78363781041431
aF63.78363781041431
aF63.78363781041431
aF63.78363781041431
aF63.78363781041431
aF63.78363781041431
aF63.78363781041431
aF63.78363781041431
aF63.78363781041431
aF63.78363781041431
aI0
aI2
aI29
aI1
aI0
aI69
aI81
aI2
aI3
aI70
aI2
aI0
aI3
aI40
aI0
aI0
aI0
aI0
aI1
aI1
aI0
aI0
aI0
aI1
aI0
aI0
aI0
aI0
aI1
aI5
aI0
aI0
aI0
aI0
aI0
aI0
aI0
aI0
aI0
aI0
aI0
aI0
aI0
aI0
aI0
aI0
aI0
aI0
aI0
aI0
aI0
aI0
aI0
aI0
aI0
aI0
aI0
aI0
aI0
aI0
aI0
aI0
aI0
aI0
aI0
aI0
aI0
aI0
aI0
aI0
aI0
aI0
aI0
aI0
aI0
aI0
aI0
aI0
aI0
aI0
aI0
aI0
aI0
aI0
aI0
aI0
aI0
aI0
aI0
aI0
aI0
aI0
aI0
aI0
aI0
aI0
aI0
aI0
aI0
aI0
aI0
aI0
aI0
aI1
aI0
aI0
aI0
aI0
aI0
aI2
aI1
aI0
aI0
aI0
aI0
aI0
aI0
aI7
aI13
aI0
aI2
aI8
aI24
aI2
aI0
aI8
aI3
aI0
aI0
aI0
aI0
aI0
aI0
aI0
aI0
aI0
aI0
aI0
aI0
aI0
aI0
aI0
aI0
aI0
aI0
aI0
aI0
aI7
aI0
aI0
aI0
aI4
aI0
aI0
aI0
aI0
aI0
aI0
aI0
aI0
aI0
aI0
aI0
aI29
aI0
aI0
aI0
aI24
aI0
aI0
aI0
aI6
aI0
aI0
aI0
aI0
aI0
aI0
aI0
aI0
aI0
aI0
aI0
aI1
aI0
aI0
aI0
aI0
aI0
aI0
aI0
aI0
aI0
aI0
aI0
aI0
aI0
aI0
aI0
aI0
aI0
aI0
aI0
aI0
aI0
aI0
aI0
aI0
aI0
aI0
aI0
aI0
aI99
aI0
aI0
aI0
aI61
aI0
aI0
aI0
aI0
aI0
aI0
aI0
aI0
aI0
aI0
aI0
aI48
aI0
aI0
aI0
aI103
aI0
aI0
aI0
aI0
aI0
aI0
aI0
aI0
aI0
aI0
aI0
aI0
aI0
aI0
aI0
aI0
aI0
aI0
aI0
aI0
aI0
aI0
aI0
aI0
aI0
aI0
aI0
aI0
aI0
aI0
aI0
aI0
aI0
aI0
aI0
aI0
aI0
aI0
aI0
aI0
aI0
aI0
aI0
aI23
aI0
aI0
aI0
aI14
aI0
aI0
aI0
aI0
aI0
aI0
aI0
aI0
aI0
aI0
aI0
aI0
aI0
aI0
aI0
aI34
aI0
aI0
aI0
aI0
aI0
aI0
aI0
aI0
aI0
aI0
aI0
aI0
aI0
aI0
aI0
aI0
aI0
aI0
aI0
aI0
aI0
aI0
aI0
aa(lp79
F-448.903478050422
aF-50.113874828560775
aF-31.918159295905756
aF7537.449615749094
aF484.368212668153
aF675.6540569876332
aF121.90487541527075
aF121.90487541527075
aF121.90487541527075
aF121.90487541527075
aF121.90487541527075
aF121.90487541527075
aF121.90487541527075
aF121.90487541527075
aF121.90487541527075
aF121.90487541527075
aI0
aI10
aI73
aI4
aI0
aI68
aI31
aI2
aI1
aI112
aI2
aI0
aI2
aI10
aI0
aI0
aI0
aI0
aI0
aI1
aI0
aI0
aI0
aI2
aI0
aI0
aI0
aI0
aI0
aI0
aI0
aI0
aI0
aI0
aI0
aI0
aI0
aI0
aI0
aI1
aI0
aI0
aI0
aI0
aI0
aI0
aI0
aI0
aI0
aI0
aI0
aI0
aI0
aI0
aI0
aI0
aI0
aI0
aI0
aI0
aI0
aI0
aI0
aI0
aI0
aI0
aI0
aI0
aI0
aI0
aI0
aI0
aI0
aI0
aI0
aI0
aI0
aI0
aI0
aI0
aI0
aI0
aI0
aI0
aI0
aI0
aI0
aI0
aI0
aI0
aI0
aI0
aI0
aI0
aI0
aI0
aI0
aI0
aI0
aI0
aI0
aI0
aI0
aI1
aI0
aI0
aI0
aI0
aI1
aI3
aI0
aI1
aI0
aI0
aI0
aI0
aI0
aI8
aI19
aI0
aI0
aI2
aI25
aI2
aI0
aI8
aI6
aI0
aI0
aI0
aI0
aI0
aI0
aI0
aI0
aI0
aI0
aI0
aI0
aI0
aI0
aI0
aI0
aI0
aI0
aI0
aI0
aI0
aI0
aI0
aI0
aI7
aI0
aI0
aI0
aI0
aI0
aI0
aI0
aI0
aI0
aI0
aI0
aI29
aI0
aI0
aI0
aI36
aI0
aI0
aI0
aI4
aI0
aI0
aI0
aI0
aI0
aI0
aI0
aI0
aI0
aI0
aI0
aI0
aI0
aI0
aI0
aI0
aI0
aI0
aI0
aI0
aI0
aI0
aI0
aI0
aI0
aI0
aI0
aI0
aI0
aI0
aI0
aI0
aI0
aI0
aI0
aI0
aI0
aI0
aI0
aI0
aI97
aI0
aI0
aI0
aI71
aI0
aI0
aI0
aI0
aI0
aI0
aI0
aI0
aI0
aI0
aI0
aI42
aI0
aI0
aI0
aI109
aI0
aI0
aI0
aI0
aI0
aI0
aI0
aI0
aI0
aI0
aI0
aI0
aI0
aI0
aI0
aI0
aI0
aI0
aI0
aI0
aI0
aI0
aI0
aI0
aI0
aI0
aI0
aI0
aI0
aI0
aI0
aI0
aI0
aI0
aI0
aI0
aI0
aI0
aI0
aI0
aI0
aI0
aI0
aI26
aI0
aI0
aI0
aI14
aI0
aI0
aI0
aI0
aI0
aI0
aI0
aI0
aI0
aI0
aI0
aI1
aI0
aI0
aI0
aI35
aI0
aI0
aI0
aI0
aI0
aI0
aI0
aI0
aI0
aI0
aI0
aI0
aI0
aI0
aI0
aI0
aI0
aI0
aI0
aI0
aI0
aI0
aI0
aa(lp80
F-518.5490199696486
aF24.16382300492161
aF5.3953039692195395
aF9200.426235433179
aF391.54069805817517
aF674.7991028239746
aF16.026648214883476
aF16.026648214883476
aF16.026648214883476
aF16.026648214883476
aF16.026648214883476
aF16.026648214883476
aF16.026648214883476
aF16.026648214883476
aF16.026648214883476
aF16.026648214883476
aI0
aI0
aI9
aI2
aI0
aI30
aI92
aI10
aI0
aI69
aI8
aI0
aI1
aI46
aI0
aI0
aI0
aI0
aI0
aI3
aI0
aI0
aI0
aI3
aI0
aI0
aI0
aI0
aI0
aI0
aI0
aI0
aI0
aI0
aI0
aI0
aI0
aI0
aI0
aI0
aI0
aI0
aI0
aI0
aI0
aI0
aI0
aI0
aI0
aI0
aI0
aI0
aI0
aI0
aI0
aI0
aI0
aI0
aI0
aI0
aI0
aI0
aI0
aI0
aI0
aI0
aI0
aI0
aI0
aI0
aI0
aI0
aI0
aI0
aI0
aI0
aI0
aI0
aI0
aI0
aI0
aI0
aI0
aI0
aI0
aI0
aI0
aI0
aI0
aI0
aI0
aI0
aI0
aI1
aI0
aI0
aI0
aI0
aI0
aI0
aI0
aI0
aI0
aI0
aI1
aI0
aI0
aI0
aI1
aI2
aI0
aI1
aI0
aI9
aI0
aI0
aI0
aI7
aI12
aI2
aI0
aI22
aI9
aI1
aI0
aI3
aI1
aI0
aI0
aI0
aI0
aI0
aI0
aI0
aI0
aI0
aI0
aI0
aI0
aI0
aI0
aI0
aI0
aI0
aI0
aI0
aI0
aI0
aI0
aI0
aI0
aI11
aI0
aI0
aI0
aI0
aI0
aI0
aI0
aI0
aI0
aI0
aI0
aI21
aI0
aI0
aI0
aI35
aI0
aI0
aI0
aI4
aI0
aI0
aI0
aI0
aI0
aI0
aI0
aI0
aI0
aI0
aI0
aI1
aI0
aI0
aI0
aI0
aI0
aI0
aI0
aI0
aI0
aI0
aI0
aI0
aI0
aI0
aI0
aI0
aI0
aI0
aI0
aI0
aI0
aI0
aI0
aI0
aI0
aI0
aI0
aI0
aI85
aI0
aI0
aI0
aI58
aI0
aI0
aI0
aI0
aI0
aI0
aI0
aI0
aI0
aI0
aI0
aI51
aI0
aI0
aI0
aI79
aI0
aI0
aI0
aI0
aI0
aI0
aI0
aI0
aI0
aI0
aI0
aI0
aI0
aI0
aI0
aI0
aI0
aI0
aI0
aI0
aI0
aI0
aI0
aI0
aI0
aI0
aI0
aI0
aI0
aI0
aI0
aI0
aI0
aI0
aI0
aI0
aI0
aI0
aI0
aI0
aI0
aI0
aI0
aI21
aI0
aI0
aI0
aI17
aI0
aI0
aI0
aI0
aI0
aI0
aI0
aI0
aI0
aI0
aI0
aI7
aI0
aI0
aI0
aI27
aI0
aI0
aI0
aI0
aI0
aI0
aI0
aI0
aI0
aI0
aI0
aI0
aI0
aI0
aI0
aI0
aI0
aI0
aI0
aI0
aI0
aI0
aI0
aa(lp81
F-439.63937768558935
aF112.58552722166975
aF-22.251145794548684
aF7489.042481096674
aF542.5454385251589
aF863.5334250074741
aF23.43743335204048
aF23.43743335204048
aF23.43743335204048
aF23.43743335204048
aF23.43743335204048
aF23.43743335204048
aF23.43743335204048
aF23.43743335204048
aF23.43743335204048
aF23.43743335204048
aI0
aI0
aI1
aI4
aI0
aI37
aI61
aI6
aI0
aI58
aI29
aI0
aI0
aI42
aI2
aI0
aI0
aI0
aI0
aI4
aI0
aI0
aI0
aI0
aI0
aI0
aI0
aI0
aI4
aI18
aI0
aI0
aI0
aI0
aI0
aI0
aI0
aI0
aI0
aI0
aI0
aI0
aI0
aI0
aI0
aI0
aI0
aI0
aI0
aI0
aI0
aI0
aI1
aI0
aI0
aI0
aI0
aI0
aI0
aI0
aI0
aI0
aI0
aI0
aI0
aI0
aI0
aI0
aI0
aI0
aI0
aI0
aI0
aI0
aI0
aI0
aI0
aI0
aI0
aI0
aI0
aI0
aI0
aI0
aI0
aI0
aI0
aI0
aI0
aI0
aI0
aI0
aI0
aI0
aI2
aI0
aI0
aI0
aI0
aI0
aI0
aI0
aI0
aI1
aI0
aI0
aI0
aI0
aI0
aI1
aI1
aI0
aI0
aI8
aI0
aI0
aI0
aI15
aI8
aI0
aI3
aI18
aI7
aI2
aI0
aI3
aI1
aI0
aI0
aI0
aI0
aI0
aI0
aI0
aI0
aI0
aI0
aI0
aI0
aI0
aI0
aI0
aI0
aI0
aI0
aI0
aI0
aI12
aI0
aI0
aI0
aI4
aI0
aI0
aI0
aI0
aI0
aI0
aI0
aI0
aI0
aI0
aI0
aI25
aI0
aI0
aI0
aI25
aI0
aI0
aI0
aI0
aI0
aI0
aI0
aI0
aI0
aI0
aI0
aI1
aI0
aI0
aI0
aI3
aI0
aI0
aI0
aI0
aI0
aI0
aI0
aI0
aI0
aI0
aI0
aI0
aI0
aI0
aI0
aI0
aI0
aI0
aI0
aI0
aI0
aI0
aI0
aI0
aI0
aI0
aI0
aI0
aI42
aI0
aI0
aI0
aI87
aI0
aI0
aI0
aI0
aI0
aI0
aI0
aI0
aI0
aI0
aI0
aI86
aI0
aI0
aI0
aI52
aI0
aI0
aI0
aI0
aI0
aI0
aI0
aI0
aI0
aI0
aI0
aI0
aI0
aI0
aI0
aI0
aI0
aI0
aI0
aI0
aI0
aI0
aI0
aI0
aI0
aI0
aI0
aI0
aI0
aI0
aI0
aI0
aI0
aI0
aI0
aI0
aI0
aI0
aI0
aI0
aI0
aI0
aI0
aI16
aI0
aI0
aI0
aI22
aI0
aI0
aI0
aI0
aI0
aI0
aI0
aI0
aI0
aI0
aI0
aI8
aI0
aI0
aI0
aI24
aI0
aI0
aI0
aI0
aI0
aI0
aI0
aI0
aI0
aI0
aI0
aI0
aI0
aI0
aI0
aI0
aI0
aI0
aI0
aI0
aI0
aI0
aI0
aa(lp82
F-447.08067488084123
aF57.005449193084814
aF-15.300742963992214
aF7292.088809564214
aF435.0939180428459
aF746.3752155728956
aF26.357211250054853
aF26.357211250054853
aF26.357211250054853
aF26.357211250054853
aF26.357211250054853
aF26.357211250054853
aF26.357211250054853
aF26.357211250054853
aF26.357211250054853
aF26.357211250054853
aI0
aI0
aI15
aI1
aI0
aI21
aI90
aI14
aI0
aI75
aI10
aI0
aI4
aI48
aI0
aI0
aI0
aI0
aI0
aI0
aI0
aI0
aI0
aI0
aI0
aI0
aI0
aI0
aI3
aI5
aI0
aI0
aI0
aI0
aI0
aI0
aI0
aI0
aI0
aI0
aI0
aI0
aI0
aI0
aI0
aI0
aI0
aI0
aI0
aI0
aI0
aI0
aI0
aI0
aI0
aI0
aI0
aI0
aI0
aI0
aI0
aI0
aI0
aI0
aI0
aI0
aI0
aI0
aI0
aI0
aI0
aI0
aI0
aI0
aI0
aI0
aI0
aI0
aI0
aI0
aI0
aI0
aI0
aI0
aI0
aI0
aI0
aI0
aI0
aI0
aI0
aI0
aI0
aI0
aI0
aI0
aI0
aI0
aI0
aI0
aI0
aI0
aI0
aI1
aI0
aI0
aI0
aI0
aI1
aI1
aI0
aI0
aI0
aI0
aI0
aI0
aI0
aI15
aI13
aI2
aI1
aI16
aI9
aI0
aI0
aI7
aI2
aI0
aI0
aI0
aI0
aI0
aI0
aI0
aI0
aI0
aI0
aI0
aI0
aI0
aI0
aI0
aI0
aI0
aI0
aI0
aI0
aI10
aI0
aI0
aI0
aI4
aI0
aI0
aI0
aI0
aI0
aI0
aI0
aI0
aI0
aI0
aI0
aI23
aI0
aI0
aI0
aI29
aI0
aI0
aI0
aI2
aI0
aI0
aI0
aI0
aI0
aI0
aI0
aI0
aI0
aI0
aI0
aI0
aI0
aI0
aI0
aI0
aI0
aI0
aI0
aI0
aI0
aI0
aI0
aI0
aI0
aI0
aI0
aI0
aI0
aI0
aI0
aI0
aI0
aI0
aI0
aI0
aI0
aI0
aI0
aI0
aI70
aI0
aI0
aI0
aI78
aI0
aI0
aI0
aI0
aI0
aI0
aI0
aI0
aI0
aI0
aI0
aI71
aI0
aI0
aI0
aI67
aI0
aI0
aI0
aI0
aI0
aI0
aI0
aI0
aI0
aI0
aI0
aI0
aI0
aI0
aI0
aI0
aI0
aI0
aI0
aI0
aI0
aI0
aI0
aI0
aI0
aI0
aI0
aI0
aI0
aI0
aI0
aI0
aI0
aI0
aI0
aI0
aI0
aI0
aI0
aI0
aI0
aI0
aI0
aI19
aI0
aI0
aI0
aI16
aI0
aI0
aI0
aI0
aI0
aI0
aI0
aI0
aI0
aI0
aI0
aI4
aI0
aI0
aI0
aI29
aI0
aI0
aI0
aI0
aI0
aI0
aI0
aI0
aI0
aI0
aI0
aI0
aI0
aI0
aI0
aI0
aI0
aI0
aI0
aI0
aI0
aI0
aI0
aa(lp83
F-518.890253124603
aF69.02180090753144
aF-6.822776048083799
aF8401.954333011767
aF555.7076498473591
aF1198.0838100883352
aF16.1431927543085
aF16.1431927543085
aF16.1431927543085
aF16.1431927543085
aF16.1431927543085
aF16.1431927543085
aF16.1431927543085
aF16.1431927543085
aF16.1431927543085
aF16.1431927543085
aI0
aI0
aI20
aI3
aI0
aI16
aI82
aI4
aI0
aI44
aI23
aI0
aI0
aI53
aI0
aI0
aI0
aI1
aI0
aI0
aI0
aI0
aI0
aI0
aI0
aI0
aI0
aI0
aI1
aI22
aI0
aI0
aI0
aI0
aI0
aI0
aI0
aI0
aI0
aI0
aI0
aI0
aI0
aI0
aI0
aI0
aI0
aI0
aI0
aI0
aI0
aI0
aI0
aI0
aI0
aI0
aI0
aI0
aI0
aI0
aI0
aI0
aI0
aI0
aI0
aI0
aI0
aI0
aI0
aI0
aI0
aI0
aI0
aI0
aI0
aI0
aI0
aI0
aI0
aI0
aI0
aI0
aI0
aI0
aI0
aI0
aI0
aI0
aI0
aI0
aI0
aI0
aI0
aI0
aI0
aI0
aI0
aI0
aI0
aI0
aI0
aI0
aI0
aI0
aI1
aI0
aI0
aI0
aI0
aI1
aI2
aI0
aI0
aI3
aI0
aI0
aI0
aI13
aI8
aI0
aI0
aI13
aI10
aI3
aI0
aI4
aI1
aI0
aI0
aI0
aI0
aI0
aI0
aI0
aI0
aI0
aI0
aI0
aI0
aI0
aI0
aI0
aI0
aI0
aI0
aI0
aI0
aI0
aI0
aI0
aI0
aI9
aI0
aI0
aI0
aI0
aI0
aI0
aI0
aI0
aI0
aI0
aI0
aI15
aI0
aI0
aI0
aI27
aI0
aI0
aI0
aI0
aI0
aI0
aI0
aI0
aI0
aI0
aI0
aI0
aI0
aI0
aI0
aI7
aI0
aI0
aI0
aI1
aI0
aI0
aI0
aI0
aI0
aI0
aI0
aI0
aI0
aI0
aI0
aI0
aI0
aI0
aI0
aI0
aI0
aI0
aI0
aI0
aI0
aI0
aI0
aI0
aI43
aI0
aI0
aI0
aI91
aI0
aI0
aI0
aI0
aI0
aI0
aI0
aI0
aI0
aI0
aI0
aI74
aI0
aI0
aI0
aI61
aI0
aI0
aI0
aI0
aI0
aI0
aI0
aI0
aI0
aI0
aI0
aI0
aI0
aI0
aI0
aI0
aI0
aI0
aI0
aI0
aI0
aI0
aI0
aI0
aI0
aI0
aI0
aI0
aI0
aI0
aI0
aI0
aI0
aI0
aI0
aI0
aI0
aI0
aI0
aI0
aI0
aI0
aI0
aI19
aI0
aI0
aI0
aI12
aI0
aI0
aI0
aI0
aI0
aI0
aI0
aI0
aI0
aI0
aI0
aI3
aI0
aI0
aI0
aI25
aI0
aI0
aI0
aI0
aI0
aI0
aI0
aI0
aI0
aI0
aI0
aI0
aI0
aI0
aI0
aI0
aI0
aI0
aI0
aI0
aI0
aI0
aI0
aa(lp84
F-448.29489089698825
aF21.004652496762926
aF19.969748719570596
aF9868.176940112426
aF760.5880576131709
aF321.2744620527881
aF16.88177840729632
aF16.88177840729632
aF16.88177840729632
aF16.88177840729632
aF16.88177840729632
aF16.88177840729632
aF16.88177840729632
aF16.88177840729632
aF16.88177840729632
aF16.88177840729632
aI0
aI0
aI44
aI19
aI0
aI14
aI49
aI10
aI0
aI52
aI6
aI0
aI0
aI43
aI0
aI0
aI0
aI0
aI0
aI1
aI0
aI0
aI0
aI1
aI0
aI0
aI0
aI0
aI2
aI11
aI0
aI0
aI0
aI0
aI0
aI0
aI0
aI0
aI0
aI0
aI0
aI0
aI0
aI0
aI0
aI0
aI0
aI0
aI0
aI0
aI0
aI0
aI0
aI0
aI0
aI0
aI0
aI0
aI0
aI0
aI0
aI0
aI0
aI0
aI0
aI0
aI0
aI0
aI0
aI0
aI0
aI0
aI0
aI0
aI0
aI0
aI0
aI0
aI0
aI0
aI0
aI0
aI0
aI0
aI0
aI0
aI0
aI0
aI0
aI0
aI0
aI0
aI0
aI0
aI0
aI0
aI0
aI0
aI0
aI0
aI0
aI0
aI0
aI1
aI0
aI0
aI0
aI1
aI0
aI0
aI0
aI1
aI0
aI0
aI0
aI0
aI0
aI9
aI11
aI0
aI2
aI26
aI10
aI0
aI0
aI3
aI4
aI0
aI0
aI0
aI0
aI0
aI0
aI0
aI0
aI0
aI0
aI0
aI0
aI0
aI0
aI0
aI0
aI0
aI0
aI0
aI0
aI0
aI0
aI0
aI0
aI13
aI0
aI0
aI0
aI0
aI0
aI0
aI0
aI0
aI0
aI0
aI0
aI0
aI0
aI0
aI0
aI43
aI0
aI0
aI0
aI6
aI0
aI0
aI0
aI0
aI0
aI0
aI0
aI0
aI0
aI0
aI0
aI0
aI0
aI0
aI0
aI6
aI0
aI0
aI0
aI0
aI0
aI0
aI0
aI0
aI0
aI0
aI0
aI0
aI0
aI0
aI0
aI0
aI0
aI0
aI0
aI0
aI0
aI0
aI0
aI0
aI70
aI0
aI0
aI0
aI59
aI0
aI0
aI0
aI0
aI0
aI0
aI0
aI0
aI0
aI0
aI0
aI48
aI0
aI0
aI0
aI75
aI0
aI0
aI0
aI0
aI0
aI0
aI0
aI0
aI0
aI0
aI0
aI0
aI0
aI0
aI0
aI0
aI0
aI0
aI0
aI0
aI0
aI0
aI0
aI0
aI0
aI0
aI0
aI0
aI0
aI0
aI0
aI0
aI0
aI0
aI0
aI0
aI0
aI0
aI0
aI0
aI0
aI0
aI0
aI26
aI0
aI0
aI0
aI9
aI0
aI0
aI0
aI0
aI0
aI0
aI0
aI0
aI0
aI0
aI0
aI0
aI0
aI0
aI0
aI33
aI0
aI0
aI0
aI0
aI0
aI0
aI0
aI0
aI0
aI0
aI0
aI0
aI0
aI0
aI0
aI0
aI0
aI0
aI0
aI0
aI0
aI0
aI0
aa(lp85
F-487.76354001129926
aF32.63007295462806
aF-50.22594120461347
aF9173.895530167496
aF810.1861660130555
aF363.990134979528
aF16.267059572261292
aF16.267059572261292
aF16.267059572261292
aF16.267059572261292
aF16.267059572261292
aF16.267059572261292
aF16.267059572261292
aF16.267059572261292
aF16.267059572261292
aF16.267059572261292
aI0
aI1
aI52
aI6
aI0
aI40
aI17
aI1
aI0
aI56
aI0
aI0
aI3
aI49
aI0
aI0
aI0
aI0
aI0
aI3
aI0
aI0
aI0
aI2
aI0
aI0
aI0
aI0
aI7
aI11
aI0
aI0
aI0
aI0
aI0
aI0
aI0
aI0
aI0
aI0
aI0
aI0
aI0
aI0
aI0
aI0
aI0
aI0
aI0
aI0
aI0
aI0
aI0
aI0
aI0
aI0
aI0
aI0
aI0
aI0
aI0
aI0
aI0
aI0
aI0
aI0
aI0
aI0
aI0
aI0
aI0
aI0
aI0
aI0
aI0
aI0
aI0
aI0
aI0
aI0
aI0
aI0
aI0
aI0
aI0
aI0
aI0
aI0
aI0
aI0
aI0
aI0
aI0
aI0
aI0
aI0
aI0
aI0
aI0
aI0
aI0
aI0
aI0
aI0
aI0
aI0
aI0
aI0
aI0
aI1
aI0
aI0
aI0
aI4
aI1
aI0
aI0
aI0
aI20
aI0
aI1
aI6
aI19
aI0
aI0
aI8
aI7
aI0
aI0
aI0
aI0
aI0
aI0
aI0
aI0
aI0
aI0
aI0
aI0
aI0
aI0
aI0
aI0
aI0
aI0
aI0
aI0
aI0
aI0
aI0
aI0
aI17
aI0
aI0
aI0
aI0
aI0
aI0
aI0
aI0
aI0
aI0
aI0
aI0
aI0
aI0
aI0
aI49
aI0
aI0
aI0
aI1
aI0
aI0
aI0
aI0
aI0
aI0
aI0
aI0
aI0
aI0
aI0
aI0
aI0
aI0
aI0
aI0
aI0
aI0
aI0
aI0
aI0
aI0
aI0
aI0
aI0
aI0
aI0
aI0
aI0
aI0
aI0
aI0
aI0
aI0
aI0
aI0
aI0
aI0
aI0
aI0
aI53
aI0
aI0
aI0
aI63
aI0
aI0
aI0
aI0
aI0
aI0
aI0
aI0
aI0
aI0
aI0
aI56
aI0
aI0
aI0
aI76
aI0
aI0
aI0
aI0
aI0
aI0
aI0
aI0
aI0
aI0
aI0
aI0
aI0
aI0
aI0
aI0
aI0
aI0
aI0
aI0
aI0
aI0
aI0
aI0
aI0
aI0
aI0
aI0
aI0
aI0
aI0
aI0
aI0
aI0
aI0
aI0
aI0
aI0
aI0
aI0
aI0
aI0
aI0
aI23
aI0
aI0
aI0
aI11
aI0
aI0
aI0
aI0
aI0
aI0
aI0
aI0
aI0
aI0
aI0
aI2
aI0
aI0
aI0
aI31
aI0
aI0
aI0
aI0
aI0
aI0
aI0
aI0
aI0
aI0
aI0
aI0
aI0
aI0
aI0
aI0
aI0
aI0
aI0
aI0
aI0
aI0
aI0
aa(lp86
F-559.1559319003877
aF79.60823305103224
aF-94.68315686282875
aF9407.15131598603
aF418.87689428938864
aF360.1923144078679
aF9.032474148296759
aF9.032474148296759
aF9.032474148296759
aF9.032474148296759
aF9.032474148296759
aF9.032474148296759
aF9.032474148296759
aF9.032474148296759
aF9.032474148296759
aF9.032474148296759
aI0
aI0
aI11
aI0
aI0
aI42
aI44
aI2
aI3
aI101
aI1
aI0
aI3
aI22
aI0
aI0
aI0
aI0
aI0
aI0
aI0
aI0
aI0
aI0
aI0
aI0
aI0
aI0
aI4
aI3
aI0
aI0
aI0
aI0
aI0
aI0
aI0
aI0
aI0
aI0
aI0
aI0
aI0
aI0
aI0
aI1
aI0
aI0
aI0
aI0
aI0
aI0
aI0
aI0
aI0
aI0
aI0
aI0
aI0
aI0
aI0
aI0
aI0
aI0
aI0
aI0
aI0
aI0
aI0
aI1
aI0
aI0
aI0
aI0
aI0
aI0
aI0
aI0
aI0
aI0
aI0
aI0
aI0
aI0
aI0
aI0
aI0
aI0
aI0
aI0
aI0
aI0
aI0
aI1
aI1
aI0
aI1
aI0
aI0
aI0
aI0
aI0
aI0
aI0
aI2
aI0
aI0
aI0
aI1
aI1
aI0
aI0
aI0
aI0
aI0
aI0
aI1
aI7
aI21
aI0
aI4
aI13
aI11
aI1
aI1
aI0
aI1
aI0
aI0
aI0
aI0
aI0
aI0
aI0
aI0
aI0
aI0
aI0
aI0
aI0
aI0
aI0
aI0
aI0
aI0
aI0
aI0
aI0
aI0
aI0
aI0
aI18
aI0
aI0
aI0
aI0
aI0
aI0
aI0
aI0
aI0
aI0
aI2
aI1
aI0
aI0
aI0
aI46
aI0
aI0
aI0
aI0
aI0
aI0
aI0
aI0
aI0
aI0
aI0
aI0
aI0
aI0
aI0
aI1
aI0
aI0
aI0
aI0
aI0
aI0
aI0
aI0
aI0
aI0
aI0
aI0
aI0
aI0
aI0
aI0
aI0
aI0
aI0
aI0
aI0
aI0
aI0
aI0
aI0
aI0
aI0
aI0
aI24
aI0
aI0
aI0
aI93
aI0
aI0
aI0
aI0
aI0
aI0
aI0
aI0
aI0
aI0
aI0
aI73
aI0
aI0
aI0
aI47
aI0
aI0
aI0
aI0
aI0
aI0
aI0
aI0
aI0
aI0
aI0
aI0
aI0
aI0
aI0
aI0
aI0
aI0
aI0
aI0
aI0
aI0
aI0
aI0
aI0
aI0
aI0
aI0
aI0
aI0
aI0
aI0
aI0
aI0
aI0
aI0
aI0
aI0
aI0
aI0
aI0
aI0
aI0
aI21
aI0
aI0
aI0
aI15
aI0
aI0
aI0
aI0
aI0
aI0
aI0
aI0
aI0
aI0
aI0
aI4
aI0
aI0
aI0
aI28
aI0
aI0
aI0
aI0
aI0
aI0
aI0
aI0
aI0
aI0
aI0
aI0
aI0
aI0
aI0
aI0
aI0
aI0
aI0
aI0
aI0
aI0
aI0
aa(lp87
F-543.7290286352011
aF94.41277978552863
aF-23.239505760692907
aF9582.025056971524
aF630.1679704929552
aF191.31964254355907
aF0.7654219907414689
aF0.7654219907414689
aF0.7654219907414689
aF0.7654219907414689
aF0.7654219907414689
aF0.7654219907414689
aF0.7654219907414689
aF0.7654219907414689
aF0.7654219907414689
aF0.7654219907414689
aI0
aI0
aI32
aI0
aI0
aI12
aI51
aI6
aI0
aI30
aI13
aI0
aI1
aI57
aI2
aI0
aI0
aI0
aI0
aI0
aI0
aI0
aI0
aI1
aI0
aI0
aI0
aI0
aI0
aI1
aI0
aI0
aI0
aI0
aI0
aI0
aI0
aI0
aI0
aI0
aI0
aI0
aI0
aI0
aI0
aI0
aI0
aI0
aI0
aI0
aI0
aI0
aI0
aI0
aI0
aI0
aI0
aI0
aI0
aI0
aI0
aI0
aI0
aI0
aI0
aI0
aI0
aI0
aI0
aI0
aI0
aI0
aI0
aI0
aI0
aI0
aI0
aI0
aI0
aI0
aI0
aI0
aI0
aI0
aI0
aI0
aI0
aI0
aI0
aI0
aI0
aI0
aI0
aI0
aI0
aI0
aI0
aI0
aI0
aI0
aI0
aI0
aI0
aI0
aI0
aI0
aI0
aI0
aI0
aI0
aI0
aI0
aI0
aI2
aI0
aI0
aI0
aI18
aI6
aI0
aI0
aI13
aI18
aI1
aI0
aI3
aI0
aI0
aI0
aI0
aI0
aI0
aI0
aI0
aI0
aI0
aI0
aI0
aI0
aI0
aI0
aI0
aI0
aI0
aI0
aI0
aI0
aI0
aI0
aI0
aI0
aI11
aI0
aI0
aI0
aI0
aI0
aI0
aI0
aI0
aI0
aI0
aI0
aI0
aI0
aI0
aI0
aI49
aI0
aI0
aI0
aI0
aI0
aI0
aI0
aI0
aI0
aI0
aI0
aI0
aI0
aI0
aI0
aI1
aI0
aI0
aI0
aI0
aI0
aI0
aI0
aI0
aI0
aI0
aI0
aI0
aI0
aI0
aI0
aI0
aI0
aI0
aI0
aI0
aI0
aI0
aI0
aI0
aI0
aI0
aI0
aI0
aI40
aI0
aI0
aI0
aI67
aI0
aI0
aI0
aI0
aI0
aI0
aI0
aI0
aI0
aI0
aI0
aI55
aI0
aI0
aI0
aI44
aI0
aI0
aI0
aI0
aI0
aI0
aI0
aI0
aI0
aI0
aI0
aI0
aI0
aI0
aI0
aI0
aI0
aI0
aI0
aI0
aI0
aI0
aI0
aI0
aI0
aI0
aI0
aI0
aI0
aI0
aI0
aI0
aI0
aI0
aI0
aI0
aI0
aI0
aI0
aI0
aI0
aI0
aI0
aI20
aI0
aI0
aI0
aI13
aI0
aI0
aI0
aI0
aI0
aI0
aI0
aI0
aI0
aI0
aI0
aI8
aI0
aI0
aI0
aI20
aI0
aI0
aI0
aI0
aI0
aI0
aI0
aI0
aI0
aI0
aI0
aI0
aI0
aI0
aI0
aI0
aI0
aI0
aI0
aI0
aI0
aI0
aI0
aa(lp88
F34.41693296316366
aF-6.398001723553862
aF0.5445222736200361
aF2577.3034434569076
aF903.9530724674297
aF59.903086302565725
aF0.2283635332006105
aF0.2283635332006105
aF0.2283635332006105
aF0.2283635332006105
aF0.2283635332006105
aF0.2283635332006105
aF0.2283635332006105
aF0.2283635332006105
aF0.2283635332006105
aF0.2283635332006105
aI0
aI5
aI18
aI0
aI2
aI1
aI2
aI2
aI2
aI3
aI4
aI4
aI0
aI6
aI6
aI0
aI10
aI6
aI46
aI3
aI1
aI0
aI0
aI2
aI0
aI0
aI0
aI4
aI0
aI11
aI17
aI10
aI9
aI22
aI16
aI2
aI2
aI0
aI0
aI2
aI2
aI0
aI0
aI3
aI0
aI35
aI20
aI6
aI0
aI5
aI7
aI2
aI0
aI5
aI1
aI2
aI2
aI12
aI2
aI4
aI0
aI37
aI2
aI0
aI3
aI6
aI4
aI3
aI9
aI4
aI8
aI9
aI15
aI10
aI5
aI1
aI5
aI18
aI10
aI0
aI6
aI7
aI15
aI12
aI10
aI0
aI0
aI5
aI29
aI0
aI0
aI7
aI37
aI8
aI9
aI3
aI1
aI4
aI12
aI27
aI2
aI0
aI0
aI29
aI2
aI0
aI0
aI8
aI9
aI3
aI2
aI5
aI0
aI0
aI8
aI2
aI0
aI5
aI2
aI3
aI0
aI2
aI1
aI3
aI0
aI0
aI1
aI0
aI0
aI0
aI0
aI0
aI0
aI0
aI0
aI0
aI0
aI0
aI0
aI0
aI0
aI0
aI0
aI0
aI0
aI0
aI0
aI58
aI0
aI0
aI0
aI11
aI0
aI0
aI0
aI0
aI0
aI0
aI0
aI0
aI0
aI0
aI0
aI57
aI0
aI0
aI0
aI210
aI0
aI0
aI0
aI0
aI0
aI0
aI0
aI0
aI0
aI0
aI46
aI7
aI0
aI0
aI0
aI0
aI0
aI0
aI0
aI0
aI0
aI0
aI0
aI0
aI0
aI0
aI0
aI0
aI0
aI0
aI0
aI0
aI0
aI0
aI0
aI0
aI0
aI0
aI0
aI0
aI0
aI0
aI0
aI0
aI77
aI0
aI0
aI0
aI98
aI0
aI0
aI0
aI0
aI0
aI0
aI0
aI0
aI0
aI0
aI0
aI101
aI0
aI0
aI0
aI89
aI0
aI0
aI0
aI0
aI0
aI0
aI0
aI0
aI0
aI0
aI0
aI0
aI0
aI0
aI0
aI0
aI0
aI0
aI0
aI0
aI0
aI0
aI0
aI0
aI0
aI0
aI0
aI0
aI0
aI0
aI0
aI0
aI0
aI0
aI0
aI0
aI0
aI0
aI0
aI0
aI0
aI0
aI0
aI81
aI0
aI0
aI0
aI110
aI0
aI0
aI0
aI0
aI0
aI0
aI0
aI0
aI0
aI0
aI0
aI113
aI0
aI0
aI0
aI85
aI0
aI0
aI0
aI0
aI0
aI0
aI0
aI0
aI0
aI0
aI0
aI0
aI0
aI0
aI0
aI0
aI0
aI0
aI0
aI0
aI0
aI0
aI0
aa(lp89
F31.088498444446653
aF18.883651100636524
aF-9.985469711522509
aF2637.0641255990604
aF811.7739932861585
aF113.81753559541161
aF1.0
aF1.0
aF1.0
aF1.0
aF1.0
aF1.0
aF1.0
aF1.0
aF1.0
aF1.0
aI0
aI9
aI20
aI2
aI4
aI2
aI8
aI2
aI3
aI3
aI12
aI2
aI0
aI4
aI6
aI0
aI4
aI12
aI39
aI0
aI0
aI0
aI0
aI2
aI6
aI0
aI0
aI1
aI3
aI7
aI14
aI8
aI5
aI2
aI19
aI0
aI0
aI0
aI0
aI0
aI1
aI0
aI0
aI0
aI7
aI34
aI16
aI6
aI0
aI1
aI7
aI0
aI1
aI5
aI0
aI0
aI2
aI6
aI5
aI0
aI0
aI49
aI6
aI0
aI1
aI4
aI4
aI0
aI1
aI3
aI6
aI0
aI7
aI8
aI3
aI0
aI3
aI6
aI2
aI0
aI0
aI6
aI18
aI16
aI6
aI0
aI0
aI1
aI25
aI0
aI0
aI1
aI45
aI13
aI4
aI0
aI1
aI4
aI11
aI25
aI6
aI0
aI0
aI20
aI6
aI0
aI0
aI1
aI9
aI3
aI2
aI2
aI0
aI0
aI1
aI2
aI2
aI2
aI0
aI4
aI1
aI0
aI0
aI4
aI0
aI3
aI2
aI0
aI0
aI0
aI0
aI0
aI0
aI0
aI0
aI0
aI0
aI0
aI0
aI0
aI0
aI0
aI0
aI0
aI0
aI0
aI0
aI64
aI0
aI0
aI0
aI3
aI0
aI0
aI0
aI0
aI0
aI0
aI0
aI0
aI0
aI0
aI0
aI115
aI0
aI0
aI0
aI112
aI0
aI0
aI0
aI0
aI0
aI0
aI0
aI0
aI0
aI0
aI0
aI0
aI0
aI0
aI0
aI0
aI0
aI0
aI0
aI0
aI0
aI0
aI0
aI0
aI0
aI0
aI0
aI0
aI0
aI0
aI0
aI0
aI0
aI0
aI0
aI0
aI0
aI0
aI0
aI0
aI0
aI0
aI0
aI0
aI81
aI0
aI0
aI0
aI53
aI0
aI0
aI0
aI0
aI0
aI0
aI0
aI0
aI0
aI0
aI0
aI89
aI0
aI0
aI0
aI122
aI0
aI0
aI0
aI0
aI0
aI0
aI0
aI0
aI0
aI0
aI0
aI0
aI0
aI0
aI0
aI0
aI0
aI0
aI0
aI0
aI0
aI0
aI0
aI0
aI0
aI0
aI0
aI0
aI0
aI0
aI0
aI0
aI0
aI0
aI0
aI0
aI0
aI0
aI0
aI0
aI0
aI0
aI0
aI79
aI0
aI0
aI0
aI36
aI0
aI0
aI0
aI0
aI0
aI0
aI0
aI0
aI0
aI0
aI0
aI79
aI0
aI0
aI0
aI100
aI0
aI0
aI0
aI0
aI0
aI0
aI0
aI0
aI0
aI0
aI0
aI0
aI0
aI0
aI0
aI0
aI0
aI0
aI0
aI0
aI0
aI0
aI0
aa(lp90
F47.0187108010534
aF-19.98935055550065
aF5.2857463675944505
aF2733.4993521768
aF634.9649906295457
aF37.227397497759846
aF1.0
aF1.0
aF1.0
aF1.0
aF1.0
aF1.0
aF1.0
aF1.0
aF1.0
aF1.0
aI0
aI3
aI17
aI0
aI0
aI1
aI3
aI0
aI0
aI3
aI3
aI2
aI0
aI3
aI1
aI1
aI1
aI14
aI56
aI5
aI2
aI0
aI0
aI1
aI1
aI0
aI0
aI1
aI1
aI8
aI9
aI0
aI0
aI6
aI15
aI0
aI2
aI0
aI0
aI0
aI1
aI0
aI0
aI1
aI3
aI27
aI22
aI2
aI0
aI4
aI6
aI0
aI0
aI8
aI4
aI1
aI2
aI16
aI0
aI0
aI0
aI53
aI8
aI2
aI1
aI3
aI8
aI3
aI2
aI6
aI5
aI3
aI10
aI14
aI7
aI1
aI5
aI11
aI4
aI0
aI6
aI2
aI11
aI13
aI2
aI0
aI0
aI1
aI11
aI0
aI0
aI2
aI32
aI8
aI3
aI3
aI3
aI1
aI9
aI18
aI2
aI0
aI0
aI17
aI13
aI0
aI0
aI7
aI19
aI8
aI4
aI6
aI0
aI5
aI5
aI0
aI2
aI2
aI1
aI7
aI2
aI0
aI1
aI5
aI1
aI0
aI2
aI2
aI0
aI0
aI0
aI0
aI0
aI0
aI0
aI0
aI0
aI0
aI0
aI0
aI0
aI0
aI0
aI0
aI0
aI0
aI0
aI92
aI0
aI0
aI0
aI0
aI0
aI0
aI0
aI0
aI0
aI0
aI0
aI0
aI0
aI0
aI0
aI12
aI0
aI0
aI0
aI204
aI0
aI0
aI0
aI0
aI0
aI0
aI0
aI0
aI0
aI0
aI0
aI0
aI0
aI0
aI0
aI11
aI0
aI0
aI0
aI0
aI0
aI0
aI0
aI0
aI0
aI0
aI0
aI0
aI0
aI0
aI0
aI0
aI0
aI0
aI0
aI0
aI0
aI0
aI0
aI0
aI0
aI0
aI0
aI0
aI62
aI0
aI0
aI0
aI76
aI0
aI0
aI0
aI0
aI0
aI0
aI0
aI0
aI0
aI0
aI0
aI93
aI0
aI0
aI0
aI88
aI0
aI0
aI0
aI0
aI0
aI0
aI0
aI0
aI0
aI0
aI0
aI0
aI0
aI0
aI0
aI0
aI0
aI0
aI0
aI0
aI0
aI0
aI0
aI0
aI0
aI0
aI0
aI0
aI0
aI0
aI0
aI0
aI0
aI0
aI0
aI0
aI0
aI0
aI0
aI0
aI0
aI0
aI0
aI37
aI0
aI0
aI0
aI90
aI0
aI0
aI0
aI0
aI0
aI0
aI0
aI0
aI0
aI0
aI0
aI150
aI0
aI0
aI0
aI42
aI0
aI0
aI0
aI0
aI0
aI0
aI0
aI0
aI0
aI0
aI0
aI0
aI0
aI0
aI0
aI0
aI0
aI0
aI0
aI0
aI0
aI0
aI0
aa(lp91
F38.549732460405075
aF-19.98303287535723
aF4.551395385253799
aF1967.3852965872416
aF662.0473194348614
aF33.66972484346169
aF1.0
aF1.0
aF1.0
aF1.0
aF1.0
aF1.0
aF1.0
aF1.0
aF1.0
aF1.0
aI0
aI4
aI18
aI2
aI1
aI2
aI3
aI1
aI1
aI0
aI0
aI1
aI1
aI1
aI3
aI0
aI4
aI10
aI55
aI2
aI2
aI0
aI0
aI1
aI3
aI0
aI0
aI1
aI4
aI6
aI12
aI4
aI0
aI3
aI18
aI3
aI1
aI0
aI0
aI1
aI0
aI0
aI0
aI0
aI1
aI16
aI14
aI1
aI0
aI4
aI4
aI0
aI0
aI5
aI1
aI1
aI1
aI13
aI1
aI0
aI0
aI58
aI9
aI0
aI2
aI9
aI10
aI1
aI9
aI12
aI4
aI5
aI16
aI11
aI12
aI3
aI6
aI3
aI6
aI0
aI1
aI6
aI8
aI2
aI15
aI0
aI0
aI2
aI30
aI0
aI0
aI0
aI12
aI7
aI3
aI5
aI0
aI0
aI6
aI12
aI0
aI0
aI0
aI17
aI1
aI0
aI0
aI2
aI9
aI9
aI6
aI3
aI0
aI0
aI0
aI4
aI0
aI6
aI2
aI1
aI1
aI1
aI2
aI4
aI1
aI8
aI1
aI1
aI0
aI0
aI0
aI0
aI0
aI0
aI0
aI0
aI0
aI0
aI0
aI0
aI0
aI0
aI0
aI0
aI0
aI0
aI0
aI0
aI0
aI0
aI0
aI0
aI0
aI0
aI0
aI0
aI0
aI0
aI0
aI0
aI0
aI0
aI0
aI0
aI0
aI0
aI0
aI297
aI0
aI0
aI0
aI0
aI0
aI0
aI0
aI0
aI0
aI0
aI0
aI0
aI0
aI0
aI0
aI0
aI0
aI0
aI0
aI0
aI0
aI0
aI0
aI0
aI0
aI0
aI0
aI0
aI0
aI0
aI0
aI0
aI0
aI0
aI0
aI0
aI0
aI0
aI0
aI0
aI0
aI0
aI0
aI0
aI52
aI0
aI0
aI0
aI88
aI0
aI0
aI0
aI0
aI0
aI0
aI0
aI0
aI0
aI0
aI0
aI93
aI0
aI0
aI0
aI64
aI0
aI0
aI0
aI0
aI0
aI0
aI0
aI0
aI0
aI0
aI0
aI0
aI0
aI0
aI0
aI0
aI0
aI0
aI0
aI0
aI0
aI0
aI0
aI0
aI0
aI0
aI0
aI0
aI0
aI0
aI0
aI0
aI0
aI0
aI0
aI0
aI0
aI0
aI0
aI0
aI0
aI0
aI0
aI48
aI0
aI0
aI0
aI88
aI0
aI0
aI0
aI0
aI0
aI0
aI0
aI0
aI0
aI0
aI0
aI120
aI0
aI0
aI0
aI41
aI0
aI0
aI0
aI0
aI0
aI0
aI0
aI0
aI0
aI0
aI0
aI0
aI0
aI0
aI0
aI0
aI0
aI0
aI0
aI0
aI0
aI0
aI0
aa(lp92
F31.924532260544616
aF-17.552434522092614
aF10.461089837512313
aF1930.681427358083
aF678.3326456354486
aF103.85749418537408
aF1.0
aF1.0
aF1.0
aF1.0
aF1.0
aF1.0
aF1.0
aF1.0
aF1.0
aF1.0
aI0
aI5
aI17
aI1
aI0
aI3
aI5
aI1
aI3
aI1
aI2
aI1
aI0
aI1
aI3
aI0
aI7
aI10
aI55
aI0
aI3
aI0
aI0
aI0
aI2
aI0
aI0
aI1
aI4
aI9
aI9
aI5
aI1
aI1
aI26
aI2
aI1
aI0
aI0
aI4
aI1
aI0
aI0
aI4
aI0
aI20
aI23
aI13
aI0
aI6
aI4
aI0
aI1
aI7
aI3
aI2
aI0
aI9
aI1
aI0
aI0
aI48
aI7
aI0
aI2
aI9
aI15
aI1
aI7
aI12
aI4
aI4
aI10
aI9
aI5
aI2
aI3
aI6
aI0
aI0
aI5
aI7
aI9
aI6
aI5
aI0
aI0
aI2
aI36
aI0
aI0
aI2
aI24
aI7
aI2
aI3
aI1
aI2
aI7
aI20
aI0
aI0
aI0
aI30
aI5
aI0
aI0
aI6
aI13
aI6
aI3
aI4
aI0
aI0
aI2
aI0
aI0
aI2
aI2
aI9
aI1
aI3
aI3
aI5
aI0
aI2
aI7
aI2
aI0
aI0
aI0
aI0
aI0
aI0
aI0
aI0
aI0
aI0
aI0
aI0
aI0
aI0
aI0
aI0
aI0
aI0
aI0
aI7
aI0
aI0
aI0
aI3
aI0
aI0
aI0
aI0
aI0
aI0
aI0
aI0
aI0
aI0
aI0
aI0
aI0
aI0
aI0
aI322
aI0
aI0
aI0
aI0
aI0
aI0
aI0
aI0
aI0
aI0
aI0
aI0
aI0
aI0
aI0
aI0
aI0
aI0
aI0
aI0
aI0
aI0
aI0
aI0
aI0
aI0
aI0
aI0
aI0
aI0
aI0
aI0
aI0
aI0
aI0
aI0
aI0
aI0
aI0
aI0
aI0
aI0
aI0
aI0
aI48
aI0
aI0
aI0
aI106
aI0
aI0
aI0
aI0
aI0
aI0
aI0
aI0
aI0
aI0
aI0
aI105
aI0
aI0
aI0
aI73
aI0
aI0
aI0
aI0
aI0
aI0
aI0
aI0
aI0
aI0
aI0
aI0
aI0
aI0
aI0
aI0
aI0
aI0
aI0
aI0
aI0
aI0
aI0
aI0
aI0
aI0
aI0
aI0
aI0
aI0
aI0
aI0
aI0
aI0
aI0
aI0
aI0
aI0
aI0
aI0
aI0
aI0
aI0
aI49
aI0
aI0
aI0
aI104
aI0
aI0
aI0
aI0
aI0
aI0
aI0
aI0
aI0
aI0
aI0
aI124
aI0
aI0
aI0
aI55
aI0
aI0
aI0
aI0
aI0
aI0
aI0
aI0
aI0
aI0
aI0
aI0
aI0
aI0
aI0
aI0
aI0
aI0
aI0
aI0
aI0
aI0
aI0
aa(lp93
F43.198908859193594
aF-20.728069878937895
aF5.1285557236096615
aF2121.5120062220967
aF720.235389964253
aF39.153231711050886
aF1.0
aF1.0
aF1.0
aF1.0
aF1.0
aF1.0
aF1.0
aF1.0
aF1.0
aF1.0
aI0
aI4
aI20
aI0
aI3
aI0
aI3
aI2
aI1
aI1
aI1
aI0
aI0
aI1
aI0
aI0
aI1
aI4
aI54
aI4
aI2
aI0
aI0
aI0
aI2
aI0
aI0
aI1
aI2
aI9
aI10
aI3
aI1
aI7
aI14
aI1
aI2
aI0
aI0
aI0
aI1
aI0
aI0
aI1
aI1
aI12
aI23
aI6
aI0
aI8
aI6
aI0
aI0
aI5
aI2
aI2
aI2
aI13
aI1
aI3
aI0
aI50
aI7
aI1
aI2
aI14
aI11
aI0
aI4
aI17
aI10
aI1
aI10
aI6
aI3
aI0
aI3
aI4
aI3
aI0
aI2
aI9
aI11
aI5
aI7
aI0
aI0
aI2
aI20
aI0
aI0
aI3
aI28
aI14
aI3
aI4
aI3
aI2
aI8
aI11
aI2
aI0
aI0
aI8
aI2
aI0
aI0
aI3
aI5
aI6
aI6
aI2
aI0
aI1
aI1
aI2
aI1
aI1
aI2
aI7
aI2
aI1
aI7
aI3
aI2
aI4
aI7
aI2
aI0
aI0
aI0
aI0
aI0
aI0
aI0
aI0
aI0
aI0
aI0
aI0
aI0
aI0
aI0
aI0
aI0
aI0
aI0
aI0
aI0
aI0
aI0
aI0
aI0
aI0
aI0
aI0
aI0
aI0
aI0
aI0
aI0
aI0
aI0
aI55
aI0
aI0
aI0
aI242
aI0
aI0
aI0
aI0
aI0
aI0
aI0
aI0
aI0
aI0
aI0
aI0
aI0
aI0
aI0
aI0
aI0
aI0
aI0
aI0
aI0
aI0
aI0
aI0
aI0
aI0
aI0
aI0
aI0
aI0
aI0
aI0
aI0
aI0
aI0
aI0
aI0
aI0
aI0
aI0
aI0
aI0
aI0
aI0
aI46
aI0
aI0
aI0
aI86
aI0
aI0
aI0
aI0
aI0
aI0
aI0
aI0
aI0
aI0
aI0
aI94
aI0
aI0
aI0
aI71
aI0
aI0
aI0
aI0
aI0
aI0
aI0
aI0
aI0
aI0
aI0
aI0
aI0
aI0
aI0
aI0
aI0
aI0
aI0
aI0
aI0
aI0
aI0
aI0
aI0
aI0
aI0
aI0
aI0
aI0
aI0
aI0
aI0
aI0
aI0
aI0
aI0
aI0
aI0
aI0
aI0
aI0
aI0
aI46
aI0
aI0
aI0
aI85
aI0
aI0
aI0
aI0
aI0
aI0
aI0
aI0
aI0
aI0
aI0
aI101
aI0
aI0
aI0
aI65
aI0
aI0
aI0
aI0
aI0
aI0
aI0
aI0
aI0
aI0
aI0
aI0
aI0
aI0
aI0
aI0
aI0
aI0
aI0
aI0
aI0
aI0
aI0
aa(lp94
F35.40129212935326
aF-19.431285779903977
aF9.2376235365369
aF1568.4510135343367
aF446.02619168287305
aF54.03516414511568
aF1.0
aF1.0
aF1.0
aF1.0
aF1.0
aF1.0
aF1.0
aF1.0
aF1.0
aF1.0
aI0
aI3
aI32
aI0
aI0
aI0
aI6
aI7
aI2
aI0
aI5
aI0
aI0
aI1
aI2
aI0
aI4
aI5
aI49
aI1
aI1
aI0
aI0
aI0
aI2
aI0
aI0
aI1
aI2
aI4
aI4
aI7
aI1
aI4
aI12
aI1
aI3
aI0
aI0
aI1
aI1
aI0
aI0
aI2
aI0
aI10
aI18
aI2
aI0
aI1
aI6
aI0
aI0
aI7
aI4
aI0
aI1
aI14
aI0
aI2
aI0
aI53
aI5
aI0
aI0
aI8
aI10
aI2
aI9
aI11
aI12
aI2
aI16
aI11
aI4
aI2
aI2
aI6
aI3
aI0
aI4
aI3
aI9
aI4
aI3
aI0
aI0
aI2
aI36
aI0
aI0
aI0
aI16
aI6
aI2
aI2
aI0
aI4
aI6
aI8
aI2
aI0
aI0
aI20
aI2
aI0
aI0
aI1
aI7
aI8
aI5
aI5
aI0
aI0
aI3
aI1
aI0
aI1
aI2
aI13
aI0
aI0
aI2
aI3
aI0
aI5
aI2
aI0
aI0
aI0
aI0
aI0
aI0
aI0
aI0
aI0
aI0
aI0
aI0
aI0
aI0
aI0
aI0
aI0
aI0
aI0
aI0
aI0
aI0
aI0
aI0
aI0
aI0
aI0
aI0
aI0
aI0
aI0
aI0
aI0
aI0
aI0
aI0
aI0
aI0
aI0
aI0
aI245
aI0
aI0
aI0
aI40
aI0
aI0
aI0
aI0
aI0
aI0
aI0
aI0
aI0
aI0
aI0
aI0
aI0
aI0
aI0
aI0
aI0
aI0
aI0
aI0
aI0
aI0
aI0
aI0
aI0
aI0
aI0
aI0
aI0
aI0
aI0
aI0
aI0
aI0
aI0
aI0
aI0
aI0
aI0
aI0
aI57
aI0
aI0
aI0
aI76
aI0
aI0
aI0
aI0
aI0
aI0
aI0
aI0
aI0
aI0
aI0
aI87
aI0
aI0
aI0
aI66
aI0
aI0
aI0
aI0
aI0
aI0
aI0
aI0
aI0
aI0
aI0
aI0
aI0
aI0
aI0
aI0
aI0
aI0
aI0
aI0
aI0
aI0
aI0
aI0
aI0
aI0
aI0
aI0
aI0
aI0
aI0
aI0
aI0
aI0
aI0
aI0
aI0
aI0
aI0
aI0
aI0
aI0
aI0
aI49
aI0
aI0
aI0
aI73
aI0
aI0
aI0
aI0
aI0
aI0
aI0
aI0
aI0
aI0
aI0
aI104
aI0
aI0
aI0
aI59
aI0
aI0
aI0
aI0
aI0
aI0
aI0
aI0
aI0
aI0
aI0
aI0
aI0
aI0
aI0
aI0
aI0
aI0
aI0
aI0
aI0
aI0
aI0
aa(lp95
F35.28068415768606
aF-25.856115783521428
aF9.041502375627644
aF1566.3838300066543
aF687.9080479868555
aF65.66437449095515
aF1.0
aF1.0
aF1.0
aF1.0
aF1.0
aF1.0
aF1.0
aF1.0
aF1.0
aF1.0
aI0
aI10
aI24
aI0
aI0
aI0
aI3
aI1
aI1
aI1
aI1
aI2
aI0
aI1
aI0
aI0
aI4
aI6
aI51
aI2
aI4
aI0
aI0
aI0
aI5
aI0
aI0
aI1
aI5
aI6
aI10
aI2
aI1
aI8
aI24
aI0
aI2
aI0
aI0
aI1
aI0
aI0
aI0
aI4
aI0
aI9
aI16
aI3
aI0
aI1
aI3
aI1
aI1
aI3
aI3
aI1
aI1
aI11
aI1
aI1
aI0
aI51
aI4
aI1
aI2
aI8
aI11
aI1
aI9
aI24
aI9
aI1
aI16
aI17
aI5
aI1
aI2
aI12
aI1
aI0
aI3
aI4
aI5
aI5
aI4
aI0
aI0
aI3
aI12
aI0
aI0
aI3
aI16
aI5
aI3
aI1
aI0
aI0
aI1
aI10
aI0
aI0
aI0
aI24
aI3
aI0
aI0
aI5
aI7
aI16
aI7
aI5
aI0
aI0
aI0
aI0
aI0
aI1
aI3
aI6
aI0
aI0
aI4
aI2
aI0
aI4
aI4
aI1
aI0
aI0
aI0
aI0
aI0
aI0
aI0
aI0
aI0
aI0
aI0
aI0
aI0
aI0
aI0
aI0
aI0
aI0
aI0
aI1
aI0
aI0
aI0
aI14
aI0
aI0
aI0
aI0
aI0
aI0
aI0
aI0
aI0
aI0
aI0
aI0
aI0
aI0
aI0
aI255
aI0
aI0
aI0
aI16
aI0
aI0
aI0
aI0
aI0
aI0
aI0
aI0
aI0
aI0
aI0
aI0
aI0
aI0
aI0
aI0
aI0
aI0
aI0
aI0
aI0
aI0
aI0
aI0
aI0
aI0
aI0
aI0
aI0
aI0
aI0
aI0
aI0
aI0
aI0
aI0
aI0
aI0
aI0
aI0
aI53
aI0
aI0
aI0
aI87
aI0
aI0
aI0
aI0
aI0
aI0
aI0
aI0
aI0
aI0
aI0
aI74
aI0
aI0
aI0
aI77
aI0
aI0
aI0
aI0
aI0
aI0
aI0
aI0
aI0
aI0
aI0
aI0
aI0
aI0
aI0
aI0
aI0
aI0
aI0
aI0
aI0
aI0
aI0
aI0
aI0
aI0
aI0
aI0
aI0
aI0
aI0
aI0
aI0
aI0
aI0
aI0
aI0
aI0
aI0
aI0
aI0
aI0
aI0
aI46
aI0
aI0
aI0
aI84
aI0
aI0
aI0
aI0
aI0
aI0
aI0
aI0
aI0
aI0
aI0
aI106
aI0
aI0
aI0
aI50
aI0
aI0
aI0
aI0
aI0
aI0
aI0
aI0
aI0
aI0
aI0
aI0
aI0
aI0
aI0
aI0
aI0
aI0
aI0
aI0
aI0
aI0
aI0
aa(lp96
F3.1427422221242183
aF-85.63262042912646
aF15.32027593427041
aF258.31270750081035
aF854.8796144646519
aF146.96965590803507
aF0.11493016517380228
aF0.11493016517380228
aF0.11493016517380228
aF0.11493016517380228
aF0.11493016517380228
aF0.11493016517380228
aF0.11493016517380228
aF0.11493016517380228
aF0.11493016517380228
aF0.11493016517380228
aI0
aI3
aI7
aI2
aI0
aI0
aI5
aI0
aI0
aI1
aI1
aI1
aI0
aI0
aI0
aI0
aI5
aI15
aI18
aI3
aI2
aI0
aI0
aI3
aI10
aI0
aI0
aI2
aI2
aI0
aI1
aI0
aI3
aI4
aI2
aI2
aI2
aI0
aI0
aI0
aI1
aI0
aI0
aI0
aI6
aI21
aI12
aI3
aI2
aI1
aI1
aI0
aI2
aI1
aI1
aI4
aI0
aI1
aI7
aI5
aI0
aI10
aI16
aI2
aI1
aI0
aI1
aI1
aI0
aI0
aI3
aI3
aI5
aI2
aI0
aI1
aI3
aI1
aI2
aI1
aI1
aI1
aI17
aI6
aI1
aI0
aI0
aI1
aI3
aI0
aI0
aI0
aI25
aI2
aI5
aI3
aI0
aI3
aI7
aI43
aI1
aI0
aI0
aI3
aI1
aI0
aI0
aI3
aI0
aI3
aI5
aI3
aI0
aI2
aI11
aI3
aI0
aI0
aI2
aI2
aI0
aI1
aI2
aI3
aI1
aI2
aI5
aI1
aI0
aI0
aI0
aI0
aI0
aI0
aI0
aI0
aI0
aI0
aI0
aI0
aI0
aI0
aI0
aI0
aI0
aI0
aI0
aI0
aI0
aI0
aI0
aI0
aI0
aI0
aI0
aI0
aI0
aI0
aI0
aI0
aI0
aI0
aI3
aI186
aI0
aI0
aI0
aI2
aI0
aI0
aI0
aI0
aI0
aI0
aI0
aI0
aI0
aI0
aI0
aI1
aI0
aI0
aI0
aI4
aI0
aI0
aI0
aI0
aI0
aI0
aI0
aI0
aI0
aI0
aI0
aI0
aI0
aI0
aI0
aI0
aI0
aI0
aI0
aI0
aI0
aI0
aI0
aI0
aI3
aI1
aI1
aI2
aI18
aI0
aI0
aI0
aI86
aI0
aI0
aI0
aI0
aI0
aI0
aI0
aI0
aI0
aI0
aI0
aI5
aI0
aI0
aI9
aI19
aI0
aI0
aI15
aI2
aI0
aI0
aI0
aI0
aI0
aI0
aI0
aI0
aI0
aI0
aI0
aI4
aI4
aI8
aI11
aI1
aI1
aI0
aI0
aI0
aI0
aI0
aI0
aI0
aI0
aI0
aI0
aI0
aI0
aI0
aI0
aI0
aI0
aI0
aI0
aI0
aI0
aI0
aI0
aI70
aI0
aI0
aI0
aI42
aI0
aI0
aI0
aI0
aI0
aI0
aI0
aI0
aI0
aI0
aI0
aI12
aI0
aI0
aI0
aI72
aI0
aI0
aI0
aI0
aI0
aI0
aI0
aI0
aI0
aI0
aI0
aI0
aI0
aI0
aI0
aI0
aI0
aI0
aI0
aI0
aI0
aI0
aI0
aa(lp97
F87.13260619395929
aF10.791258245588276
aF-2.6253560084583127
aF7629.1121723272845
aF290.35476702275264
aF233.86735760816887
aF1.0
aF1.0
aF1.0
aF1.0
aF1.0
aF1.0
aF1.0
aF1.0
aF1.0
aF1.0
aI0
aI0
aI9
aI0
aI0
aI0
aI2
aI1
aI5
aI4
aI2
aI4
aI0
aI2
aI1
aI0
aI3
aI13
aI8
aI2
aI4
aI0
aI0
aI1
aI4
aI0
aI0
aI1
aI5
aI4
aI10
aI5
aI7
aI11
aI3
aI2
aI5
aI0
aI0
aI10
aI0
aI0
aI0
aI17
aI5
aI5
aI4
aI5
aI0
aI6
aI1
aI0
aI5
aI15
aI3
aI3
aI7
aI26
aI13
aI2
aI2
aI12
aI12
aI2
aI0
aI8
aI9
aI2
aI4
aI16
aI23
aI3
aI5
aI7
aI4
aI0
aI1
aI9
aI0
aI0
aI4
aI9
aI16
aI11
aI2
aI0
aI0
aI0
aI12
aI0
aI0
aI0
aI30
aI6
aI3
aI0
aI4
aI6
aI6
aI16
aI0
aI0
aI0
aI8
aI0
aI0
aI0
aI3
aI3
aI4
aI4
aI5
aI1
aI2
aI10
aI2
aI0
aI2
aI6
aI1
aI0
aI1
aI3
aI0
aI0
aI2
aI0
aI0
aI0
aI0
aI0
aI0
aI0
aI0
aI0
aI0
aI0
aI0
aI0
aI0
aI0
aI0
aI0
aI0
aI0
aI0
aI0
aI4
aI0
aI0
aI0
aI0
aI0
aI0
aI0
aI0
aI0
aI0
aI0
aI0
aI0
aI0
aI22
aI229
aI0
aI0
aI0
aI3
aI0
aI0
aI0
aI0
aI0
aI0
aI0
aI0
aI0
aI0
aI0
aI1
aI0
aI0
aI0
aI14
aI0
aI0
aI0
aI0
aI0
aI0
aI0
aI0
aI0
aI0
aI0
aI0
aI0
aI0
aI0
aI0
aI0
aI0
aI0
aI0
aI0
aI0
aI0
aI0
aI0
aI0
aI0
aI0
aI118
aI0
aI0
aI0
aI34
aI0
aI0
aI0
aI0
aI0
aI0
aI0
aI0
aI0
aI0
aI0
aI26
aI0
aI0
aI0
aI75
aI0
aI0
aI0
aI0
aI0
aI0
aI0
aI0
aI0
aI0
aI0
aI4
aI5
aI6
aI0
aI0
aI3
aI2
aI0
aI0
aI0
aI0
aI0
aI0
aI0
aI0
aI0
aI0
aI0
aI0
aI0
aI0
aI0
aI0
aI0
aI0
aI0
aI0
aI0
aI0
aI0
aI0
aI0
aI134
aI0
aI0
aI0
aI18
aI0
aI0
aI0
aI0
aI0
aI0
aI0
aI0
aI0
aI0
aI0
aI41
aI0
aI0
aI0
aI80
aI0
aI0
aI0
aI0
aI0
aI0
aI0
aI0
aI0
aI0
aI0
aI0
aI0
aI0
aI0
aI0
aI0
aI0
aI0
aI0
aI0
aI0
aI0
aa(lp98
F88.4645760459329
aF10.967300725773283
aF-3.7105761969399595
aF5945.714106759824
aF446.22957515035984
aF306.1338113208189
aF1.0
aF1.0
aF1.0
aF1.0
aF1.0
aF1.0
aF1.0
aF1.0
aF1.0
aF1.0
aI0
aI4
aI4
aI0
aI2
aI8
aI4
aI2
aI0
aI1
aI2
aI1
aI0
aI0
aI2
aI0
aI6
aI20
aI11
aI4
aI4
aI0
aI0
aI6
aI6
aI0
aI0
aI3
aI3
aI2
aI9
aI0
aI3
aI7
aI6
aI2
aI2
aI0
aI0
aI2
aI6
aI0
aI0
aI1
aI3
aI1
aI1
aI0
aI0
aI5
aI2
aI0
aI4
aI5
aI3
aI2
aI6
aI28
aI8
aI5
aI1
aI16
aI8
aI0
aI1
aI6
aI9
aI3
aI2
aI3
aI10
aI3
aI13
aI16
aI1
aI0
aI2
aI6
aI0
aI0
aI1
aI7
aI10
aI23
aI1
aI0
aI0
aI8
aI4
aI0
aI0
aI2
aI5
aI5
aI2
aI1
aI1
aI1
aI2
aI6
aI0
aI0
aI0
aI10
aI0
aI0
aI0
aI3
aI6
aI4
aI8
aI4
aI0
aI2
aI3
aI1
aI0
aI1
aI2
aI4
aI1
aI4
aI12
aI3
aI0
aI1
aI6
aI1
aI0
aI0
aI0
aI0
aI0
aI0
aI0
aI0
aI0
aI0
aI0
aI0
aI0
aI0
aI0
aI0
aI0
aI0
aI4
aI6
aI0
aI0
aI0
aI0
aI0
aI0
aI0
aI0
aI0
aI0
aI0
aI0
aI0
aI0
aI1
aI219
aI0
aI0
aI0
aI0
aI0
aI0
aI0
aI0
aI0
aI0
aI0
aI0
aI0
aI0
aI0
aI0
aI0
aI0
aI0
aI0
aI0
aI0
aI0
aI0
aI0
aI0
aI0
aI0
aI0
aI0
aI0
aI0
aI0
aI0
aI0
aI0
aI0
aI0
aI0
aI0
aI0
aI0
aI0
aI0
aI0
aI0
aI0
aI0
aI130
aI0
aI0
aI0
aI14
aI0
aI0
aI0
aI0
aI0
aI0
aI0
aI0
aI0
aI0
aI0
aI16
aI0
aI0
aI0
aI71
aI0
aI0
aI0
aI0
aI0
aI0
aI0
aI0
aI0
aI0
aI0
aI0
aI0
aI0
aI0
aI0
aI0
aI0
aI0
aI0
aI0
aI0
aI0
aI0
aI0
aI0
aI0
aI0
aI0
aI0
aI0
aI0
aI0
aI0
aI0
aI0
aI0
aI0
aI0
aI0
aI0
aI0
aI0
aI144
aI0
aI0
aI0
aI0
aI0
aI0
aI0
aI0
aI0
aI0
aI0
aI0
aI0
aI0
aI0
aI28
aI0
aI0
aI0
aI58
aI0
aI0
aI0
aI0
aI0
aI0
aI0
aI0
aI0
aI0
aI0
aI0
aI0
aI0
aI0
aI0
aI0
aI0
aI0
aI0
aI0
aI0
aI0
aa(lp99
F77.99810100563164
aF2.298146247543965
aF-8.96496043301084
aF5836.44520941812
aF1122.5539352360656
aF1723.2400152748594
aF2.7938101482155004
aF2.7938101482155004
aF2.7938101482155004
aF2.7938101482155004
aF2.7938101482155004
aF2.7938101482155004
aF2.7938101482155004
aF2.7938101482155004
aF2.7938101482155004
aF2.7938101482155004
aI6
aI4
aI12
aI1
aI5
aI1
aI2
aI3
aI2
aI1
aI1
aI2
aI1
aI1
aI0
aI1
aI17
aI15
aI4
aI8
aI4
aI0
aI0
aI5
aI14
aI0
aI0
aI5
aI3
aI5
aI3
aI6
aI3
aI16
aI0
aI3
aI3
aI0
aI0
aI3
aI5
aI0
aI0
aI2
aI2
aI6
aI4
aI6
aI1
aI10
aI4
aI1
aI5
aI3
aI0
aI5
aI3
aI31
aI23
aI9
aI0
aI12
aI15
aI0
aI1
aI1
aI6
aI1
aI13
aI8
aI9
aI2
aI18
aI6
aI4
aI3
aI3
aI5
aI3
aI2
aI15
aI4
aI6
aI6
aI2
aI0
aI0
aI3
aI8
aI0
aI0
aI5
aI22
aI7
aI1
aI2
aI6
aI1
aI5
aI21
aI0
aI0
aI0
aI9
aI0
aI0
aI0
aI11
aI0
aI11
aI3
aI15
aI0
aI0
aI0
aI0
aI2
aI1
aI2
aI5
aI1
aI1
aI3
aI5
aI0
aI1
aI1
aI0
aI0
aI0
aI0
aI0
aI0
aI0
aI0
aI0
aI0
aI0
aI0
aI0
aI0
aI0
aI0
aI0
aI0
aI0
aI0
aI0
aI0
aI0
aI0
aI0
aI0
aI0
aI0
aI0
aI0
aI0
aI0
aI0
aI0
aI0
aI6
aI143
aI0
aI0
aI0
aI41
aI0
aI0
aI0
aI0
aI0
aI0
aI0
aI0
aI0
aI0
aI0
aI0
aI0
aI0
aI0
aI80
aI0
aI0
aI0
aI0
aI0
aI0
aI0
aI0
aI0
aI0
aI0
aI0
aI0
aI0
aI0
aI0
aI0
aI0
aI0
aI0
aI0
aI0
aI0
aI0
aI0
aI0
aI0
aI0
aI162
aI0
aI0
aI0
aI33
aI0
aI0
aI0
aI0
aI0
aI0
aI0
aI0
aI0
aI0
aI0
aI0
aI0
aI0
aI0
aI112
aI0
aI0
aI0
aI0
aI0
aI0
aI0
aI0
aI0
aI0
aI0
aI0
aI0
aI0
aI0
aI0
aI0
aI0
aI0
aI0
aI0
aI0
aI0
aI0
aI0
aI0
aI0
aI0
aI0
aI0
aI0
aI0
aI0
aI0
aI0
aI0
aI0
aI0
aI0
aI0
aI0
aI0
aI0
aI158
aI0
aI0
aI0
aI0
aI0
aI0
aI0
aI0
aI0
aI0
aI0
aI0
aI0
aI0
aI0
aI20
aI0
aI0
aI0
aI92
aI0
aI0
aI0
aI0
aI0
aI0
aI0
aI0
aI0
aI0
aI0
aI0
aI0
aI0
aI0
aI0
aI0
aI0
aI0
aI0
aI0
aI0
aI0
aa(lp100
F58.20688412984039
aF11.194090639736823
aF-5.408524546009941
aF6155.551221609879
aF504.9620575859157
aF2271.215249115818
aF3.6198497322356586
aF3.6198497322356586
aF3.6198497322356586
aF3.6198497322356586
aF3.6198497322356586
aF3.6198497322356586
aF3.6198497322356586
aF3.6198497322356586
aF3.6198497322356586
aF3.6198497322356586
aI0
aI1
aI8
aI0
aI1
aI0
aI5
aI3
aI1
aI0
aI2
aI4
aI0
aI0
aI3
aI0
aI11
aI19
aI5
aI2
aI11
aI0
aI0
aI4
aI10
aI0
aI0
aI7
aI7
aI5
aI2
aI8
aI14
aI7
aI5
aI3
aI6
aI0
aI0
aI5
aI6
aI0
aI0
aI11
aI5
aI17
aI31
aI9
aI3
aI10
aI2
aI1
aI17
aI8
aI5
aI5
aI6
aI18
aI15
aI8
aI1
aI11
aI25
aI4
aI4
aI6
aI3
aI2
aI9
aI4
aI3
aI4
aI26
aI4
aI5
aI8
aI1
aI3
aI3
aI3
aI12
aI7
aI3
aI5
aI2
aI0
aI0
aI3
aI3
aI0
aI0
aI5
aI2
aI2
aI9
aI3
aI9
aI1
aI5
aI5
aI0
aI0
aI0
aI5
aI1
aI0
aI0
aI12
aI1
aI1
aI6
aI11
aI0
aI2
aI0
aI2
aI0
aI0
aI6
aI21
aI0
aI1
aI5
aI4
aI1
aI1
aI4
aI1
aI0
aI0
aI0
aI0
aI0
aI0
aI0
aI0
aI0
aI0
aI0
aI0
aI0
aI0
aI0
aI0
aI0
aI0
aI0
aI5
aI0
aI0
aI0
aI0
aI0
aI0
aI0
aI0
aI0
aI0
aI0
aI0
aI0
aI0
aI0
aI76
aI0
aI0
aI0
aI103
aI0
aI0
aI0
aI5
aI0
aI0
aI0
aI0
aI0
aI0
aI0
aI1
aI0
aI0
aI0
aI28
aI0
aI0
aI0
aI31
aI0
aI0
aI0
aI0
aI0
aI0
aI0
aI0
aI0
aI0
aI0
aI0
aI0
aI0
aI0
aI0
aI0
aI0
aI0
aI0
aI0
aI0
aI0
aI0
aI125
aI0
aI0
aI0
aI87
aI0
aI0
aI0
aI0
aI0
aI0
aI0
aI0
aI0
aI0
aI0
aI69
aI0
aI0
aI0
aI96
aI0
aI0
aI0
aI0
aI0
aI0
aI0
aI0
aI0
aI0
aI0
aI0
aI0
aI0
aI0
aI0
aI0
aI0
aI0
aI0
aI0
aI0
aI0
aI0
aI0
aI0
aI0
aI0
aI0
aI0
aI0
aI0
aI0
aI0
aI0
aI0
aI0
aI0
aI0
aI0
aI0
aI0
aI0
aI84
aI0
aI0
aI0
aI58
aI0
aI0
aI0
aI0
aI0
aI0
aI0
aI0
aI0
aI0
aI0
aI33
aI0
aI0
aI0
aI74
aI0
aI0
aI0
aI0
aI0
aI0
aI0
aI0
aI0
aI0
aI0
aI0
aI0
aI0
aI0
aI0
aI0
aI0
aI0
aI0
aI0
aI0
aI0
aa(lp101
F74.78239705964187
aF-4.3367431231272455
aF-16.3650642136856
aF4578.764758704625
aF362.7068984152424
aF767.5784434505933
aF1.363583754603192
aF1.363583754603192
aF1.363583754603192
aF1.363583754603192
aF1.363583754603192
aF1.363583754603192
aF1.363583754603192
aF1.363583754603192
aF1.363583754603192
aF1.363583754603192
aI1
aI0
aI9
aI0
aI1
aI0
aI2
aI2
aI0
aI1
aI0
aI0
aI0
aI1
aI0
aI1
aI4
aI13
aI15
aI1
aI3
aI0
aI0
aI0
aI5
aI0
aI0
aI2
aI1
aI1
aI8
aI5
aI1
aI16
aI4
aI2
aI2
aI0
aI0
aI4
aI3
aI0
aI0
aI12
aI2
aI19
aI9
aI4
aI1
aI4
aI0
aI0
aI2
aI8
aI3
aI0
aI12
aI23
aI7
aI9
aI0
aI21
aI16
aI3
aI0
aI9
aI2
aI0
aI8
aI19
aI11
aI2
aI3
aI3
aI11
aI5
aI0
aI2
aI6
aI3
aI10
aI4
aI9
aI14
aI3
aI0
aI0
aI4
aI5
aI0
aI0
aI4
aI26
aI4
aI5
aI14
aI10
aI2
aI3
aI7
aI1
aI0
aI0
aI4
aI1
aI0
aI0
aI2
aI4
aI10
aI7
aI7
aI0
aI0
aI0
aI0
aI0
aI2
aI1
aI0
aI0
aI2
aI1
aI1
aI0
aI1
aI0
aI1
aI0
aI0
aI0
aI0
aI0
aI0
aI0
aI0
aI0
aI0
aI0
aI0
aI0
aI0
aI0
aI0
aI0
aI0
aI0
aI0
aI0
aI0
aI0
aI0
aI0
aI0
aI0
aI0
aI0
aI0
aI0
aI0
aI0
aI0
aI0
aI182
aI0
aI0
aI0
aI17
aI0
aI0
aI0
aI0
aI0
aI0
aI0
aI0
aI0
aI0
aI0
aI0
aI0
aI0
aI0
aI39
aI0
aI0
aI0
aI15
aI0
aI0
aI0
aI0
aI0
aI0
aI0
aI0
aI0
aI0
aI0
aI0
aI0
aI0
aI0
aI0
aI0
aI0
aI0
aI0
aI0
aI0
aI0
aI0
aI58
aI0
aI0
aI0
aI80
aI0
aI0
aI0
aI0
aI0
aI0
aI0
aI0
aI0
aI0
aI0
aI72
aI0
aI0
aI0
aI53
aI0
aI0
aI0
aI0
aI0
aI0
aI0
aI0
aI0
aI0
aI0
aI0
aI0
aI0
aI0
aI0
aI0
aI0
aI0
aI0
aI0
aI0
aI0
aI0
aI0
aI0
aI0
aI0
aI0
aI0
aI0
aI0
aI0
aI0
aI0
aI0
aI0
aI0
aI0
aI0
aI0
aI0
aI0
aI36
aI0
aI0
aI0
aI99
aI0
aI0
aI0
aI0
aI0
aI0
aI0
aI0
aI0
aI0
aI0
aI85
aI0
aI0
aI0
aI33
aI0
aI0
aI0
aI0
aI0
aI0
aI0
aI0
aI0
aI0
aI0
aI0
aI0
aI0
aI0
aI0
aI0
aI0
aI0
aI0
aI0
aI0
aI0
aa(lp102
F49.736504589412746
aF-37.02719645266733
aF-21.64378168608327
aF2753.7794765679773
aF1115.599776371933
aF771.5708809568113
aF1.0
aF1.0
aF1.0
aF1.0
aF1.0
aF1.0
aF1.0
aF1.0
aF1.0
aF1.0
aI0
aI1
aI14
aI8
aI0
aI0
aI0
aI1
aI1
aI0
aI1
aI1
aI0
aI2
aI3
aI0
aI2
aI15
aI15
aI6
aI2
aI0
aI0
aI1
aI4
aI0
aI0
aI1
aI0
aI10
aI8
aI7
aI2
aI14
aI0
aI1
aI1
aI0
aI0
aI3
aI1
aI0
aI0
aI1
aI3
aI4
aI25
aI4
aI2
aI1
aI1
aI0
aI5
aI14
aI4
aI0
aI18
aI24
aI2
aI2
aI2
aI11
aI2
aI1
aI2
aI2
aI2
aI1
aI5
aI3
aI14
aI2
aI7
aI14
aI37
aI7
aI0
aI5
aI4
aI0
aI4
aI3
aI2
aI0
aI6
aI0
aI0
aI1
aI4
aI0
aI0
aI1
aI2
aI10
aI2
aI1
aI6
aI5
aI6
aI8
aI3
aI0
aI0
aI7
aI0
aI0
aI0
aI9
aI6
aI4
aI6
aI13
aI0
aI2
aI3
aI2
aI2
aI0
aI2
aI6
aI1
aI0
aI6
aI1
aI0
aI11
aI1
aI0
aI0
aI0
aI0
aI0
aI0
aI0
aI0
aI0
aI0
aI0
aI0
aI0
aI0
aI0
aI0
aI0
aI0
aI0
aI0
aI0
aI0
aI0
aI0
aI0
aI0
aI0
aI0
aI0
aI0
aI0
aI0
aI0
aI0
aI0
aI0
aI144
aI0
aI0
aI0
aI57
aI0
aI0
aI0
aI0
aI0
aI0
aI0
aI0
aI0
aI0
aI0
aI7
aI0
aI0
aI0
aI37
aI0
aI0
aI0
aI6
aI0
aI0
aI0
aI0
aI0
aI0
aI0
aI0
aI0
aI0
aI0
aI0
aI0
aI0
aI0
aI0
aI0
aI0
aI0
aI0
aI0
aI0
aI0
aI0
aI33
aI0
aI0
aI0
aI112
aI0
aI0
aI0
aI0
aI0
aI0
aI0
aI0
aI0
aI0
aI0
aI67
aI0
aI0
aI0
aI39
aI0
aI0
aI0
aI0
aI0
aI0
aI0
aI0
aI0
aI0
aI0
aI0
aI0
aI0
aI0
aI0
aI0
aI0
aI0
aI0
aI0
aI0
aI0
aI0
aI0
aI0
aI0
aI0
aI0
aI0
aI0
aI0
aI0
aI0
aI0
aI0
aI0
aI0
aI0
aI0
aI0
aI0
aI0
aI17
aI0
aI0
aI0
aI130
aI0
aI0
aI0
aI0
aI0
aI0
aI0
aI0
aI0
aI0
aI0
aI104
aI0
aI0
aI0
aI0
aI0
aI0
aI0
aI0
aI0
aI0
aI0
aI0
aI0
aI0
aI0
aI0
aI0
aI0
aI0
aI0
aI0
aI0
aI0
aI0
aI0
aI0
aI0
aa(lp103
F118.13678044185193
aF2.053971249919843
aF-24.031997600132758
aF6990.75713747448
aF269.61817221912696
aF1630.6876719336587
aF0.19786028812300546
aF0.19786028812300546
aF0.19786028812300546
aF0.19786028812300546
aF0.19786028812300546
aF0.19786028812300546
aF0.19786028812300546
aF0.19786028812300546
aF0.19786028812300546
aF0.19786028812300546
aI0
aI1
aI1
aI0
aI0
aI0
aI0
aI0
aI0
aI0
aI0
aI1
aI0
aI0
aI0
aI0
aI10
aI17
aI2
aI2
aI3
aI0
aI0
aI1
aI8
aI0
aI0
aI1
aI6
aI0
aI4
aI0
aI13
aI8
aI1
aI2
aI7
aI0
aI0
aI5
aI5
aI0
aI0
aI1
aI1
aI3
aI10
aI4
aI0
aI2
aI3
aI0
aI4
aI12
aI4
aI6
aI1
aI12
aI15
aI2
aI0
aI8
aI10
aI0
aI0
aI4
aI1
aI2
aI3
aI2
aI15
aI4
aI7
aI9
aI9
aI4
aI5
aI13
aI2
aI0
aI5
aI3
aI8
aI13
aI7
aI0
aI0
aI1
aI6
aI0
aI0
aI4
aI24
aI8
aI3
aI7
aI2
aI5
aI5
aI11
aI3
aI0
aI0
aI8
aI0
aI0
aI0
aI7
aI1
aI4
aI2
aI7
aI0
aI1
aI0
aI1
aI0
aI0
aI1
aI6
aI0
aI0
aI0
aI1
aI0
aI1
aI0
aI2
aI0
aI0
aI0
aI0
aI0
aI0
aI0
aI0
aI0
aI0
aI0
aI0
aI0
aI0
aI0
aI0
aI0
aI0
aI0
aI19
aI0
aI0
aI0
aI0
aI0
aI0
aI0
aI0
aI0
aI0
aI0
aI0
aI0
aI0
aI24
aI124
aI0
aI0
aI0
aI29
aI0
aI0
aI0
aI0
aI0
aI0
aI0
aI0
aI0
aI0
aI0
aI0
aI0
aI0
aI0
aI33
aI0
aI0
aI0
aI8
aI0
aI0
aI0
aI0
aI0
aI0
aI0
aI0
aI0
aI0
aI0
aI0
aI0
aI0
aI0
aI0
aI0
aI0
aI0
aI0
aI0
aI0
aI0
aI0
aI56
aI0
aI0
aI0
aI63
aI0
aI0
aI0
aI0
aI0
aI0
aI0
aI0
aI0
aI0
aI0
aI4
aI0
aI0
aI0
aI73
aI0
aI0
aI0
aI0
aI0
aI0
aI0
aI0
aI0
aI0
aI0
aI0
aI0
aI0
aI0
aI0
aI0
aI0
aI0
aI0
aI0
aI0
aI0
aI0
aI0
aI0
aI0
aI0
aI0
aI0
aI0
aI0
aI0
aI0
aI0
aI0
aI0
aI0
aI0
aI0
aI0
aI0
aI0
aI62
aI0
aI0
aI0
aI86
aI0
aI0
aI0
aI0
aI0
aI0
aI0
aI0
aI0
aI0
aI0
aI39
aI0
aI0
aI0
aI50
aI0
aI0
aI0
aI0
aI0
aI0
aI0
aI0
aI0
aI0
aI0
aI0
aI0
aI0
aI0
aI0
aI0
aI0
aI0
aI0
aI0
aI0
aI0
aa(lp104
F78.92370113339668
aF-13.559011991881263
aF-12.645213831533791
aF4744.583156148497
aF866.5850097136333
aF850.4859113880121
aF1.2413870946041956
aF1.2413870946041956
aF1.2413870946041956
aF1.2413870946041956
aF1.2413870946041956
aF1.2413870946041956
aF1.2413870946041956
aF1.2413870946041956
aF1.2413870946041956
aF1.2413870946041956
aI0
aI0
aI7
aI0
aI2
aI0
aI1
aI5
aI0
aI0
aI1
aI0
aI0
aI1
aI0
aI0
aI3
aI36
aI9
aI2
aI4
aI0
aI0
aI5
aI1
aI0
aI0
aI3
aI0
aI0
aI3
aI10
aI3
aI6
aI2
aI2
aI2
aI0
aI0
aI4
aI0
aI0
aI0
aI14
aI0
aI1
aI5
aI4
aI1
aI1
aI2
aI0
aI3
aI7
aI3
aI0
aI8
aI22
aI8
aI6
aI0
aI14
aI13
aI1
aI1
aI4
aI3
aI0
aI16
aI5
aI34
aI1
aI7
aI9
aI17
aI0
aI4
aI5
aI4
aI0
aI3
aI2
aI6
aI4
aI6
aI0
aI0
aI0
aI13
aI0
aI0
aI1
aI14
aI5
aI3
aI2
aI3
aI0
aI1
aI4
aI0
aI0
aI0
aI6
aI0
aI0
aI0
aI6
aI1
aI8
aI2
aI3
aI0
aI0
aI3
aI0
aI0
aI1
aI0
aI2
aI0
aI0
aI1
aI7
aI0
aI0
aI2
aI0
aI0
aI0
aI0
aI0
aI0
aI0
aI0
aI0
aI0
aI0
aI0
aI0
aI0
aI0
aI0
aI0
aI0
aI0
aI0
aI53
aI0
aI0
aI0
aI0
aI0
aI0
aI0
aI0
aI0
aI0
aI0
aI0
aI0
aI0
aI3
aI128
aI0
aI0
aI0
aI18
aI0
aI0
aI0
aI0
aI0
aI0
aI0
aI0
aI0
aI0
aI0
aI4
aI0
aI0
aI0
aI9
aI0
aI0
aI0
aI4
aI0
aI0
aI0
aI0
aI0
aI7
aI2
aI0
aI5
aI20
aI3
aI9
aI33
aI7
aI0
aI8
aI3
aI10
aI0
aI0
aI0
aI0
aI0
aI0
aI0
aI0
aI0
aI7
aI0
aI0
aI0
aI8
aI0
aI0
aI0
aI0
aI0
aI0
aI0
aI0
aI6
aI0
aI0
aI13
aI0
aI0
aI0
aI13
aI0
aI0
aI0
aI0
aI0
aI0
aI0
aI0
aI0
aI0
aI0
aI15
aI0
aI39
aI15
aI2
aI0
aI0
aI0
aI0
aI0
aI0
aI0
aI0
aI0
aI0
aI0
aI0
aI0
aI0
aI0
aI0
aI0
aI0
aI0
aI0
aI0
aI0
aI0
aI0
aI40
aI0
aI0
aI0
aI81
aI0
aI0
aI0
aI0
aI0
aI0
aI0
aI0
aI0
aI0
aI0
aI98
aI0
aI0
aI0
aI0
aI0
aI0
aI0
aI0
aI0
aI0
aI0
aI0
aI0
aI0
aI0
aI0
aI0
aI0
aI0
aI0
aI0
aI0
aI0
aI0
aI0
aI0
aI0
aa(lp105
F74.68782464554873
aF-13.361618012952121
aF-29.46337344540649
aF6125.7470096609095
aF1269.480330097316
aF2297.400666727892
aF1.995863749110369
aF1.995863749110369
aF1.995863749110369
aF1.995863749110369
aF1.995863749110369
aF1.995863749110369
aF1.995863749110369
aF1.995863749110369
aF1.995863749110369
aF1.995863749110369
aI0
aI0
aI9
aI1
aI4
aI3
aI1
aI3
aI3
aI6
aI1
aI1
aI1
aI1
aI0
aI2
aI2
aI24
aI6
aI5
aI0
aI0
aI0
aI14
aI2
aI0
aI0
aI6
aI2
aI5
aI4
aI16
aI6
aI4
aI0
aI3
aI7
aI0
aI0
aI9
aI4
aI0
aI0
aI3
aI3
aI4
aI18
aI8
aI2
aI2
aI0
aI0
aI11
aI16
aI1
aI5
aI11
aI23
aI5
aI2
aI0
aI10
aI9
aI2
aI0
aI5
aI2
aI2
aI6
aI3
aI12
aI10
aI8
aI3
aI18
aI12
aI1
aI4
aI0
aI0
aI5
aI5
aI12
aI9
aI3
aI0
aI0
aI2
aI13
aI0
aI0
aI3
aI14
aI4
aI1
aI5
aI1
aI5
aI6
aI12
aI1
aI0
aI0
aI7
aI3
aI0
aI0
aI12
aI9
aI17
aI6
aI2
aI1
aI1
aI1
aI2
aI0
aI1
aI1
aI2
aI3
aI3
aI3
aI0
aI1
aI4
aI0
aI0
aI0
aI0
aI0
aI0
aI0
aI0
aI0
aI0
aI0
aI0
aI0
aI0
aI0
aI0
aI0
aI0
aI0
aI0
aI1
aI55
aI0
aI0
aI0
aI0
aI0
aI0
aI0
aI0
aI0
aI0
aI0
aI0
aI0
aI0
aI22
aI133
aI0
aI0
aI0
aI8
aI0
aI0
aI0
aI0
aI0
aI0
aI0
aI0
aI0
aI0
aI0
aI3
aI0
aI0
aI0
aI42
aI0
aI0
aI0
aI2
aI0
aI0
aI0
aI0
aI0
aI0
aI0
aI0
aI0
aI0
aI0
aI0
aI2
aI0
aI1
aI1
aI0
aI0
aI0
aI0
aI0
aI0
aI0
aI0
aI40
aI0
aI0
aI8
aI101
aI0
aI0
aI8
aI0
aI0
aI0
aI3
aI0
aI0
aI0
aI0
aI24
aI0
aI0
aI24
aI0
aI0
aI0
aI78
aI0
aI0
aI0
aI0
aI0
aI0
aI0
aI0
aI0
aI0
aI0
aI0
aI0
aI0
aI0
aI0
aI0
aI0
aI0
aI0
aI0
aI0
aI0
aI0
aI0
aI0
aI0
aI0
aI0
aI0
aI0
aI0
aI0
aI0
aI0
aI0
aI0
aI0
aI0
aI0
aI20
aI0
aI0
aI0
aI132
aI0
aI0
aI0
aI0
aI0
aI0
aI0
aI0
aI0
aI0
aI0
aI113
aI0
aI0
aI0
aI1
aI0
aI0
aI0
aI0
aI0
aI0
aI0
aI0
aI0
aI0
aI0
aI0
aI0
aI0
aI0
aI0
aI0
aI0
aI0
aI0
aI0
aI0
aI0
aa(lp106
F96.00384505190095
aF13.683261796046867
aF-23.257160955493596
aF7987.3670599658435
aF907.6769589272968
aF1677.8970804206278
aF1.4870220994183752
aF1.4870220994183752
aF1.4870220994183752
aF1.4870220994183752
aF1.4870220994183752
aF1.4870220994183752
aF1.4870220994183752
aF1.4870220994183752
aF1.4870220994183752
aF1.4870220994183752
aI0
aI1
aI8
aI0
aI0
aI0
aI0
aI2
aI2
aI0
aI0
aI2
aI0
aI5
aI2
aI0
aI2
aI26
aI6
aI0
aI0
aI0
aI0
aI1
aI1
aI0
aI0
aI8
aI4
aI5
aI6
aI8
aI10
aI5
aI0
aI2
aI5
aI0
aI0
aI5
aI4
aI0
aI0
aI2
aI1
aI5
aI19
aI4
aI2
aI2
aI3
aI1
aI7
aI6
aI2
aI7
aI13
aI19
aI7
aI7
aI0
aI14
aI6
aI1
aI1
aI5
aI9
aI3
aI3
aI8
aI14
aI12
aI3
aI4
aI9
aI3
aI1
aI3
aI1
aI1
aI5
aI2
aI4
aI9
aI6
aI0
aI0
aI9
aI5
aI0
aI0
aI9
aI12
aI5
aI2
aI4
aI5
aI4
aI16
aI9
aI1
aI0
aI0
aI3
aI2
aI0
aI0
aI2
aI0
aI9
aI8
aI4
aI0
aI2
aI3
aI4
aI1
aI0
aI0
aI2
aI0
aI1
aI0
aI1
aI0
aI2
aI2
aI2
aI0
aI0
aI0
aI0
aI0
aI0
aI0
aI0
aI0
aI0
aI0
aI0
aI0
aI0
aI0
aI0
aI0
aI0
aI0
aI55
aI0
aI0
aI0
aI0
aI0
aI0
aI0
aI0
aI0
aI0
aI0
aI0
aI0
aI0
aI0
aI10
aI0
aI0
aI0
aI63
aI0
aI0
aI0
aI0
aI0
aI0
aI0
aI0
aI0
aI0
aI0
aI11
aI0
aI0
aI0
aI89
aI0
aI0
aI0
aI7
aI0
aI0
aI0
aI0
aI0
aI0
aI0
aI0
aI0
aI0
aI0
aI0
aI0
aI0
aI0
aI0
aI0
aI0
aI0
aI0
aI0
aI0
aI0
aI0
aI95
aI0
aI0
aI0
aI62
aI0
aI0
aI0
aI0
aI0
aI0
aI0
aI1
aI0
aI0
aI0
aI14
aI0
aI0
aI14
aI0
aI0
aI0
aI17
aI0
aI0
aI0
aI0
aI0
aI0
aI0
aI0
aI0
aI0
aI0
aI0
aI7
aI16
aI17
aI5
aI0
aI0
aI0
aI0
aI0
aI0
aI0
aI0
aI0
aI0
aI0
aI0
aI0
aI0
aI0
aI0
aI0
aI0
aI0
aI0
aI0
aI0
aI0
aI0
aI116
aI0
aI0
aI0
aI37
aI0
aI0
aI0
aI0
aI0
aI0
aI0
aI0
aI0
aI0
aI0
aI14
aI0
aI0
aI0
aI68
aI0
aI0
aI0
aI0
aI0
aI0
aI0
aI0
aI0
aI0
aI0
aI0
aI0
aI0
aI0
aI0
aI0
aI0
aI0
aI0
aI0
aI0
aI0
aaa(lp107
I0
aI0
aI0
aI0
aI0
aI0
aI0
aI0
aI0
aI0
aI0
aI0
aI0
aI0
aI0
aI0
aI0
aI0
aI0
aI0
aI0
aI1
aI1
aI1
aI1
aI1
aI1
aI1
aI1
aI1
aI1
aI1
aI1
aI1
aI1
aI1
aI1
aI1
aI1
aI1
aI1
aI1
aI0
aI0
aI0
aI0
aI0
aI0
aI0
aI0
aI0
aI0
aI0
aI0
aI0
aI0
aI0
aI0
aI0
aI0
aI0
aI0
aI0
aI0
aI1
aI1
aI1
aI1
aI1
aI1
aI1
aI1
aI1
aI1
aI1
aI1
aI1
aI1
aI1
aI1
aI1
aI1
aI1
aI1
aI1
aI1
aI0
aI0
aI0
aI0
aI0
aI0
aI0
aI0
aI1
aI1
aI1
aI1
aI1
aI1
aI1
aI1
aI1
aI1
aI1
aa(dp108
S'start\n'
p109
I0
sS'terry\n'
p110
I1
sS'will\n'
p111
I0
sS'stop\n'
p112
I1
sa.