(lp0
(lp1
(lp2
F-134.0958499343941
aF-12.895097682827492
aF47.11877575797503
aF12375.500654409534
aF172.76357985176338
aF1335.4235037452872
aF0.45389983842715453
aF0.45389983842715453
aF0.45389983842715453
aF0.45389983842715453
aF0.45389983842715453
aF0.45389983842715453
aF0.45389983842715453
aF0.45389983842715453
aF0.45389983842715453
aF0.45389983842715453
aI0
aI2
aI1
aI4
aI0
aI0
aI10
aI23
aI3
aI40
aI37
aI1
aI0
aI3
aI0
aI0
aI0
aI1
aI1
aI7
aI1
aI0
aI0
aI2
aI2
aI0
aI0
aI0
aI0
aI0
aI0
aI0
aI2
aI1
aI10
aI4
aI3
aI0
aI0
aI2
aI2
aI0
aI0
aI4
aI1
aI1
aI1
aI2
aI0
aI1
aI3
aI1
aI4
aI8
aI6
aI1
aI3
aI6
aI6
aI0
aI0
aI0
aI1
aI1
aI0
aI0
aI0
aI0
aI0
aI0
aI0
aI0
aI0
aI0
aI0
aI0
aI0
aI0
aI0
aI0
aI0
aI0
aI0
aI0
aI0
aI0
aI0
aI0
aI0
aI0
aI0
aI0
aI0
aI0
aI0
aI0
aI0
aI0
aI0
aI0
aI0
aI0
aI0
aI0
aI0
aI0
aI0
aI0
aI0
aI0
aI0
aI0
aI0
aI0
aI0
aI0
aI0
aI33
aI0
aI0
aI0
aI9
aI0
aI0
aI0
aI0
aI0
aI0
aI0
aI0
aI0
aI0
aI0
aI0
aI0
aI0
aI0
aI0
aI0
aI0
aI0
aI0
aI0
aI0
aI0
aI0
aI0
aI0
aI0
aI0
aI0
aI0
aI0
aI0
aI0
aI0
aI0
aI0
aI0
aI0
aI0
aI0
aI5
aI17
aI0
aI0
aI0
aI0
aI0
aI0
aI0
aI0
aI0
aI0
aI0
aI0
aI0
aI0
aI20
aI0
aI0
aI0
aI0
aI0
aI0
aI0
aI0
aI0
aI0
aI0
aI0
aI0
aI0
aI0
aI0
aI0
aI0
aI0
aI0
aI0
aI0
aI0
aI0
aI0
aI0
aI0
aI0
aI0
aI0
aI0
aI0
aI0
aI46
aI0
aI0
aI0
aI53
aI0
aI0
aI0
aI0
aI0
aI0
aI0
aI0
aI0
aI0
aI0
aI80
aI0
aI0
aI0
aI33
aI0
aI0
aI0
aI0
aI0
aI0
aI0
aI0
aI0
aI0
aI0
aI0
aI0
aI0
aI0
aI0
aI0
aI0
aI0
aI0
aI0
aI0
aI0
aI0
aI0
aI0
aI0
aI0
aI0
aI0
aI0
aI0
aI0
aI0
aI0
aI0
aI0
aI0
aI0
aI0
aI0
aI0
aI0
aI2
aI0
aI0
aI0
aI19
aI0
aI0
aI0
aI0
aI0
aI0
aI0
aI0
aI0
aI0
aI0
aI21
aI0
aI0
aI0
aI0
aI0
aI0
aI0
aI0
aI0
aI0
aI0
aI0
aI0
aI0
aI0
aI0
aI0
aI0
aI0
aI0
aI0
aI0
aI0
aI0
aI0
aI0
aI0
aa(lp3
F-189.68976671061168
aF-2.2277162838744404
aF53.75391507016929
aF17337.371971378994
aF245.18809362907672
aF1474.5637174938201
aF0.43237456649187783
aF0.43237456649187783
aF0.43237456649187783
aF0.43237456649187783
aF0.43237456649187783
aF0.43237456649187783
aF0.43237456649187783
aF0.43237456649187783
aF0.43237456649187783
aF0.43237456649187783
aI1
aI1
aI0
aI0
aI1
aI3
aI13
aI22
aI3
aI37
aI42
aI3
aI2
aI2
aI3
aI0
aI1
aI0
aI0
aI1
aI1
aI0
aI0
aI1
aI2
aI0
aI0
aI2
aI1
aI1
aI2
aI1
aI0
aI0
aI1
aI2
aI0
aI0
aI0
aI0
aI1
aI0
aI0
aI1
aI2
aI0
aI0
aI0
aI0
aI12
aI1
aI0
aI1
aI5
aI6
aI0
aI0
aI0
aI1
aI2
aI0
aI0
aI0
aI0
aI0
aI0
aI0
aI0
aI0
aI0
aI0
aI0
aI0
aI0
aI0
aI0
aI0
aI0
aI0
aI0
aI0
aI0
aI0
aI0
aI0
aI0
aI0
aI0
aI0
aI0
aI0
aI0
aI0
aI0
aI0
aI0
aI0
aI0
aI0
aI0
aI0
aI0
aI0
aI0
aI0
aI0
aI0
aI0
aI0
aI0
aI0
aI0
aI0
aI2
aI0
aI0
aI0
aI20
aI0
aI0
aI0
aI4
aI1
aI0
aI0
aI1
aI0
aI0
aI0
aI0
aI0
aI0
aI0
aI0
aI0
aI0
aI0
aI0
aI0
aI0
aI0
aI0
aI0
aI0
aI0
aI0
aI0
aI0
aI0
aI0
aI0
aI0
aI0
aI0
aI0
aI0
aI0
aI0
aI0
aI0
aI0
aI0
aI6
aI4
aI0
aI0
aI0
aI0
aI0
aI0
aI0
aI0
aI0
aI0
aI0
aI0
aI0
aI0
aI18
aI0
aI0
aI0
aI0
aI0
aI0
aI0
aI0
aI0
aI0
aI0
aI0
aI0
aI0
aI0
aI0
aI0
aI0
aI0
aI0
aI0
aI0
aI0
aI0
aI0
aI0
aI0
aI0
aI0
aI0
aI0
aI0
aI0
aI40
aI0
aI0
aI0
aI50
aI0
aI0
aI0
aI0
aI0
aI0
aI0
aI0
aI0
aI0
aI0
aI64
aI0
aI0
aI0
aI27
aI0
aI0
aI0
aI0
aI0
aI0
aI0
aI0
aI0
aI0
aI0
aI0
aI0
aI0
aI0
aI0
aI0
aI0
aI0
aI0
aI0
aI0
aI0
aI0
aI0
aI0
aI0
aI0
aI0
aI0
aI0
aI0
aI0
aI0
aI0
aI0
aI0
aI0
aI0
aI0
aI0
aI0
aI0
aI0
aI0
aI0
aI0
aI14
aI0
aI0
aI0
aI0
aI0
aI0
aI0
aI0
aI0
aI0
aI0
aI12
aI0
aI0
aI0
aI2
aI0
aI0
aI0
aI0
aI0
aI0
aI0
aI0
aI0
aI0
aI0
aI0
aI0
aI0
aI0
aI0
aI0
aI0
aI0
aI0
aI0
aI0
aI0
aa(lp4
F-195.08140683892586
aF18.53351852192024
aF43.53571777576381
aF16238.350384188558
aF790.604498133687
aF896.2948664219713
aF1.0
aF1.0
aF1.0
aF1.0
aF1.0
aF1.0
aF1.0
aF1.0
aF1.0
aF1.0
aI0
aI3
aI3
aI7
aI0
aI3
aI30
aI11
aI3
aI33
aI36
aI0
aI0
aI24
aI0
aI0
aI0
aI1
aI0
aI1
aI0
aI0
aI0
aI2
aI1
aI0
aI0
aI0
aI0
aI1
aI0
aI0
aI0
aI0
aI0
aI2
aI0
aI0
aI0
aI0
aI0
aI0
aI0
aI0
aI0
aI0
aI0
aI0
aI0
aI1
aI1
aI0
aI0
aI4
aI9
aI2
aI0
aI1
aI3
aI1
aI0
aI0
aI1
aI0
aI0
aI0
aI0
aI0
aI0
aI0
aI0
aI0
aI0
aI0
aI0
aI0
aI0
aI0
aI0
aI0
aI0
aI0
aI0
aI0
aI0
aI0
aI0
aI0
aI0
aI0
aI0
aI0
aI0
aI0
aI0
aI0
aI0
aI0
aI0
aI0
aI0
aI0
aI0
aI0
aI0
aI0
aI0
aI0
aI0
aI0
aI0
aI0
aI0
aI1
aI2
aI0
aI0
aI45
aI1
aI0
aI1
aI18
aI0
aI0
aI0
aI0
aI0
aI0
aI0
aI0
aI0
aI0
aI0
aI0
aI0
aI0
aI0
aI0
aI0
aI0
aI0
aI0
aI0
aI0
aI0
aI0
aI0
aI1
aI0
aI0
aI0
aI0
aI0
aI0
aI0
aI0
aI0
aI0
aI0
aI0
aI0
aI0
aI4
aI43
aI0
aI0
aI0
aI0
aI0
aI0
aI0
aI0
aI0
aI0
aI0
aI0
aI0
aI0
aI20
aI0
aI0
aI0
aI0
aI0
aI0
aI0
aI0
aI0
aI0
aI0
aI0
aI0
aI0
aI0
aI0
aI0
aI0
aI0
aI0
aI0
aI0
aI0
aI0
aI0
aI0
aI0
aI0
aI0
aI0
aI0
aI0
aI0
aI31
aI0
aI0
aI0
aI64
aI0
aI0
aI0
aI0
aI0
aI0
aI0
aI0
aI0
aI0
aI0
aI61
aI0
aI0
aI0
aI28
aI0
aI0
aI0
aI0
aI0
aI0
aI0
aI0
aI0
aI0
aI0
aI0
aI0
aI0
aI0
aI0
aI0
aI0
aI0
aI0
aI0
aI0
aI0
aI0
aI0
aI0
aI0
aI0
aI0
aI0
aI0
aI0
aI0
aI0
aI0
aI0
aI0
aI0
aI0
aI0
aI0
aI0
aI0
aI1
aI0
aI0
aI0
aI33
aI0
aI0
aI0
aI0
aI0
aI0
aI0
aI0
aI0
aI0
aI0
aI24
aI0
aI0
aI0
aI10
aI0
aI0
aI0
aI0
aI0
aI0
aI0
aI0
aI0
aI0
aI0
aI0
aI0
aI0
aI0
aI0
aI0
aI0
aI0
aI0
aI0
aI0
aI0
aa(lp5
F-251.08413589799716
aF55.42155396463966
aF38.31380310018496
aF9536.251485155337
aF722.769902452007
aF463.20121970474133
aF0.53675066228645
aF0.53675066228645
aF0.53675066228645
aF0.53675066228645
aF0.53675066228645
aF0.53675066228645
aF0.53675066228645
aF0.53675066228645
aF0.53675066228645
aF0.53675066228645
aI0
aI0
aI5
aI1
aI0
aI0
aI27
aI12
aI0
aI15
aI43
aI0
aI0
aI20
aI0
aI0
aI0
aI0
aI0
aI0
aI0
aI0
aI0
aI0
aI2
aI0
aI0
aI0
aI2
aI7
aI0
aI0
aI0
aI0
aI0
aI0
aI0
aI0
aI0
aI0
aI0
aI0
aI0
aI0
aI2
aI0
aI0
aI0
aI0
aI0
aI0
aI0
aI0
aI0
aI0
aI0
aI0
aI0
aI0
aI0
aI0
aI0
aI0
aI0
aI0
aI0
aI0
aI0
aI0
aI0
aI0
aI0
aI0
aI0
aI0
aI0
aI0
aI0
aI0
aI0
aI0
aI0
aI0
aI0
aI0
aI0
aI0
aI0
aI0
aI0
aI0
aI0
aI0
aI0
aI0
aI0
aI0
aI0
aI0
aI0
aI0
aI0
aI0
aI0
aI0
aI0
aI0
aI0
aI0
aI0
aI0
aI0
aI0
aI0
aI2
aI0
aI0
aI33
aI3
aI0
aI0
aI16
aI2
aI0
aI0
aI0
aI0
aI0
aI0
aI0
aI0
aI0
aI0
aI0
aI0
aI0
aI0
aI0
aI0
aI0
aI0
aI0
aI0
aI0
aI0
aI0
aI0
aI0
aI0
aI0
aI0
aI0
aI0
aI0
aI0
aI0
aI0
aI0
aI0
aI0
aI0
aI0
aI0
aI26
aI0
aI0
aI0
aI0
aI0
aI0
aI0
aI0
aI0
aI0
aI0
aI0
aI0
aI0
aI30
aI0
aI0
aI0
aI0
aI0
aI0
aI0
aI0
aI0
aI0
aI0
aI0
aI0
aI0
aI0
aI0
aI0
aI0
aI0
aI0
aI0
aI0
aI0
aI0
aI0
aI0
aI0
aI0
aI0
aI0
aI0
aI0
aI0
aI6
aI0
aI0
aI0
aI62
aI0
aI0
aI0
aI0
aI0
aI0
aI0
aI0
aI0
aI0
aI0
aI42
aI0
aI0
aI0
aI26
aI0
aI0
aI0
aI0
aI0
aI0
aI0
aI0
aI0
aI0
aI0
aI0
aI0
aI0
aI0
aI0
aI0
aI0
aI0
aI0
aI0
aI0
aI0
aI0
aI0
aI0
aI0
aI0
aI0
aI0
aI0
aI0
aI0
aI0
aI0
aI0
aI0
aI0
aI0
aI0
aI0
aI0
aI0
aI4
aI0
aI0
aI0
aI24
aI0
aI0
aI0
aI0
aI0
aI0
aI0
aI0
aI0
aI0
aI0
aI28
aI0
aI0
aI0
aI0
aI0
aI0
aI0
aI0
aI0
aI0
aI0
aI0
aI0
aI0
aI0
aI0
aI0
aI0
aI0
aI0
aI0
aI0
aI0
aI0
aI0
aI0
aI0
aa(lp6
F-223.95263644794647
aF50.1258294690537
aF27.311580252878933
aF9564.309060212283
aF693.8574862429193
aF339.00121095754497
aF0.17890666442318598
aF0.17890666442318598
aF0.17890666442318598
aF0.17890666442318598
aF0.17890666442318598
aF0.17890666442318598
aF0.17890666442318598
aF0.17890666442318598
aF0.17890666442318598
aF0.17890666442318598
aI0
aI0
aI5
aI2
aI0
aI0
aI37
aI14
aI0
aI17
aI43
aI0
aI0
aI22
aI0
aI0
aI0
aI0
aI1
aI0
aI0
aI0
aI0
aI0
aI0
aI0
aI0
aI0
aI1
aI4
aI0
aI0
aI0
aI0
aI0
aI0
aI0
aI0
aI0
aI0
aI0
aI0
aI0
aI0
aI3
aI1
aI0
aI0
aI0
aI0
aI0
aI0
aI0
aI0
aI0
aI0
aI0
aI0
aI0
aI0
aI0
aI0
aI0
aI0
aI0
aI0
aI0
aI0
aI0
aI0
aI0
aI0
aI0
aI0
aI0
aI0
aI0
aI0
aI0
aI0
aI0
aI0
aI0
aI0
aI0
aI0
aI0
aI0
aI0
aI0
aI0
aI0
aI0
aI0
aI0
aI0
aI0
aI0
aI0
aI0
aI0
aI0
aI0
aI0
aI0
aI0
aI0
aI0
aI0
aI0
aI0
aI0
aI0
aI0
aI3
aI0
aI0
aI51
aI6
aI0
aI1
aI20
aI0
aI0
aI2
aI1
aI0
aI0
aI0
aI0
aI0
aI0
aI0
aI0
aI0
aI0
aI0
aI0
aI0
aI0
aI0
aI0
aI0
aI0
aI0
aI0
aI0
aI0
aI0
aI0
aI0
aI0
aI0
aI0
aI0
aI0
aI0
aI0
aI0
aI0
aI0
aI0
aI0
aI37
aI0
aI0
aI0
aI0
aI0
aI0
aI0
aI0
aI0
aI0
aI0
aI0
aI0
aI0
aI28
aI15
aI0
aI0
aI4
aI0
aI0
aI0
aI0
aI0
aI0
aI0
aI0
aI0
aI0
aI0
aI0
aI0
aI0
aI0
aI0
aI0
aI0
aI0
aI0
aI0
aI0
aI0
aI0
aI0
aI0
aI0
aI0
aI0
aI10
aI0
aI0
aI0
aI72
aI0
aI0
aI0
aI0
aI0
aI0
aI0
aI0
aI0
aI0
aI0
aI45
aI0
aI0
aI0
aI23
aI0
aI0
aI0
aI0
aI0
aI0
aI0
aI0
aI0
aI0
aI0
aI0
aI0
aI0
aI0
aI0
aI0
aI0
aI0
aI0
aI0
aI0
aI0
aI0
aI0
aI0
aI0
aI0
aI0
aI0
aI0
aI0
aI0
aI0
aI0
aI0
aI0
aI0
aI0
aI0
aI0
aI0
aI0
aI0
aI0
aI0
aI0
aI43
aI0
aI0
aI0
aI0
aI0
aI0
aI0
aI0
aI0
aI0
aI0
aI38
aI0
aI0
aI0
aI3
aI0
aI0
aI0
aI0
aI0
aI0
aI0
aI0
aI0
aI0
aI0
aI0
aI0
aI0
aI0
aI0
aI0
aI0
aI0
aI0
aI0
aI0
aI0
aa(lp7
F-287.7941000797763
aF19.129160555380285
aF28.499481332391827
aF11175.485410465852
aF663.5182961749298
aF515.9696133193245
aF0.021443982711201712
aF0.021443982711201712
aF0.021443982711201712
aF0.021443982711201712
aF0.021443982711201712
aF0.021443982711201712
aF0.021443982711201712
aF0.021443982711201712
aF0.021443982711201712
aF0.021443982711201712
aI0
aI0
aI8
aI4
aI0
aI0
aI31
aI5
aI0
aI20
aI36
aI0
aI1
aI17
aI0
aI0
aI0
aI0
aI1
aI0
aI0
aI0
aI0
aI0
aI4
aI0
aI0
aI1
aI1
aI0
aI0
aI0
aI0
aI1
aI1
aI0
aI0
aI0
aI0
aI0
aI2
aI0
aI0
aI0
aI0
aI0
aI0
aI0
aI0
aI0
aI0
aI0
aI0
aI0
aI0
aI0
aI0
aI0
aI0
aI0
aI0
aI0
aI0
aI0
aI0
aI0
aI0
aI0
aI0
aI0
aI0
aI0
aI0
aI0
aI0
aI0
aI0
aI0
aI0
aI0
aI0
aI0
aI0
aI0
aI0
aI0
aI0
aI0
aI0
aI0
aI0
aI0
aI0
aI0
aI0
aI0
aI0
aI0
aI0
aI0
aI0
aI0
aI0
aI0
aI0
aI0
aI0
aI0
aI0
aI0
aI0
aI0
aI0
aI0
aI2
aI0
aI0
aI43
aI5
aI0
aI1
aI25
aI1
aI0
aI0
aI0
aI1
aI0
aI0
aI0
aI0
aI0
aI0
aI0
aI0
aI0
aI0
aI0
aI0
aI0
aI0
aI0
aI0
aI0
aI0
aI0
aI0
aI0
aI0
aI0
aI0
aI0
aI0
aI0
aI0
aI0
aI0
aI0
aI0
aI0
aI0
aI0
aI0
aI25
aI0
aI0
aI0
aI25
aI0
aI0
aI0
aI0
aI0
aI0
aI0
aI0
aI0
aI0
aI17
aI7
aI0
aI0
aI4
aI0
aI0
aI0
aI0
aI0
aI0
aI0
aI0
aI0
aI0
aI0
aI0
aI0
aI0
aI0
aI0
aI0
aI0
aI0
aI0
aI0
aI0
aI0
aI0
aI0
aI0
aI0
aI0
aI0
aI16
aI0
aI0
aI0
aI52
aI0
aI0
aI0
aI0
aI0
aI0
aI0
aI0
aI0
aI0
aI0
aI38
aI0
aI0
aI0
aI27
aI0
aI0
aI0
aI0
aI0
aI0
aI0
aI0
aI0
aI0
aI0
aI0
aI0
aI0
aI0
aI0
aI0
aI0
aI0
aI0
aI0
aI0
aI0
aI0
aI0
aI0
aI0
aI0
aI0
aI0
aI0
aI0
aI0
aI0
aI0
aI0
aI0
aI0
aI0
aI0
aI0
aI0
aI0
aI15
aI0
aI0
aI0
aI23
aI0
aI0
aI0
aI0
aI0
aI0
aI0
aI0
aI0
aI0
aI0
aI19
aI0
aI0
aI0
aI21
aI0
aI0
aI0
aI0
aI0
aI0
aI0
aI0
aI0
aI0
aI0
aI0
aI0
aI0
aI0
aI0
aI0
aI0
aI0
aI0
aI0
aI0
aI0
aa(lp8
F-335.8517921618103
aF54.714167499167154
aF46.247789889748866
aF9235.699194582827
aF674.6377694252647
aF254.98165453768286
aF0.003620991498201511
aF0.003620991498201511
aF0.003620991498201511
aF0.003620991498201511
aF0.003620991498201511
aF0.003620991498201511
aF0.003620991498201511
aF0.003620991498201511
aF0.003620991498201511
aF0.003620991498201511
aI0
aI0
aI2
aI1
aI0
aI0
aI35
aI0
aI0
aI9
aI22
aI0
aI1
aI27
aI1
aI0
aI0
aI0
aI2
aI0
aI0
aI0
aI0
aI2
aI2
aI0
aI0
aI0
aI1
aI0
aI0
aI0
aI0
aI0
aI0
aI0
aI0
aI0
aI0
aI0
aI0
aI0
aI0
aI0
aI0
aI0
aI0
aI0
aI0
aI0
aI0
aI0
aI0
aI0
aI0
aI0
aI0
aI0
aI0
aI0
aI0
aI0
aI0
aI0
aI0
aI0
aI0
aI0
aI0
aI0
aI0
aI0
aI0
aI0
aI0
aI0
aI0
aI0
aI0
aI0
aI0
aI0
aI0
aI0
aI0
aI0
aI0
aI0
aI0
aI0
aI0
aI0
aI0
aI0
aI0
aI0
aI0
aI0
aI0
aI0
aI1
aI0
aI0
aI0
aI1
aI0
aI0
aI0
aI0
aI0
aI0
aI0
aI0
aI0
aI2
aI0
aI2
aI24
aI3
aI0
aI2
aI24
aI0
aI0
aI0
aI0
aI0
aI0
aI0
aI0
aI0
aI0
aI0
aI0
aI0
aI0
aI0
aI0
aI0
aI0
aI0
aI0
aI0
aI0
aI0
aI0
aI0
aI0
aI0
aI0
aI0
aI0
aI0
aI0
aI0
aI0
aI0
aI0
aI0
aI0
aI0
aI0
aI2
aI40
aI0
aI0
aI0
aI0
aI0
aI0
aI0
aI0
aI0
aI0
aI0
aI0
aI0
aI0
aI1
aI8
aI0
aI0
aI0
aI8
aI0
aI0
aI0
aI0
aI0
aI0
aI0
aI0
aI0
aI0
aI0
aI0
aI0
aI0
aI0
aI0
aI0
aI0
aI0
aI0
aI0
aI0
aI0
aI0
aI0
aI0
aI0
aI0
aI5
aI0
aI0
aI0
aI48
aI0
aI0
aI0
aI0
aI0
aI0
aI0
aI0
aI0
aI0
aI0
aI34
aI0
aI0
aI0
aI18
aI0
aI0
aI0
aI0
aI0
aI0
aI0
aI0
aI0
aI0
aI0
aI0
aI0
aI0
aI0
aI0
aI0
aI0
aI0
aI0
aI0
aI0
aI0
aI0
aI0
aI0
aI0
aI0
aI0
aI0
aI0
aI0
aI0
aI0
aI0
aI0
aI0
aI0
aI0
aI0
aI0
aI0
aI0
aI9
aI0
aI0
aI0
aI20
aI0
aI0
aI0
aI0
aI0
aI0
aI0
aI0
aI0
aI0
aI0
aI25
aI0
aI0
aI0
aI5
aI0
aI0
aI0
aI0
aI0
aI0
aI0
aI0
aI0
aI0
aI0
aI0
aI0
aI0
aI0
aI0
aI0
aI0
aI0
aI0
aI0
aI0
aI0
aa(lp9
F-239.80198722927543
aF28.389308627886425
aF15.171367010100232
aF10701.71372534804
aF984.0072637366873
aF226.37536447616492
aF0.04762535198749509
aF0.04762535198749509
aF0.04762535198749509
aF0.04762535198749509
aF0.04762535198749509
aF0.04762535198749509
aF0.04762535198749509
aF0.04762535198749509
aF0.04762535198749509
aF0.04762535198749509
aI0
aI0
aI6
aI1
aI0
aI4
aI45
aI1
aI0
aI25
aI18
aI0
aI0
aI17
aI7
aI0
aI0
aI0
aI3
aI0
aI0
aI0
aI0
aI0
aI0
aI0
aI0
aI0
aI0
aI9
aI0
aI0
aI0
aI1
aI0
aI0
aI0
aI0
aI0
aI0
aI3
aI0
aI0
aI0
aI3
aI5
aI0
aI0
aI0
aI0
aI0
aI0
aI0
aI0
aI0
aI0
aI0
aI0
aI0
aI0
aI1
aI0
aI0
aI0
aI0
aI0
aI0
aI0
aI0
aI0
aI0
aI0
aI0
aI0
aI0
aI0
aI0
aI0
aI1
aI1
aI0
aI0
aI0
aI0
aI0
aI0
aI0
aI0
aI2
aI0
aI0
aI0
aI0
aI0
aI0
aI0
aI1
aI0
aI0
aI0
aI3
aI0
aI0
aI1
aI4
aI0
aI0
aI0
aI1
aI1
aI1
aI0
aI0
aI0
aI1
aI0
aI5
aI47
aI17
aI2
aI3
aI43
aI7
aI1
aI2
aI2
aI0
aI0
aI0
aI0
aI0
aI0
aI0
aI0
aI0
aI0
aI0
aI0
aI0
aI0
aI0
aI0
aI0
aI0
aI0
aI0
aI6
aI10
aI0
aI0
aI0
aI19
aI0
aI0
aI0
aI0
aI0
aI0
aI0
aI0
aI0
aI0
aI6
aI17
aI0
aI0
aI0
aI76
aI0
aI0
aI0
aI0
aI0
aI0
aI0
aI0
aI0
aI0
aI2
aI10
aI0
aI0
aI0
aI0
aI0
aI0
aI0
aI0
aI0
aI0
aI0
aI0
aI0
aI0
aI0
aI0
aI0
aI0
aI0
aI0
aI0
aI0
aI0
aI0
aI0
aI0
aI0
aI0
aI0
aI0
aI0
aI0
aI9
aI0
aI0
aI0
aI66
aI0
aI0
aI0
aI0
aI0
aI0
aI0
aI0
aI0
aI0
aI0
aI47
aI0
aI0
aI0
aI27
aI0
aI0
aI0
aI0
aI0
aI0
aI0
aI0
aI0
aI0
aI0
aI0
aI0
aI0
aI0
aI0
aI0
aI0
aI0
aI0
aI0
aI0
aI0
aI0
aI0
aI0
aI0
aI0
aI0
aI0
aI0
aI0
aI0
aI0
aI0
aI0
aI0
aI0
aI0
aI0
aI0
aI0
aI0
aI39
aI0
aI0
aI0
aI34
aI0
aI0
aI0
aI0
aI0
aI0
aI0
aI0
aI0
aI0
aI0
aI29
aI0
aI0
aI0
aI44
aI0
aI0
aI0
aI0
aI0
aI0
aI0
aI0
aI0
aI0
aI0
aI0
aI0
aI0
aI0
aI0
aI0
aI0
aI0
aI0
aI0
aI0
aI0
aa(lp10
F-269.2093962224383
aF33.035291011320474
aF14.399485791708448
aF9893.40993323022
aF570.8639745865453
aF666.5600309008313
aF0.011170382444003502
aF0.011170382444003502
aF0.011170382444003502
aF0.011170382444003502
aF0.011170382444003502
aF0.011170382444003502
aF0.011170382444003502
aF0.011170382444003502
aF0.011170382444003502
aF0.011170382444003502
aI0
aI0
aI3
aI1
aI0
aI0
aI31
aI1
aI0
aI14
aI46
aI0
aI1
aI11
aI2
aI0
aI0
aI0
aI4
aI0
aI0
aI0
aI0
aI3
aI3
aI0
aI0
aI2
aI3
aI0
aI0
aI0
aI0
aI0
aI1
aI1
aI1
aI0
aI0
aI0
aI0
aI0
aI0
aI1
aI0
aI0
aI0
aI1
aI0
aI0
aI0
aI0
aI0
aI0
aI0
aI0
aI0
aI0
aI0
aI0
aI0
aI0
aI0
aI0
aI0
aI0
aI0
aI0
aI2
aI0
aI0
aI0
aI1
aI0
aI0
aI0
aI0
aI0
aI0
aI0
aI0
aI0
aI0
aI0
aI1
aI0
aI0
aI0
aI2
aI0
aI0
aI0
aI3
aI2
aI0
aI0
aI0
aI0
aI1
aI1
aI1
aI0
aI0
aI0
aI4
aI0
aI0
aI0
aI1
aI2
aI1
aI0
aI1
aI1
aI4
aI0
aI2
aI39
aI24
aI1
aI6
aI23
aI10
aI0
aI3
aI5
aI3
aI0
aI0
aI0
aI0
aI0
aI0
aI0
aI0
aI0
aI0
aI0
aI0
aI0
aI0
aI0
aI0
aI0
aI0
aI0
aI0
aI8
aI0
aI0
aI0
aI15
aI0
aI0
aI0
aI0
aI0
aI0
aI0
aI0
aI0
aI0
aI10
aI23
aI0
aI0
aI0
aI88
aI0
aI0
aI0
aI0
aI0
aI0
aI0
aI0
aI0
aI0
aI0
aI0
aI0
aI0
aI0
aI0
aI0
aI0
aI0
aI0
aI0
aI0
aI0
aI0
aI0
aI0
aI0
aI0
aI0
aI0
aI0
aI0
aI0
aI0
aI0
aI0
aI0
aI0
aI0
aI0
aI0
aI0
aI0
aI0
aI13
aI0
aI0
aI0
aI56
aI0
aI0
aI0
aI0
aI0
aI0
aI0
aI0
aI0
aI0
aI0
aI26
aI0
aI0
aI0
aI35
aI0
aI0
aI0
aI0
aI0
aI0
aI0
aI0
aI0
aI0
aI0
aI0
aI0
aI0
aI0
aI0
aI0
aI0
aI0
aI0
aI0
aI0
aI0
aI0
aI0
aI0
aI0
aI0
aI0
aI0
aI0
aI0
aI0
aI0
aI0
aI0
aI0
aI0
aI0
aI0
aI0
aI0
aI0
aI45
aI0
aI0
aI0
aI33
aI0
aI0
aI0
aI0
aI0
aI0
aI0
aI0
aI0
aI0
aI0
aI16
aI0
aI0
aI0
aI50
aI0
aI0
aI0
aI0
aI0
aI0
aI0
aI0
aI0
aI0
aI0
aI0
aI0
aI0
aI0
aI0
aI0
aI0
aI0
aI0
aI0
aI0
aI0
aa(lp11
F-269.315494247165
aF-21.811898394241776
aF55.0156759412973
aF8001.356922279169
aF920.94916699585
aF887.9211649270445
aF0.46932083512124084
aF0.46932083512124084
aF0.46932083512124084
aF0.46932083512124084
aF0.46932083512124084
aF0.46932083512124084
aF0.46932083512124084
aF0.46932083512124084
aF0.46932083512124084
aF0.46932083512124084
aI0
aI0
aI14
aI2
aI0
aI2
aI36
aI0
aI1
aI38
aI11
aI0
aI0
aI3
aI0
aI0
aI0
aI0
aI2
aI3
aI0
aI0
aI0
aI1
aI0
aI0
aI0
aI2
aI0
aI0
aI0
aI2
aI0
aI0
aI3
aI0
aI0
aI0
aI0
aI0
aI0
aI0
aI0
aI1
aI0
aI0
aI0
aI0
aI0
aI0
aI0
aI0
aI0
aI0
aI0
aI0
aI0
aI0
aI0
aI0
aI0
aI0
aI0
aI0
aI0
aI0
aI0
aI0
aI0
aI0
aI0
aI0
aI0
aI0
aI0
aI0
aI0
aI1
aI0
aI0
aI0
aI0
aI0
aI0
aI2
aI0
aI0
aI0
aI2
aI0
aI0
aI0
aI0
aI0
aI0
aI0
aI0
aI0
aI1
aI1
aI0
aI0
aI0
aI0
aI4
aI0
aI0
aI0
aI0
aI0
aI1
aI1
aI0
aI2
aI1
aI0
aI3
aI27
aI27
aI2
aI6
aI35
aI13
aI0
aI0
aI2
aI2
aI0
aI0
aI0
aI0
aI0
aI0
aI0
aI0
aI0
aI0
aI0
aI0
aI0
aI0
aI0
aI0
aI0
aI0
aI0
aI0
aI0
aI0
aI0
aI0
aI28
aI0
aI0
aI0
aI0
aI0
aI0
aI0
aI0
aI0
aI0
aI0
aI9
aI0
aI0
aI0
aI96
aI0
aI0
aI0
aI0
aI0
aI0
aI0
aI0
aI0
aI0
aI0
aI0
aI0
aI0
aI0
aI0
aI0
aI0
aI0
aI0
aI0
aI0
aI0
aI0
aI0
aI0
aI0
aI0
aI0
aI0
aI0
aI0
aI0
aI0
aI0
aI0
aI0
aI0
aI0
aI0
aI0
aI0
aI0
aI0
aI29
aI0
aI0
aI0
aI32
aI0
aI0
aI0
aI0
aI0
aI0
aI0
aI0
aI0
aI0
aI0
aI12
aI0
aI0
aI0
aI48
aI0
aI0
aI0
aI0
aI0
aI0
aI0
aI0
aI0
aI0
aI0
aI0
aI0
aI0
aI0
aI0
aI0
aI0
aI0
aI0
aI0
aI0
aI0
aI0
aI0
aI0
aI0
aI0
aI0
aI0
aI0
aI0
aI0
aI0
aI0
aI0
aI0
aI0
aI0
aI0
aI0
aI0
aI0
aI43
aI0
aI0
aI0
aI26
aI0
aI0
aI0
aI0
aI0
aI0
aI0
aI0
aI0
aI0
aI0
aI19
aI0
aI0
aI0
aI45
aI0
aI0
aI0
aI0
aI0
aI0
aI0
aI0
aI0
aI0
aI0
aI0
aI0
aI0
aI0
aI0
aI0
aI0
aI0
aI0
aI0
aI0
aI0
aa(lp12
F-258.9163894664609
aF41.193188702464994
aF-9.019570304821341
aF10746.465950858512
aF895.5894874705942
aF387.9551457351318
aF0.06776036154587124
aF0.06776036154587124
aF0.06776036154587124
aF0.06776036154587124
aF0.06776036154587124
aF0.06776036154587124
aF0.06776036154587124
aF0.06776036154587124
aF0.06776036154587124
aF0.06776036154587124
aI0
aI0
aI4
aI1
aI0
aI0
aI27
aI3
aI0
aI25
aI45
aI0
aI1
aI21
aI0
aI0
aI0
aI0
aI3
aI4
aI1
aI0
aI0
aI1
aI6
aI0
aI0
aI0
aI1
aI0
aI0
aI0
aI0
aI0
aI0
aI0
aI1
aI0
aI0
aI0
aI0
aI0
aI0
aI1
aI0
aI0
aI0
aI0
aI0
aI0
aI0
aI0
aI0
aI0
aI0
aI0
aI0
aI0
aI0
aI0
aI0
aI0
aI0
aI0
aI0
aI0
aI0
aI0
aI0
aI0
aI0
aI0
aI0
aI0
aI0
aI0
aI0
aI0
aI0
aI0
aI0
aI0
aI0
aI0
aI0
aI0
aI0
aI0
aI2
aI0
aI0
aI0
aI1
aI0
aI0
aI0
aI1
aI0
aI0
aI0
aI2
aI0
aI0
aI0
aI6
aI0
aI0
aI0
aI0
aI0
aI0
aI0
aI1
aI0
aI4
aI0
aI5
aI51
aI14
aI4
aI9
aI12
aI6
aI2
aI0
aI1
aI1
aI0
aI0
aI0
aI0
aI0
aI0
aI0
aI0
aI0
aI0
aI0
aI0
aI0
aI0
aI0
aI0
aI0
aI0
aI0
aI0
aI0
aI0
aI0
aI0
aI16
aI0
aI0
aI0
aI0
aI0
aI0
aI0
aI0
aI0
aI0
aI0
aI0
aI0
aI0
aI0
aI100
aI0
aI0
aI0
aI6
aI0
aI0
aI0
aI0
aI0
aI0
aI0
aI0
aI0
aI0
aI0
aI0
aI0
aI0
aI0
aI0
aI0
aI0
aI0
aI0
aI0
aI0
aI0
aI0
aI0
aI0
aI0
aI0
aI0
aI0
aI0
aI0
aI0
aI0
aI0
aI0
aI0
aI0
aI0
aI0
aI8
aI0
aI0
aI0
aI69
aI0
aI0
aI0
aI0
aI0
aI0
aI0
aI0
aI0
aI0
aI0
aI46
aI0
aI0
aI0
aI22
aI0
aI0
aI0
aI0
aI0
aI0
aI0
aI0
aI0
aI0
aI0
aI0
aI0
aI0
aI0
aI0
aI0
aI0
aI0
aI0
aI0
aI0
aI0
aI0
aI0
aI0
aI0
aI0
aI0
aI0
aI0
aI0
aI0
aI0
aI0
aI0
aI0
aI0
aI0
aI0
aI0
aI0
aI0
aI0
aI0
aI0
aI0
aI65
aI0
aI0
aI0
aI0
aI0
aI0
aI0
aI0
aI0
aI0
aI0
aI39
aI0
aI0
aI0
aI18
aI0
aI0
aI0
aI0
aI0
aI0
aI0
aI0
aI0
aI0
aI0
aI0
aI0
aI0
aI0
aI0
aI0
aI0
aI0
aI0
aI0
aI0
aI0
aa(lp13
F-186.7798384039533
aF26.89654166699748
aF-2.0895754629340835
aF16005.051664084196
aF1601.8397440118738
aF818.3848434777401
aF0.0940702248132314
aF0.0940702248132314
aF0.0940702248132314
aF0.0940702248132314
aF0.0940702248132314
aF0.0940702248132314
aF0.0940702248132314
aF0.0940702248132314
aF0.0940702248132314
aF0.0940702248132314
aI0
aI0
aI1
aI6
aI2
aI8
aI44
aI15
aI0
aI37
aI44
aI0
aI0
aI24
aI2
aI0
aI0
aI0
aI4
aI3
aI3
aI0
aI0
aI1
aI3
aI0
aI0
aI0
aI2
aI1
aI0
aI0
aI0
aI1
aI0
aI0
aI3
aI0
aI0
aI0
aI13
aI0
aI0
aI1
aI1
aI0
aI0
aI0
aI0
aI0
aI0
aI0
aI0
aI0
aI0
aI0
aI0
aI5
aI0
aI0
aI0
aI0
aI0
aI0
aI0
aI1
aI0
aI0
aI2
aI0
aI0
aI0
aI2
aI2
aI1
aI0
aI0
aI0
aI2
aI2
aI0
aI0
aI0
aI1
aI1
aI0
aI0
aI0
aI0
aI0
aI0
aI1
aI1
aI0
aI0
aI0
aI1
aI1
aI0
aI0
aI5
aI0
aI0
aI2
aI7
aI0
aI0
aI0
aI1
aI0
aI0
aI1
aI0
aI5
aI0
aI0
aI12
aI57
aI18
aI1
aI9
aI28
aI8
aI3
aI2
aI3
aI4
aI0
aI0
aI0
aI0
aI0
aI0
aI0
aI0
aI0
aI0
aI0
aI0
aI0
aI0
aI0
aI0
aI0
aI0
aI0
aI0
aI13
aI0
aI0
aI0
aI20
aI0
aI0
aI0
aI0
aI0
aI0
aI0
aI0
aI0
aI0
aI0
aI11
aI0
aI0
aI0
aI126
aI0
aI0
aI0
aI0
aI0
aI0
aI0
aI0
aI0
aI0
aI0
aI0
aI0
aI0
aI0
aI14
aI0
aI0
aI0
aI0
aI0
aI0
aI0
aI0
aI0
aI0
aI0
aI0
aI0
aI0
aI0
aI0
aI0
aI0
aI0
aI0
aI0
aI0
aI0
aI0
aI0
aI0
aI0
aI0
aI9
aI0
aI0
aI0
aI107
aI0
aI0
aI0
aI0
aI0
aI0
aI0
aI0
aI0
aI0
aI0
aI77
aI0
aI0
aI0
aI31
aI0
aI0
aI0
aI0
aI0
aI0
aI0
aI0
aI0
aI0
aI0
aI0
aI0
aI0
aI0
aI0
aI0
aI0
aI0
aI0
aI0
aI0
aI0
aI0
aI0
aI0
aI0
aI0
aI0
aI0
aI0
aI0
aI0
aI0
aI0
aI0
aI0
aI0
aI0
aI0
aI0
aI0
aI0
aI56
aI0
aI0
aI0
aI41
aI0
aI0
aI0
aI0
aI0
aI0
aI0
aI0
aI0
aI0
aI0
aI28
aI0
aI0
aI0
aI59
aI0
aI0
aI0
aI0
aI0
aI0
aI0
aI0
aI0
aI0
aI0
aI0
aI0
aI0
aI0
aI0
aI0
aI0
aI0
aI0
aI0
aI0
aI0
aa(lp14
F-244.11023923067683
aF27.69026720419478
aF8.499715740024538
aF16735.013185191514
aF1454.6015535913295
aF901.7801306581027
aF0.035682058853201006
aF0.035682058853201006
aF0.035682058853201006
aF0.035682058853201006
aF0.035682058853201006
aF0.035682058853201006
aF0.035682058853201006
aF0.035682058853201006
aF0.035682058853201006
aF0.035682058853201006
aI0
aI0
aI10
aI4
aI0
aI0
aI37
aI10
aI0
aI26
aI35
aI0
aI3
aI18
aI2
aI0
aI0
aI0
aI4
aI6
aI0
aI0
aI0
aI1
aI3
aI0
aI0
aI0
aI2
aI3
aI0
aI0
aI0
aI0
aI0
aI0
aI0
aI0
aI0
aI1
aI11
aI0
aI0
aI1
aI1
aI0
aI0
aI0
aI0
aI0
aI0
aI0
aI0
aI0
aI0
aI0
aI0
aI0
aI0
aI0
aI0
aI0
aI0
aI0
aI0
aI2
aI0
aI0
aI0
aI0
aI0
aI0
aI0
aI2
aI0
aI0
aI0
aI0
aI0
aI0
aI0
aI0
aI0
aI0
aI0
aI0
aI0
aI0
aI1
aI0
aI0
aI0
aI0
aI1
aI0
aI0
aI0
aI0
aI0
aI0
aI0
aI0
aI0
aI0
aI2
aI0
aI0
aI0
aI2
aI1
aI0
aI0
aI0
aI2
aI0
aI0
aI3
aI52
aI20
aI3
aI13
aI34
aI12
aI2
aI1
aI3
aI2
aI0
aI0
aI0
aI0
aI0
aI0
aI0
aI0
aI0
aI0
aI0
aI0
aI0
aI0
aI0
aI0
aI0
aI0
aI0
aI0
aI0
aI0
aI0
aI0
aI23
aI0
aI0
aI0
aI0
aI0
aI0
aI0
aI0
aI0
aI3
aI0
aI0
aI0
aI0
aI0
aI107
aI0
aI0
aI0
aI0
aI0
aI0
aI0
aI0
aI0
aI0
aI6
aI0
aI0
aI0
aI0
aI19
aI0
aI0
aI0
aI0
aI0
aI0
aI0
aI0
aI0
aI0
aI0
aI0
aI0
aI0
aI0
aI0
aI0
aI0
aI0
aI0
aI0
aI0
aI0
aI0
aI0
aI0
aI0
aI0
aI26
aI0
aI0
aI0
aI68
aI0
aI0
aI0
aI0
aI0
aI0
aI0
aI0
aI0
aI0
aI0
aI46
aI0
aI0
aI0
aI38
aI0
aI0
aI0
aI0
aI0
aI0
aI0
aI0
aI0
aI0
aI0
aI0
aI0
aI0
aI0
aI0
aI0
aI0
aI0
aI0
aI0
aI0
aI0
aI0
aI0
aI0
aI0
aI0
aI0
aI0
aI0
aI0
aI0
aI0
aI0
aI0
aI0
aI0
aI0
aI0
aI0
aI0
aI0
aI51
aI0
aI0
aI0
aI32
aI0
aI0
aI0
aI0
aI0
aI0
aI0
aI0
aI0
aI0
aI0
aI29
aI0
aI0
aI0
aI46
aI0
aI0
aI0
aI0
aI0
aI0
aI0
aI0
aI0
aI0
aI0
aI0
aI0
aI0
aI0
aI0
aI0
aI0
aI0
aI0
aI0
aI0
aI0
aa(lp15
F-252.57168638242447
aF19.946791045665663
aF12.03288117254073
aF13156.246737852627
aF1004.8655271548824
aF685.6882006325785
aF0.030475117103300888
aF0.030475117103300888
aF0.030475117103300888
aF0.030475117103300888
aF0.030475117103300888
aF0.030475117103300888
aF0.030475117103300888
aF0.030475117103300888
aF0.030475117103300888
aF0.030475117103300888
aI0
aI0
aI2
aI2
aI0
aI0
aI40
aI15
aI0
aI20
aI48
aI0
aI2
aI20
aI0
aI0
aI0
aI0
aI5
aI6
aI0
aI0
aI0
aI0
aI2
aI0
aI0
aI0
aI1
aI0
aI0
aI0
aI0
aI0
aI2
aI0
aI0
aI0
aI0
aI0
aI5
aI0
aI0
aI0
aI0
aI0
aI0
aI0
aI0
aI0
aI0
aI0
aI0
aI0
aI0
aI0
aI0
aI0
aI0
aI0
aI0
aI0
aI0
aI0
aI0
aI0
aI0
aI0
aI0
aI0
aI1
aI0
aI0
aI4
aI0
aI0
aI0
aI0
aI0
aI0
aI0
aI0
aI0
aI0
aI1
aI0
aI0
aI0
aI0
aI0
aI0
aI0
aI0
aI0
aI0
aI0
aI0
aI0
aI0
aI0
aI1
aI0
aI0
aI0
aI1
aI0
aI0
aI1
aI0
aI1
aI0
aI0
aI0
aI8
aI1
aI0
aI5
aI58
aI19
aI0
aI20
aI30
aI8
aI1
aI1
aI3
aI1
aI0
aI0
aI0
aI0
aI0
aI0
aI0
aI0
aI0
aI0
aI0
aI0
aI0
aI0
aI0
aI0
aI0
aI0
aI0
aI0
aI0
aI0
aI0
aI0
aI19
aI0
aI0
aI0
aI0
aI0
aI0
aI0
aI0
aI0
aI0
aI0
aI6
aI0
aI0
aI0
aI126
aI0
aI0
aI0
aI2
aI0
aI0
aI0
aI0
aI0
aI0
aI0
aI1
aI0
aI0
aI0
aI11
aI0
aI0
aI0
aI0
aI0
aI0
aI0
aI0
aI0
aI0
aI0
aI0
aI0
aI0
aI0
aI0
aI0
aI0
aI0
aI0
aI0
aI0
aI0
aI0
aI0
aI0
aI0
aI0
aI17
aI0
aI0
aI0
aI75
aI0
aI0
aI0
aI0
aI0
aI0
aI0
aI0
aI0
aI0
aI0
aI44
aI0
aI0
aI0
aI34
aI0
aI0
aI0
aI0
aI0
aI0
aI0
aI0
aI0
aI0
aI0
aI0
aI0
aI0
aI0
aI0
aI0
aI0
aI0
aI0
aI0
aI0
aI0
aI0
aI0
aI0
aI0
aI0
aI0
aI0
aI0
aI0
aI0
aI0
aI0
aI0
aI0
aI0
aI0
aI0
aI0
aI0
aI0
aI38
aI0
aI0
aI0
aI49
aI0
aI0
aI0
aI0
aI0
aI0
aI0
aI0
aI0
aI0
aI0
aI36
aI0
aI0
aI0
aI42
aI0
aI0
aI0
aI0
aI0
aI0
aI0
aI0
aI0
aI0
aI0
aI0
aI0
aI0
aI0
aI0
aI0
aI0
aI0
aI0
aI0
aI0
aI0
aa(lp16
F-271.6258511170501
aF63.25867845121388
aF11.061605951493895
aF10692.52320537594
aF1339.838535646909
aF542.3386642469281
aF7.663644985309636e-05
aF7.663644985309636e-05
aF7.663644985309636e-05
aF7.663644985309636e-05
aF7.663644985309636e-05
aF7.663644985309636e-05
aF7.663644985309636e-05
aF7.663644985309636e-05
aF7.663644985309636e-05
aF7.663644985309636e-05
aI0
aI0
aI3
aI2
aI0
aI0
aI10
aI6
aI0
aI15
aI44
aI1
aI0
aI26
aI0
aI0
aI0
aI0
aI3
aI4
aI0
aI0
aI0
aI2
aI0
aI0
aI0
aI0
aI4
aI2
aI0
aI0
aI0
aI0
aI1
aI0
aI1
aI0
aI0
aI0
aI5
aI0
aI0
aI1
aI0
aI0
aI0
aI0
aI0
aI0
aI0
aI0
aI0
aI0
aI0
aI0
aI0
aI0
aI0
aI0
aI0
aI0
aI0
aI0
aI0
aI0
aI0
aI0
aI1
aI0
aI0
aI0
aI3
aI0
aI0
aI0
aI0
aI0
aI0
aI0
aI0
aI0
aI0
aI0
aI2
aI0
aI0
aI0
aI3
aI0
aI0
aI0
aI0
aI0
aI0
aI0
aI0
aI1
aI0
aI0
aI4
aI0
aI0
aI0
aI7
aI0
aI0
aI0
aI1
aI0
aI0
aI1
aI0
aI9
aI1
aI0
aI4
aI50
aI8
aI2
aI8
aI11
aI7
aI2
aI0
aI1
aI0
aI0
aI0
aI0
aI0
aI0
aI0
aI0
aI0
aI0
aI0
aI0
aI0
aI0
aI0
aI0
aI0
aI0
aI0
aI0
aI0
aI0
aI0
aI0
aI0
aI23
aI0
aI0
aI0
aI0
aI0
aI0
aI0
aI0
aI0
aI0
aI0
aI0
aI0
aI0
aI0
aI95
aI0
aI0
aI0
aI2
aI0
aI0
aI0
aI0
aI0
aI0
aI0
aI0
aI0
aI0
aI0
aI6
aI0
aI0
aI0
aI0
aI0
aI0
aI0
aI0
aI0
aI0
aI0
aI0
aI0
aI0
aI0
aI0
aI0
aI0
aI0
aI0
aI0
aI0
aI0
aI0
aI0
aI0
aI0
aI0
aI7
aI0
aI0
aI0
aI58
aI0
aI0
aI0
aI0
aI0
aI0
aI0
aI0
aI0
aI0
aI0
aI44
aI0
aI0
aI0
aI21
aI0
aI0
aI0
aI0
aI0
aI0
aI0
aI0
aI0
aI0
aI0
aI0
aI0
aI0
aI0
aI0
aI0
aI0
aI0
aI0
aI0
aI0
aI0
aI0
aI0
aI0
aI0
aI0
aI0
aI0
aI0
aI0
aI0
aI0
aI0
aI0
aI0
aI0
aI0
aI0
aI0
aI0
aI0
aI19
aI0
aI0
aI0
aI47
aI0
aI0
aI0
aI0
aI0
aI0
aI0
aI0
aI0
aI0
aI0
aI35
aI0
aI0
aI0
aI25
aI0
aI0
aI0
aI0
aI0
aI0
aI0
aI0
aI0
aI0
aI0
aI0
aI0
aI0
aI0
aI0
aI0
aI0
aI0
aI0
aI0
aI0
aI0
aa(lp17
F-261.3336468118908
aF33.40401797098947
aF39.85145674850491
aF16986.771185399022
aF803.7739589148819
aF1115.773918587694
aF0.056133535053924016
aF0.056133535053924016
aF0.056133535053924016
aF0.056133535053924016
aF0.056133535053924016
aF0.056133535053924016
aF0.056133535053924016
aF0.056133535053924016
aF0.056133535053924016
aF0.056133535053924016
aI0
aI0
aI2
aI1
aI1
aI3
aI22
aI39
aI11
aI50
aI28
aI5
aI1
aI5
aI3
aI0
aI0
aI0
aI0
aI6
aI0
aI0
aI0
aI2
aI1
aI0
aI0
aI0
aI0
aI0
aI0
aI0
aI0
aI0
aI0
aI0
aI0
aI0
aI0
aI0
aI0
aI0
aI0
aI0
aI0
aI0
aI0
aI0
aI0
aI0
aI0
aI0
aI0
aI0
aI0
aI0
aI0
aI0
aI0
aI0
aI0
aI0
aI0
aI0
aI0
aI0
aI0
aI0
aI0
aI0
aI0
aI0
aI0
aI1
aI0
aI0
aI0
aI1
aI0
aI0
aI0
aI0
aI0
aI0
aI0
aI0
aI0
aI0
aI0
aI0
aI0
aI0
aI0
aI0
aI0
aI0
aI0
aI0
aI0
aI1
aI0
aI0
aI0
aI0
aI1
aI0
aI0
aI0
aI0
aI0
aI0
aI0
aI0
aI3
aI3
aI0
aI18
aI58
aI23
aI1
aI14
aI20
aI6
aI0
aI1
aI2
aI0
aI0
aI0
aI0
aI0
aI0
aI0
aI0
aI0
aI0
aI0
aI0
aI0
aI0
aI0
aI0
aI0
aI0
aI0
aI0
aI0
aI1
aI0
aI0
aI0
aI29
aI0
aI0
aI0
aI0
aI0
aI0
aI0
aI0
aI0
aI0
aI0
aI0
aI0
aI0
aI0
aI80
aI0
aI0
aI0
aI0
aI0
aI0
aI0
aI0
aI0
aI0
aI15
aI17
aI0
aI0
aI7
aI4
aI0
aI0
aI0
aI0
aI0
aI0
aI0
aI0
aI0
aI0
aI0
aI0
aI0
aI0
aI0
aI0
aI0
aI0
aI0
aI0
aI0
aI0
aI0
aI0
aI0
aI0
aI0
aI0
aI5
aI0
aI0
aI0
aI89
aI0
aI0
aI0
aI0
aI0
aI0
aI0
aI0
aI0
aI0
aI0
aI60
aI0
aI0
aI0
aI26
aI0
aI0
aI0
aI0
aI0
aI0
aI0
aI0
aI0
aI0
aI0
aI0
aI0
aI0
aI0
aI0
aI0
aI0
aI0
aI0
aI0
aI0
aI0
aI0
aI0
aI0
aI0
aI0
aI0
aI0
aI0
aI0
aI0
aI0
aI0
aI0
aI0
aI0
aI0
aI0
aI0
aI0
aI0
aI0
aI0
aI0
aI0
aI78
aI0
aI0
aI0
aI0
aI0
aI0
aI0
aI0
aI0
aI0
aI0
aI44
aI0
aI0
aI0
aI31
aI0
aI0
aI0
aI0
aI0
aI0
aI0
aI0
aI0
aI0
aI0
aI0
aI0
aI0
aI0
aI0
aI0
aI0
aI0
aI0
aI0
aI0
aI0
aa(lp18
F-242.65975514981176
aF2.7520578209335396
aF81.08894819770762
aF16572.681348050708
aF451.1398056208837
aF1365.831507618887
aF0.19357214216079924
aF0.19357214216079924
aF0.19357214216079924
aF0.19357214216079924
aF0.19357214216079924
aF0.19357214216079924
aF0.19357214216079924
aF0.19357214216079924
aF0.19357214216079924
aF0.19357214216079924
aI0
aI0
aI3
aI3
aI0
aI1
aI28
aI12
aI0
aI23
aI27
aI3
aI0
aI10
aI0
aI1
aI1
aI2
aI1
aI1
aI0
aI0
aI0
aI2
aI0
aI0
aI0
aI0
aI0
aI1
aI1
aI1
aI0
aI2
aI0
aI1
aI0
aI0
aI0
aI0
aI0
aI0
aI0
aI1
aI1
aI5
aI9
aI2
aI1
aI1
aI0
aI0
aI0
aI1
aI0
aI0
aI0
aI1
aI2
aI4
aI1
aI2
aI2
aI1
aI0
aI0
aI0
aI0
aI0
aI0
aI0
aI0
aI0
aI0
aI0
aI0
aI0
aI0
aI0
aI0
aI0
aI0
aI0
aI0
aI0
aI0
aI0
aI0
aI0
aI0
aI0
aI0
aI0
aI0
aI0
aI0
aI0
aI0
aI1
aI0
aI0
aI0
aI0
aI0
aI0
aI0
aI0
aI0
aI0
aI0
aI0
aI0
aI0
aI0
aI1
aI0
aI0
aI30
aI6
aI0
aI0
aI8
aI0
aI0
aI0
aI0
aI0
aI0
aI0
aI0
aI0
aI0
aI0
aI0
aI0
aI0
aI0
aI0
aI0
aI0
aI0
aI0
aI0
aI0
aI0
aI0
aI0
aI0
aI0
aI0
aI0
aI0
aI0
aI0
aI0
aI0
aI0
aI0
aI0
aI0
aI0
aI0
aI15
aI22
aI0
aI0
aI0
aI0
aI0
aI0
aI0
aI0
aI0
aI0
aI0
aI0
aI0
aI0
aI9
aI0
aI0
aI0
aI0
aI0
aI0
aI0
aI0
aI0
aI0
aI0
aI0
aI0
aI0
aI0
aI0
aI0
aI0
aI0
aI0
aI0
aI0
aI0
aI0
aI0
aI0
aI0
aI0
aI0
aI0
aI0
aI0
aI0
aI19
aI0
aI0
aI0
aI53
aI0
aI0
aI0
aI0
aI0
aI0
aI0
aI0
aI0
aI0
aI0
aI59
aI0
aI0
aI0
aI27
aI0
aI0
aI0
aI0
aI0
aI0
aI0
aI0
aI0
aI0
aI0
aI0
aI0
aI0
aI0
aI0
aI0
aI0
aI0
aI0
aI0
aI0
aI0
aI0
aI0
aI0
aI0
aI0
aI0
aI0
aI0
aI0
aI0
aI0
aI0
aI0
aI0
aI0
aI0
aI0
aI0
aI0
aI0
aI2
aI0
aI0
aI0
aI21
aI0
aI0
aI0
aI0
aI0
aI0
aI0
aI0
aI0
aI0
aI0
aI23
aI0
aI0
aI0
aI0
aI0
aI0
aI0
aI0
aI0
aI0
aI0
aI0
aI0
aI0
aI0
aI0
aI0
aI0
aI0
aI0
aI0
aI0
aI0
aI0
aI0
aI0
aI0
aa(lp19
F-196.50161449928498
aF7.97402310586109
aF15.825874074476374
aF20128.04356605099
aF516.5685744890147
aF304.9382199595511
aF0.6245499302919493
aF0.6245499302919493
aF0.6245499302919493
aF0.6245499302919493
aF0.6245499302919493
aF0.6245499302919493
aF0.6245499302919493
aF0.6245499302919493
aF0.6245499302919493
aF0.6245499302919493
aI1
aI0
aI14
aI0
aI0
aI7
aI39
aI3
aI3
aI39
aI17
aI1
aI0
aI5
aI4
aI0
aI0
aI0
aI6
aI6
aI1
aI0
aI0
aI1
aI1
aI0
aI0
aI2
aI3
aI3
aI2
aI2
aI0
aI0
aI2
aI0
aI0
aI0
aI0
aI2
aI2
aI0
aI0
aI1
aI2
aI5
aI6
aI1
aI0
aI0
aI0
aI0
aI0
aI5
aI1
aI3
aI0
aI1
aI5
aI0
aI0
aI1
aI0
aI1
aI0
aI1
aI1
aI0
aI1
aI1
aI0
aI0
aI1
aI0
aI1
aI2
aI0
aI0
aI0
aI1
aI1
aI1
aI1
aI3
aI3
aI0
aI0
aI2
aI0
aI0
aI0
aI2
aI0
aI1
aI0
aI0
aI2
aI1
aI1
aI3
aI2
aI0
aI0
aI0
aI10
aI0
aI0
aI0
aI4
aI2
aI1
aI2
aI0
aI0
aI0
aI0
aI4
aI22
aI22
aI1
aI6
aI24
aI12
aI0
aI0
aI2
aI1
aI0
aI0
aI0
aI0
aI0
aI0
aI0
aI0
aI0
aI0
aI0
aI0
aI0
aI0
aI0
aI0
aI0
aI0
aI0
aI0
aI2
aI0
aI0
aI0
aI7
aI0
aI0
aI0
aI0
aI0
aI0
aI0
aI0
aI0
aI0
aI0
aI71
aI0
aI0
aI0
aI64
aI0
aI0
aI0
aI0
aI0
aI0
aI0
aI0
aI0
aI0
aI0
aI1
aI0
aI0
aI0
aI0
aI0
aI0
aI0
aI0
aI0
aI0
aI0
aI0
aI0
aI0
aI0
aI0
aI0
aI0
aI0
aI0
aI0
aI0
aI0
aI0
aI0
aI0
aI0
aI0
aI0
aI0
aI0
aI0
aI46
aI0
aI0
aI0
aI59
aI0
aI0
aI0
aI0
aI0
aI0
aI0
aI0
aI0
aI0
aI0
aI61
aI0
aI0
aI0
aI32
aI0
aI0
aI0
aI0
aI0
aI0
aI0
aI0
aI0
aI0
aI0
aI0
aI0
aI0
aI0
aI0
aI0
aI0
aI0
aI0
aI0
aI0
aI0
aI0
aI0
aI0
aI0
aI0
aI0
aI0
aI0
aI0
aI0
aI0
aI0
aI0
aI0
aI0
aI0
aI0
aI0
aI0
aI0
aI72
aI0
aI0
aI0
aI16
aI0
aI0
aI0
aI0
aI0
aI0
aI0
aI0
aI0
aI0
aI0
aI11
aI0
aI0
aI0
aI46
aI0
aI0
aI0
aI0
aI0
aI0
aI0
aI0
aI0
aI0
aI0
aI0
aI0
aI0
aI0
aI0
aI0
aI0
aI0
aI0
aI0
aI0
aI0
aa(lp20
F-288.106942502961
aF7.445430885767107
aF8.504673785232754
aF15559.098380110794
aF301.8621296882166
aF210.8851370686369
aF0.3109097993516505
aF0.3109097993516505
aF0.3109097993516505
aF0.3109097993516505
aF0.3109097993516505
aF0.3109097993516505
aF0.3109097993516505
aF0.3109097993516505
aF0.3109097993516505
aF0.3109097993516505
aI0
aI0
aI1
aI1
aI0
aI5
aI50
aI4
aI3
aI61
aI16
aI0
aI0
aI11
aI1
aI0
aI0
aI0
aI3
aI0
aI0
aI0
aI0
aI1
aI0
aI0
aI0
aI0
aI0
aI2
aI0
aI0
aI0
aI0
aI0
aI0
aI0
aI0
aI0
aI0
aI0
aI0
aI0
aI0
aI0
aI0
aI0
aI0
aI0
aI0
aI0
aI0
aI0
aI0
aI0
aI0
aI0
aI0
aI0
aI0
aI0
aI0
aI0
aI0
aI0
aI0
aI0
aI0
aI0
aI0
aI0
aI0
aI0
aI1
aI0
aI0
aI0
aI0
aI1
aI0
aI0
aI0
aI0
aI3
aI1
aI0
aI0
aI2
aI0
aI0
aI0
aI1
aI0
aI1
aI0
aI1
aI0
aI3
aI0
aI0
aI5
aI0
aI0
aI4
aI7
aI0
aI0
aI0
aI0
aI0
aI1
aI0
aI0
aI0
aI1
aI2
aI2
aI25
aI44
aI0
aI17
aI43
aI9
aI6
aI0
aI4
aI0
aI0
aI0
aI0
aI0
aI0
aI0
aI0
aI0
aI8
aI0
aI0
aI0
aI0
aI0
aI0
aI0
aI0
aI0
aI0
aI0
aI0
aI0
aI0
aI0
aI46
aI0
aI0
aI0
aI0
aI0
aI0
aI0
aI0
aI0
aI0
aI0
aI5
aI0
aI0
aI0
aI125
aI0
aI0
aI0
aI0
aI0
aI0
aI0
aI0
aI0
aI0
aI0
aI0
aI0
aI0
aI0
aI0
aI0
aI0
aI0
aI0
aI0
aI0
aI0
aI0
aI0
aI0
aI0
aI0
aI0
aI0
aI0
aI0
aI0
aI0
aI0
aI0
aI0
aI0
aI0
aI0
aI0
aI0
aI0
aI0
aI19
aI0
aI0
aI0
aI58
aI0
aI0
aI0
aI0
aI0
aI0
aI0
aI0
aI0
aI0
aI0
aI56
aI0
aI0
aI0
aI26
aI0
aI0
aI0
aI0
aI0
aI0
aI0
aI0
aI0
aI0
aI0
aI0
aI0
aI0
aI0
aI0
aI0
aI0
aI0
aI0
aI0
aI0
aI0
aI0
aI0
aI0
aI0
aI0
aI0
aI0
aI0
aI0
aI0
aI0
aI0
aI0
aI0
aI0
aI0
aI0
aI0
aI0
aI0
aI44
aI0
aI0
aI0
aI46
aI0
aI0
aI0
aI0
aI0
aI0
aI0
aI0
aI0
aI0
aI0
aI59
aI0
aI0
aI0
aI35
aI0
aI0
aI0
aI0
aI0
aI0
aI0
aI0
aI0
aI0
aI0
aI0
aI0
aI0
aI0
aI0
aI0
aI0
aI0
aI0
aI0
aI0
aI0
aa(lp21
F-228.6185598459971
aF1.0977623641503407
aF45.42474215208533
aF5283.026513192247
aF90.35269258037331
aF207.32081426957203
aF0.03282054535312318
aF0.03282054535312318
aF0.03282054535312318
aF0.03282054535312318
aF0.03282054535312318
aF0.03282054535312318
aF0.03282054535312318
aF0.03282054535312318
aF0.03282054535312318
aF0.03282054535312318
aI0
aI0
aI7
aI0
aI0
aI1
aI46
aI7
aI0
aI22
aI27
aI0
aI0
aI8
aI2
aI0
aI0
aI0
aI2
aI0
aI0
aI0
aI0
aI0
aI0
aI0
aI0
aI0
aI0
aI0
aI0
aI0
aI0
aI0
aI0
aI0
aI0
aI0
aI0
aI0
aI0
aI0
aI0
aI0
aI0
aI0
aI0
aI0
aI0
aI0
aI0
aI0
aI0
aI0
aI0
aI0
aI0
aI0
aI0
aI0
aI0
aI0
aI0
aI0
aI0
aI0
aI0
aI0
aI2
aI0
aI0
aI0
aI4
aI2
aI0
aI0
aI0
aI2
aI5
aI0
aI0
aI0
aI0
aI0
aI5
aI0
aI0
aI0
aI11
aI0
aI0
aI1
aI0
aI1
aI1
aI2
aI3
aI0
aI0
aI0
aI3
aI0
aI0
aI1
aI6
aI0
aI0
aI0
aI1
aI2
aI0
aI2
aI0
aI12
aI2
aI0
aI6
aI32
aI18
aI6
aI12
aI30
aI9
aI1
aI1
aI2
aI2
aI0
aI0
aI0
aI0
aI0
aI0
aI0
aI0
aI0
aI0
aI0
aI0
aI0
aI0
aI0
aI0
aI0
aI0
aI0
aI0
aI0
aI0
aI0
aI0
aI13
aI0
aI0
aI0
aI0
aI0
aI0
aI0
aI0
aI0
aI0
aI0
aI1
aI0
aI0
aI0
aI173
aI0
aI0
aI0
aI0
aI0
aI0
aI0
aI0
aI0
aI0
aI0
aI0
aI0
aI0
aI0
aI0
aI0
aI0
aI0
aI0
aI0
aI0
aI0
aI0
aI0
aI0
aI0
aI0
aI0
aI0
aI0
aI0
aI0
aI0
aI0
aI0
aI0
aI0
aI0
aI0
aI0
aI0
aI0
aI0
aI21
aI0
aI0
aI0
aI42
aI0
aI0
aI0
aI0
aI0
aI0
aI0
aI0
aI0
aI0
aI0
aI25
aI0
aI0
aI0
aI34
aI0
aI0
aI0
aI0
aI0
aI0
aI0
aI0
aI0
aI0
aI0
aI0
aI0
aI0
aI0
aI0
aI0
aI0
aI0
aI0
aI0
aI0
aI0
aI0
aI0
aI0
aI0
aI0
aI0
aI0
aI0
aI0
aI0
aI0
aI0
aI0
aI0
aI0
aI0
aI0
aI0
aI0
aI0
aI70
aI0
aI0
aI0
aI36
aI0
aI0
aI0
aI0
aI0
aI0
aI0
aI0
aI0
aI0
aI0
aI23
aI0
aI0
aI0
aI58
aI0
aI0
aI0
aI0
aI0
aI0
aI0
aI0
aI0
aI0
aI0
aI0
aI0
aI0
aI0
aI0
aI0
aI0
aI0
aI0
aI0
aI0
aI0
aa(lp22
F-201.19728491995602
aF26.006388478917668
aF14.679175071869059
aF9411.112741916704
aF666.0729774516506
aF210.8437953843021
aF0.20931056775273937
aF0.20931056775273937
aF0.20931056775273937
aF0.20931056775273937
aF0.20931056775273937
aF0.20931056775273937
aF0.20931056775273937
aF0.20931056775273937
aF0.20931056775273937
aF0.20931056775273937
aI0
aI0
aI9
aI2
aI0
aI9
aI44
aI4
aI3
aI19
aI23
aI2
aI7
aI35
aI3
aI0
aI0
aI0
aI0
aI4
aI0
aI0
aI0
aI0
aI0
aI0
aI0
aI0
aI4
aI6
aI0
aI0
aI0
aI0
aI0
aI0
aI0
aI0
aI0
aI2
aI0
aI0
aI0
aI0
aI0
aI0
aI0
aI0
aI0
aI0
aI0
aI0
aI0
aI0
aI0
aI0
aI0
aI0
aI0
aI0
aI0
aI0
aI0
aI0
aI0
aI0
aI0
aI0
aI2
aI0
aI0
aI0
aI1
aI0
aI0
aI0
aI0
aI1
aI0
aI0
aI0
aI0
aI0
aI0
aI0
aI0
aI0
aI1
aI4
aI0
aI0
aI1
aI3
aI0
aI1
aI0
aI0
aI0
aI3
aI1
aI3
aI0
aI0
aI0
aI4
aI0
aI0
aI0
aI1
aI1
aI2
aI2
aI1
aI4
aI5
aI0
aI9
aI37
aI17
aI9
aI15
aI28
aI20
aI0
aI0
aI4
aI5
aI0
aI0
aI0
aI0
aI0
aI0
aI0
aI0
aI0
aI0
aI0
aI0
aI0
aI0
aI0
aI0
aI0
aI0
aI0
aI0
aI11
aI0
aI0
aI0
aI36
aI0
aI0
aI0
aI0
aI0
aI0
aI0
aI0
aI0
aI0
aI0
aI8
aI0
aI0
aI0
aI130
aI0
aI0
aI0
aI0
aI0
aI0
aI0
aI0
aI0
aI0
aI0
aI0
aI0
aI0
aI0
aI0
aI0
aI0
aI0
aI0
aI0
aI0
aI0
aI0
aI0
aI0
aI0
aI0
aI0
aI0
aI0
aI0
aI0
aI0
aI0
aI0
aI0
aI0
aI0
aI0
aI0
aI0
aI0
aI0
aI14
aI0
aI0
aI0
aI69
aI0
aI0
aI0
aI0
aI0
aI0
aI0
aI0
aI0
aI0
aI0
aI55
aI0
aI0
aI0
aI38
aI0
aI0
aI0
aI0
aI0
aI0
aI0
aI0
aI0
aI0
aI0
aI0
aI0
aI0
aI0
aI0
aI0
aI0
aI0
aI0
aI0
aI0
aI0
aI0
aI0
aI0
aI0
aI0
aI0
aI0
aI0
aI0
aI0
aI0
aI0
aI0
aI0
aI0
aI0
aI0
aI0
aI0
aI0
aI53
aI0
aI0
aI0
aI43
aI0
aI0
aI0
aI0
aI0
aI0
aI0
aI0
aI0
aI0
aI0
aI38
aI0
aI0
aI0
aI51
aI0
aI0
aI0
aI0
aI0
aI0
aI0
aI0
aI0
aI0
aI0
aI0
aI0
aI0
aI0
aI0
aI0
aI0
aI0
aI0
aI0
aI0
aI0
aa(lp23
F-207.03620572465644
aF27.181766658779463
aF0.8942146180013862
aF10201.027170696994
aF844.1522353275061
aF295.2881779226727
aF0.1645727872826053
aF0.1645727872826053
aF0.1645727872826053
aF0.1645727872826053
aF0.1645727872826053
aF0.1645727872826053
aF0.1645727872826053
aF0.1645727872826053
aF0.1645727872826053
aF0.1645727872826053
aI0
aI0
aI5
aI6
aI0
aI7
aI42
aI1
aI3
aI42
aI16
aI1
aI0
aI18
aI0
aI0
aI0
aI0
aI0
aI4
aI0
aI0
aI0
aI0
aI0
aI0
aI0
aI0
aI0
aI3
aI0
aI0
aI0
aI0
aI0
aI0
aI0
aI0
aI0
aI0
aI0
aI0
aI0
aI0
aI5
aI10
aI0
aI0
aI0
aI0
aI0
aI0
aI0
aI0
aI0
aI0
aI0
aI0
aI0
aI0
aI1
aI2
aI0
aI0
aI0
aI0
aI0
aI0
aI0
aI0
aI0
aI0
aI2
aI1
aI0
aI0
aI0
aI0
aI2
aI0
aI0
aI0
aI0
aI0
aI0
aI0
aI0
aI0
aI5
aI0
aI0
aI3
aI1
aI0
aI3
aI2
aI3
aI0
aI0
aI3
aI1
aI0
aI0
aI1
aI3
aI0
aI0
aI5
aI2
aI0
aI0
aI1
aI1
aI2
aI5
aI1
aI6
aI25
aI32
aI6
aI6
aI32
aI16
aI3
aI1
aI1
aI1
aI1
aI0
aI0
aI0
aI0
aI0
aI0
aI0
aI0
aI0
aI0
aI0
aI0
aI0
aI0
aI0
aI0
aI0
aI0
aI0
aI0
aI0
aI0
aI0
aI37
aI0
aI0
aI0
aI0
aI0
aI0
aI0
aI0
aI0
aI0
aI0
aI0
aI0
aI0
aI0
aI84
aI0
aI0
aI0
aI55
aI0
aI0
aI0
aI0
aI0
aI0
aI0
aI0
aI0
aI0
aI0
aI0
aI0
aI0
aI0
aI1
aI0
aI0
aI0
aI0
aI0
aI0
aI0
aI0
aI0
aI0
aI0
aI0
aI0
aI0
aI0
aI0
aI0
aI0
aI0
aI0
aI0
aI0
aI0
aI0
aI16
aI0
aI0
aI0
aI63
aI0
aI0
aI0
aI0
aI0
aI0
aI0
aI0
aI0
aI0
aI0
aI58
aI0
aI0
aI0
aI29
aI0
aI0
aI0
aI0
aI0
aI0
aI0
aI0
aI0
aI0
aI0
aI0
aI0
aI0
aI0
aI0
aI0
aI0
aI0
aI0
aI0
aI0
aI0
aI0
aI0
aI0
aI0
aI0
aI0
aI0
aI0
aI0
aI0
aI0
aI0
aI0
aI0
aI0
aI0
aI0
aI0
aI0
aI0
aI54
aI0
aI0
aI0
aI41
aI0
aI0
aI0
aI0
aI0
aI0
aI0
aI0
aI0
aI0
aI0
aI41
aI0
aI0
aI0
aI41
aI0
aI0
aI0
aI0
aI0
aI0
aI0
aI0
aI0
aI0
aI0
aI0
aI0
aI0
aI0
aI0
aI0
aI0
aI0
aI0
aI0
aI0
aI0
aa(lp24
F-246.3217073588756
aF34.298124328453774
aF6.211889138873871
aF9925.97895279541
aF942.5340698710193
aF546.790714655313
aF0.2081106537327751
aF0.2081106537327751
aF0.2081106537327751
aF0.2081106537327751
aF0.2081106537327751
aF0.2081106537327751
aF0.2081106537327751
aF0.2081106537327751
aF0.2081106537327751
aF0.2081106537327751
aI0
aI0
aI7
aI2
aI0
aI0
aI25
aI1
aI1
aI39
aI24
aI0
aI2
aI17
aI0
aI0
aI0
aI0
aI2
aI6
aI0
aI0
aI0
aI0
aI1
aI0
aI0
aI0
aI5
aI6
aI0
aI0
aI0
aI0
aI0
aI0
aI0
aI0
aI0
aI3
aI1
aI0
aI0
aI1
aI0
aI0
aI0
aI0
aI0
aI0
aI0
aI0
aI0
aI0
aI0
aI0
aI0
aI0
aI0
aI0
aI0
aI0
aI0
aI0
aI0
aI0
aI0
aI0
aI0
aI0
aI0
aI0
aI2
aI0
aI0
aI0
aI0
aI0
aI1
aI0
aI0
aI0
aI0
aI0
aI2
aI0
aI0
aI1
aI2
aI0
aI0
aI0
aI1
aI2
aI2
aI0
aI2
aI0
aI0
aI0
aI1
aI0
aI0
aI1
aI1
aI0
aI0
aI1
aI2
aI0
aI1
aI0
aI1
aI4
aI3
aI0
aI8
aI41
aI16
aI8
aI6
aI20
aI3
aI1
aI1
aI9
aI2
aI0
aI0
aI0
aI0
aI0
aI0
aI0
aI0
aI0
aI0
aI0
aI0
aI0
aI0
aI0
aI0
aI0
aI0
aI0
aI0
aI0
aI0
aI0
aI0
aI28
aI0
aI0
aI0
aI0
aI0
aI0
aI0
aI0
aI0
aI0
aI0
aI0
aI0
aI0
aI0
aI79
aI0
aI0
aI0
aI38
aI0
aI0
aI0
aI0
aI0
aI0
aI0
aI0
aI0
aI0
aI0
aI0
aI0
aI0
aI0
aI0
aI0
aI0
aI0
aI0
aI0
aI0
aI0
aI0
aI0
aI0
aI0
aI0
aI0
aI0
aI0
aI0
aI0
aI0
aI0
aI0
aI0
aI0
aI0
aI0
aI14
aI0
aI0
aI0
aI57
aI0
aI0
aI0
aI0
aI0
aI0
aI0
aI0
aI0
aI0
aI0
aI43
aI0
aI0
aI0
aI29
aI0
aI0
aI0
aI0
aI0
aI0
aI0
aI0
aI0
aI0
aI0
aI0
aI0
aI0
aI0
aI0
aI0
aI0
aI0
aI0
aI0
aI0
aI0
aI0
aI0
aI0
aI0
aI0
aI0
aI0
aI0
aI0
aI0
aI0
aI0
aI0
aI0
aI0
aI0
aI0
aI0
aI0
aI0
aI31
aI0
aI0
aI0
aI47
aI0
aI0
aI0
aI0
aI0
aI0
aI0
aI0
aI0
aI0
aI0
aI38
aI0
aI0
aI0
aI29
aI0
aI0
aI0
aI0
aI0
aI0
aI0
aI0
aI0
aI0
aI0
aI0
aI0
aI0
aI0
aI0
aI0
aI0
aI0
aI0
aI0
aI0
aI0
aa(lp25
F-284.5459247610329
aF27.477906616011474
aF21.10365087030425
aF9529.052286758564
aF648.8293853274449
aF261.547510604801
aF0.18069236832429317
aF0.18069236832429317
aF0.18069236832429317
aF0.18069236832429317
aF0.18069236832429317
aF0.18069236832429317
aF0.18069236832429317
aF0.18069236832429317
aF0.18069236832429317
aF0.18069236832429317
aI0
aI0
aI0
aI3
aI0
aI0
aI40
aI6
aI0
aI27
aI20
aI0
aI4
aI24
aI1
aI0
aI0
aI0
aI2
aI2
aI0
aI0
aI0
aI0
aI1
aI0
aI0
aI0
aI0
aI0
aI0
aI0
aI0
aI0
aI0
aI0
aI0
aI0
aI0
aI0
aI0
aI0
aI0
aI0
aI0
aI0
aI0
aI0
aI0
aI0
aI0
aI0
aI0
aI0
aI0
aI0
aI0
aI0
aI0
aI0
aI0
aI0
aI0
aI0
aI0
aI0
aI0
aI0
aI0
aI0
aI0
aI0
aI4
aI0
aI0
aI0
aI0
aI2
aI0
aI0
aI2
aI0
aI0
aI0
aI4
aI0
aI0
aI0
aI7
aI0
aI0
aI0
aI1
aI0
aI1
aI1
aI1
aI0
aI0
aI0
aI3
aI0
aI0
aI2
aI4
aI0
aI0
aI1
aI0
aI0
aI0
aI0
aI0
aI3
aI2
aI0
aI2
aI25
aI31
aI5
aI9
aI28
aI9
aI6
aI0
aI2
aI1
aI0
aI0
aI0
aI0
aI0
aI0
aI0
aI0
aI0
aI0
aI0
aI0
aI0
aI0
aI0
aI0
aI0
aI0
aI0
aI0
aI0
aI0
aI0
aI0
aI41
aI0
aI0
aI0
aI0
aI0
aI0
aI0
aI0
aI0
aI0
aI0
aI2
aI0
aI0
aI0
aI77
aI0
aI0
aI0
aI36
aI0
aI0
aI0
aI0
aI0
aI0
aI0
aI0
aI0
aI0
aI0
aI0
aI0
aI0
aI0
aI0
aI0
aI0
aI0
aI0
aI0
aI0
aI0
aI0
aI0
aI0
aI0
aI0
aI0
aI0
aI0
aI0
aI0
aI0
aI0
aI0
aI0
aI0
aI0
aI0
aI16
aI0
aI0
aI0
aI48
aI0
aI0
aI0
aI0
aI0
aI0
aI0
aI0
aI0
aI0
aI0
aI37
aI0
aI0
aI0
aI29
aI0
aI0
aI0
aI0
aI0
aI0
aI0
aI0
aI0
aI0
aI0
aI0
aI0
aI0
aI0
aI0
aI0
aI0
aI0
aI0
aI0
aI0
aI0
aI0
aI0
aI0
aI0
aI0
aI0
aI0
aI0
aI0
aI0
aI0
aI0
aI0
aI0
aI0
aI0
aI0
aI0
aI0
aI0
aI42
aI0
aI0
aI0
aI42
aI0
aI0
aI0
aI0
aI0
aI0
aI0
aI0
aI0
aI0
aI0
aI34
aI0
aI0
aI0
aI38
aI0
aI0
aI0
aI0
aI0
aI0
aI0
aI0
aI0
aI0
aI0
aI0
aI0
aI0
aI0
aI0
aI0
aI0
aI0
aI0
aI0
aI0
aI0
aa(lp26
F-271.03808664142775
aF-9.228070282254201
aF60.01636845411275
aF5760.3194919786465
aF207.1651660751599
aF291.0041686417376
aF0.11594220204636078
aF0.11594220204636078
aF0.11594220204636078
aF0.11594220204636078
aF0.11594220204636078
aF0.11594220204636078
aF0.11594220204636078
aF0.11594220204636078
aF0.11594220204636078
aF0.11594220204636078
aI0
aI0
aI4
aI2
aI0
aI1
aI34
aI2
aI0
aI22
aI28
aI0
aI0
aI13
aI0
aI0
aI0
aI0
aI3
aI1
aI0
aI0
aI0
aI0
aI0
aI0
aI0
aI0
aI0
aI0
aI0
aI0
aI0
aI0
aI0
aI0
aI0
aI0
aI0
aI0
aI0
aI0
aI0
aI0
aI0
aI0
aI0
aI0
aI0
aI0
aI0
aI0
aI0
aI0
aI0
aI0
aI0
aI0
aI0
aI0
aI0
aI0
aI0
aI0
aI0
aI0
aI0
aI0
aI0
aI0
aI0
aI0
aI0
aI1
aI1
aI0
aI1
aI0
aI0
aI0
aI2
aI0
aI0
aI0
aI0
aI0
aI0
aI0
aI5
aI0
aI0
aI1
aI0
aI1
aI2
aI6
aI1
aI0
aI0
aI0
aI6
aI0
aI0
aI0
aI6
aI0
aI0
aI1
aI1
aI1
aI0
aI0
aI0
aI9
aI4
aI0
aI5
aI30
aI18
aI5
aI5
aI14
aI6
aI2
aI0
aI5
aI0
aI0
aI0
aI0
aI0
aI0
aI0
aI0
aI0
aI0
aI0
aI0
aI0
aI0
aI0
aI0
aI0
aI0
aI0
aI0
aI0
aI0
aI0
aI0
aI0
aI5
aI0
aI0
aI0
aI2
aI0
aI0
aI0
aI0
aI0
aI0
aI0
aI1
aI0
aI0
aI0
aI76
aI0
aI0
aI0
aI48
aI0
aI0
aI0
aI0
aI0
aI0
aI0
aI0
aI0
aI0
aI0
aI0
aI0
aI0
aI0
aI7
aI0
aI0
aI0
aI0
aI0
aI0
aI0
aI0
aI0
aI0
aI0
aI0
aI0
aI0
aI0
aI0
aI0
aI0
aI0
aI0
aI0
aI0
aI0
aI0
aI16
aI0
aI0
aI0
aI39
aI0
aI0
aI0
aI0
aI0
aI0
aI0
aI0
aI0
aI0
aI0
aI27
aI0
aI0
aI0
aI28
aI0
aI0
aI0
aI0
aI0
aI0
aI0
aI0
aI0
aI0
aI0
aI0
aI0
aI0
aI0
aI0
aI0
aI0
aI0
aI0
aI0
aI0
aI0
aI0
aI0
aI0
aI0
aI0
aI0
aI0
aI0
aI0
aI0
aI0
aI0
aI0
aI0
aI0
aI0
aI0
aI0
aI0
aI0
aI39
aI0
aI0
aI0
aI36
aI0
aI0
aI0
aI0
aI0
aI0
aI0
aI0
aI0
aI0
aI0
aI25
aI0
aI0
aI0
aI39
aI0
aI0
aI0
aI0
aI0
aI0
aI0
aI0
aI0
aI0
aI0
aI0
aI0
aI0
aI0
aI0
aI0
aI0
aI0
aI0
aI0
aI0
aI0
aa(lp27
F408.23692214284756
aF75.94954892595932
aF29.16158711808886
aF11010.365597943482
aF801.5146386629402
aF347.4004164442817
aF0.004455269911344354
aF0.004455269911344354
aF0.004455269911344354
aF0.004455269911344354
aF0.004455269911344354
aF0.004455269911344354
aF0.004455269911344354
aF0.004455269911344354
aF0.004455269911344354
aF0.004455269911344354
aI0
aI0
aI0
aI0
aI0
aI0
aI0
aI0
aI0
aI0
aI0
aI0
aI0
aI0
aI0
aI0
aI0
aI0
aI0
aI0
aI0
aI0
aI0
aI2
aI0
aI0
aI0
aI0
aI0
aI0
aI0
aI0
aI0
aI0
aI0
aI0
aI0
aI0
aI0
aI1
aI0
aI0
aI0
aI0
aI0
aI0
aI0
aI0
aI0
aI0
aI1
aI3
aI0
aI0
aI18
aI1
aI1
aI24
aI25
aI0
aI6
aI10
aI0
aI0
aI0
aI0
aI0
aI0
aI0
aI32
aI28
aI1
aI0
aI22
aI1
aI0
aI1
aI2
aI0
aI0
aI0
aI0
aI0
aI0
aI0
aI0
aI0
aI0
aI1
aI0
aI0
aI0
aI2
aI0
aI0
aI0
aI0
aI0
aI0
aI0
aI0
aI0
aI0
aI0
aI6
aI0
aI0
aI0
aI3
aI0
aI0
aI0
aI0
aI1
aI0
aI0
aI2
aI0
aI0
aI0
aI0
aI0
aI0
aI0
aI0
aI0
aI0
aI0
aI0
aI0
aI0
aI0
aI0
aI0
aI0
aI0
aI0
aI0
aI0
aI0
aI0
aI0
aI0
aI0
aI0
aI0
aI0
aI11
aI0
aI0
aI0
aI78
aI0
aI0
aI0
aI0
aI0
aI0
aI0
aI0
aI0
aI0
aI0
aI0
aI0
aI0
aI0
aI13
aI0
aI0
aI0
aI0
aI0
aI0
aI0
aI0
aI0
aI0
aI0
aI0
aI0
aI0
aI0
aI0
aI0
aI0
aI0
aI0
aI0
aI0
aI0
aI0
aI0
aI0
aI0
aI0
aI0
aI0
aI0
aI0
aI0
aI0
aI0
aI0
aI0
aI0
aI0
aI0
aI0
aI0
aI0
aI0
aI32
aI0
aI0
aI0
aI13
aI0
aI0
aI0
aI0
aI0
aI0
aI0
aI0
aI0
aI0
aI0
aI5
aI0
aI0
aI0
aI42
aI0
aI0
aI0
aI0
aI0
aI0
aI0
aI0
aI0
aI0
aI0
aI0
aI0
aI0
aI0
aI0
aI0
aI0
aI0
aI0
aI0
aI0
aI0
aI0
aI0
aI0
aI0
aI0
aI0
aI0
aI0
aI0
aI0
aI0
aI0
aI0
aI0
aI0
aI0
aI0
aI0
aI0
aI0
aI29
aI0
aI0
aI0
aI18
aI0
aI0
aI0
aI0
aI0
aI0
aI0
aI0
aI0
aI0
aI0
aI18
aI0
aI0
aI0
aI37
aI0
aI0
aI0
aI0
aI0
aI0
aI0
aI0
aI0
aI0
aI0
aI0
aI0
aI0
aI0
aI0
aI0
aI0
aI0
aI0
aI0
aI0
aI0
aa(lp28
F356.74541540247355
aF92.51382030605441
aF-18.55920092589701
aF10512.560179153763
aF1663.8718222083057
aF439.0010998898075
aF0.014602679353996806
aF0.014602679353996806
aF0.014602679353996806
aF0.014602679353996806
aF0.014602679353996806
aF0.014602679353996806
aF0.014602679353996806
aF0.014602679353996806
aF0.014602679353996806
aF0.014602679353996806
aI0
aI0
aI0
aI0
aI0
aI0
aI0
aI0
aI0
aI0
aI0
aI0
aI0
aI0
aI0
aI0
aI0
aI0
aI0
aI0
aI0
aI0
aI0
aI0
aI0
aI0
aI0
aI0
aI0
aI0
aI0
aI0
aI0
aI0
aI0
aI3
aI0
aI0
aI0
aI1
aI0
aI0
aI0
aI0
aI11
aI2
aI0
aI0
aI0
aI0
aI4
aI0
aI0
aI0
aI14
aI0
aI0
aI22
aI16
aI0
aI8
aI21
aI0
aI0
aI0
aI2
aI9
aI2
aI4
aI26
aI27
aI5
aI9
aI18
aI3
aI0
aI2
aI7
aI1
aI0
aI1
aI0
aI0
aI1
aI1
aI0
aI0
aI1
aI3
aI0
aI0
aI0
aI6
aI0
aI0
aI0
aI0
aI0
aI0
aI0
aI0
aI0
aI0
aI0
aI3
aI0
aI0
aI0
aI4
aI2
aI0
aI0
aI0
aI0
aI0
aI0
aI0
aI0
aI0
aI0
aI0
aI0
aI0
aI0
aI1
aI0
aI0
aI0
aI0
aI0
aI0
aI0
aI0
aI0
aI0
aI19
aI0
aI0
aI0
aI0
aI0
aI0
aI0
aI0
aI0
aI0
aI11
aI9
aI0
aI0
aI0
aI68
aI0
aI0
aI0
aI0
aI0
aI0
aI0
aI0
aI0
aI0
aI2
aI4
aI0
aI0
aI0
aI24
aI0
aI0
aI0
aI0
aI0
aI0
aI0
aI0
aI0
aI0
aI0
aI0
aI0
aI0
aI0
aI1
aI0
aI0
aI0
aI0
aI0
aI0
aI0
aI0
aI0
aI0
aI0
aI0
aI0
aI0
aI0
aI0
aI0
aI0
aI0
aI0
aI0
aI0
aI0
aI0
aI0
aI0
aI0
aI0
aI42
aI0
aI0
aI0
aI14
aI0
aI0
aI0
aI0
aI0
aI0
aI0
aI0
aI0
aI0
aI0
aI0
aI0
aI0
aI0
aI46
aI0
aI0
aI0
aI0
aI0
aI0
aI0
aI0
aI0
aI0
aI0
aI0
aI0
aI0
aI0
aI0
aI0
aI0
aI0
aI0
aI0
aI0
aI0
aI0
aI0
aI0
aI0
aI0
aI0
aI0
aI0
aI0
aI0
aI0
aI0
aI0
aI0
aI0
aI0
aI0
aI0
aI0
aI0
aI36
aI0
aI0
aI0
aI28
aI0
aI0
aI0
aI0
aI0
aI0
aI0
aI0
aI0
aI0
aI0
aI35
aI0
aI0
aI0
aI39
aI0
aI0
aI0
aI0
aI0
aI0
aI0
aI0
aI0
aI0
aI0
aI0
aI0
aI0
aI0
aI0
aI0
aI0
aI0
aI0
aI0
aI0
aI0
aa(lp29
F256.97625211238767
aF21.82470893345423
aF14.50727451330292
aF9351.446182232075
aF853.7422203349288
aF394.72611864790804
aF0.06421042135503513
aF0.06421042135503513
aF0.06421042135503513
aF0.06421042135503513
aF0.06421042135503513
aF0.06421042135503513
aF0.06421042135503513
aF0.06421042135503513
aF0.06421042135503513
aF0.06421042135503513
aI0
aI0
aI0
aI0
aI6
aI0
aI0
aI0
aI1
aI0
aI0
aI1
aI0
aI0
aI0
aI0
aI1
aI0
aI0
aI0
aI5
aI0
aI0
aI4
aI5
aI0
aI0
aI0
aI0
aI0
aI0
aI0
aI0
aI0
aI0
aI2
aI1
aI0
aI0
aI1
aI1
aI0
aI0
aI1
aI7
aI0
aI0
aI1
aI0
aI0
aI8
aI2
aI0
aI0
aI16
aI0
aI7
aI40
aI11
aI0
aI3
aI1
aI2
aI0
aI0
aI5
aI12
aI1
aI4
aI22
aI27
aI1
aI14
aI15
aI1
aI2
aI0
aI3
aI6
aI0
aI0
aI0
aI3
aI2
aI0
aI0
aI0
aI1
aI3
aI0
aI0
aI1
aI1
aI0
aI3
aI1
aI0
aI3
aI3
aI1
aI0
aI0
aI0
aI0
aI1
aI0
aI0
aI1
aI1
aI0
aI0
aI0
aI0
aI1
aI0
aI0
aI1
aI1
aI0
aI0
aI1
aI1
aI0
aI1
aI0
aI0
aI1
aI0
aI0
aI0
aI0
aI0
aI0
aI0
aI0
aI0
aI0
aI0
aI0
aI0
aI0
aI0
aI0
aI0
aI0
aI0
aI1
aI10
aI0
aI0
aI0
aI76
aI0
aI0
aI0
aI0
aI0
aI0
aI0
aI0
aI0
aI0
aI0
aI43
aI0
aI0
aI0
aI15
aI0
aI0
aI0
aI0
aI0
aI0
aI0
aI0
aI0
aI0
aI0
aI0
aI0
aI0
aI0
aI0
aI0
aI0
aI0
aI0
aI0
aI0
aI0
aI0
aI0
aI0
aI0
aI0
aI0
aI0
aI0
aI0
aI0
aI0
aI0
aI0
aI0
aI0
aI0
aI0
aI0
aI0
aI0
aI0
aI63
aI0
aI0
aI0
aI12
aI0
aI0
aI0
aI0
aI0
aI0
aI0
aI0
aI0
aI0
aI0
aI8
aI0
aI0
aI0
aI44
aI0
aI0
aI0
aI0
aI0
aI0
aI0
aI0
aI0
aI0
aI0
aI0
aI0
aI0
aI0
aI0
aI0
aI0
aI0
aI0
aI0
aI0
aI0
aI0
aI0
aI0
aI0
aI0
aI0
aI0
aI0
aI0
aI0
aI0
aI0
aI0
aI0
aI0
aI0
aI0
aI0
aI0
aI0
aI61
aI0
aI0
aI0
aI17
aI0
aI0
aI0
aI0
aI0
aI0
aI0
aI0
aI0
aI0
aI0
aI0
aI0
aI0
aI0
aI67
aI0
aI0
aI0
aI0
aI0
aI0
aI0
aI0
aI0
aI0
aI0
aI0
aI0
aI0
aI0
aI0
aI0
aI0
aI0
aI0
aI0
aI0
aI0
aa(lp30
F420.45977270279343
aF82.34437965703039
aF12.25539883526961
aF12778.305395307465
aF1254.5494330395309
aF487.35310322809374
aF0.1242064597822552
aF0.1242064597822552
aF0.1242064597822552
aF0.1242064597822552
aF0.1242064597822552
aF0.1242064597822552
aF0.1242064597822552
aF0.1242064597822552
aF0.1242064597822552
aF0.1242064597822552
aI0
aI0
aI0
aI0
aI0
aI0
aI0
aI0
aI0
aI0
aI0
aI0
aI0
aI0
aI0
aI0
aI0
aI0
aI0
aI1
aI0
aI0
aI0
aI0
aI0
aI0
aI0
aI0
aI0
aI0
aI0
aI0
aI0
aI0
aI0
aI1
aI0
aI0
aI0
aI2
aI0
aI0
aI0
aI0
aI6
aI0
aI0
aI0
aI0
aI0
aI3
aI4
aI0
aI0
aI13
aI1
aI0
aI24
aI18
aI0
aI4
aI17
aI0
aI0
aI0
aI4
aI20
aI0
aI2
aI20
aI20
aI1
aI14
aI11
aI1
aI1
aI1
aI5
aI1
aI0
aI0
aI0
aI0
aI0
aI0
aI0
aI0
aI0
aI2
aI0
aI0
aI0
aI0
aI0
aI0
aI0
aI0
aI0
aI0
aI0
aI0
aI0
aI0
aI0
aI2
aI0
aI0
aI0
aI0
aI0
aI0
aI1
aI0
aI0
aI0
aI0
aI0
aI0
aI0
aI0
aI2
aI0
aI0
aI0
aI0
aI0
aI0
aI0
aI0
aI0
aI0
aI0
aI0
aI0
aI0
aI0
aI0
aI0
aI0
aI0
aI0
aI0
aI0
aI0
aI0
aI0
aI0
aI9
aI0
aI0
aI0
aI77
aI0
aI0
aI0
aI0
aI0
aI0
aI0
aI0
aI0
aI0
aI0
aI0
aI0
aI0
aI0
aI22
aI0
aI0
aI0
aI0
aI0
aI0
aI0
aI0
aI0
aI0
aI0
aI0
aI0
aI0
aI0
aI0
aI0
aI0
aI0
aI0
aI0
aI0
aI0
aI0
aI0
aI0
aI0
aI0
aI4
aI0
aI0
aI0
aI1
aI2
aI1
aI3
aI0
aI0
aI0
aI0
aI0
aI0
aI0
aI0
aI31
aI0
aI0
aI0
aI0
aI0
aI0
aI7
aI0
aI0
aI0
aI0
aI0
aI0
aI0
aI0
aI5
aI0
aI0
aI0
aI20
aI0
aI0
aI9
aI0
aI0
aI0
aI0
aI0
aI0
aI0
aI0
aI0
aI0
aI0
aI0
aI4
aI2
aI0
aI3
aI0
aI0
aI2
aI0
aI0
aI0
aI0
aI0
aI0
aI0
aI0
aI0
aI0
aI0
aI0
aI0
aI0
aI0
aI0
aI0
aI0
aI0
aI0
aI0
aI30
aI0
aI0
aI0
aI22
aI0
aI0
aI0
aI0
aI0
aI0
aI0
aI0
aI0
aI0
aI0
aI17
aI0
aI0
aI0
aI39
aI0
aI0
aI0
aI0
aI0
aI0
aI0
aI0
aI0
aI0
aI0
aI0
aI0
aI0
aI0
aI0
aI0
aI0
aI0
aI0
aI0
aI0
aI0
aa(lp31
F324.55077764098104
aF77.19458596128092
aF-37.599194414683474
aF11418.760136232944
aF1670.9517836263972
aF796.5666955772269
aF0.1542903889771769
aF0.1542903889771769
aF0.1542903889771769
aF0.1542903889771769
aF0.1542903889771769
aF0.1542903889771769
aF0.1542903889771769
aF0.1542903889771769
aF0.1542903889771769
aF0.1542903889771769
aI0
aI0
aI0
aI0
aI0
aI0
aI0
aI0
aI0
aI0
aI0
aI0
aI0
aI0
aI0
aI0
aI0
aI0
aI0
aI0
aI1
aI0
aI0
aI2
aI2
aI0
aI0
aI0
aI0
aI0
aI0
aI0
aI0
aI0
aI0
aI0
aI1
aI0
aI0
aI0
aI3
aI0
aI0
aI0
aI13
aI0
aI0
aI0
aI0
aI0
aI0
aI0
aI0
aI0
aI25
aI12
aI0
aI18
aI7
aI0
aI3
aI27
aI0
aI0
aI0
aI5
aI21
aI0
aI0
aI14
aI23
aI3
aI14
aI24
aI2
aI1
aI0
aI1
aI0
aI0
aI0
aI0
aI0
aI0
aI0
aI0
aI0
aI0
aI0
aI0
aI0
aI1
aI2
aI0
aI0
aI0
aI0
aI0
aI0
aI0
aI0
aI0
aI0
aI0
aI2
aI0
aI0
aI0
aI1
aI0
aI0
aI0
aI0
aI0
aI0
aI0
aI0
aI0
aI0
aI0
aI4
aI0
aI0
aI0
aI0
aI0
aI0
aI0
aI0
aI0
aI0
aI0
aI0
aI0
aI0
aI0
aI0
aI0
aI0
aI0
aI0
aI0
aI0
aI0
aI0
aI0
aI0
aI10
aI0
aI0
aI0
aI87
aI0
aI0
aI0
aI0
aI0
aI0
aI0
aI0
aI0
aI0
aI0
aI0
aI0
aI0
aI0
aI21
aI0
aI0
aI0
aI0
aI0
aI0
aI0
aI0
aI0
aI0
aI0
aI0
aI0
aI0
aI0
aI0
aI0
aI0
aI0
aI0
aI0
aI0
aI0
aI0
aI0
aI0
aI0
aI0
aI0
aI0
aI0
aI0
aI3
aI1
aI0
aI1
aI0
aI0
aI1
aI0
aI0
aI0
aI0
aI0
aI41
aI0
aI0
aI0
aI7
aI0
aI0
aI9
aI0
aI0
aI0
aI0
aI0
aI0
aI0
aI0
aI5
aI0
aI0
aI0
aI22
aI0
aI0
aI14
aI0
aI0
aI0
aI0
aI0
aI0
aI0
aI0
aI0
aI0
aI0
aI0
aI4
aI2
aI1
aI2
aI0
aI0
aI1
aI0
aI0
aI0
aI0
aI0
aI0
aI0
aI0
aI0
aI0
aI0
aI0
aI0
aI0
aI0
aI0
aI0
aI0
aI0
aI0
aI0
aI29
aI0
aI0
aI0
aI27
aI0
aI0
aI0
aI0
aI0
aI0
aI0
aI0
aI0
aI0
aI0
aI26
aI0
aI0
aI0
aI36
aI0
aI0
aI0
aI0
aI0
aI0
aI0
aI0
aI0
aI0
aI0
aI0
aI0
aI0
aI0
aI0
aI0
aI0
aI0
aI0
aI0
aI0
aI0
aa(lp32
F288.33007119759696
aF85.83337502979482
aF-16.73745809563747
aF11093.954356453447
aF1509.5491905837741
aF626.819588858676
aF0.14730756817759294
aF0.14730756817759294
aF0.14730756817759294
aF0.14730756817759294
aF0.14730756817759294
aF0.14730756817759294
aF0.14730756817759294
aF0.14730756817759294
aF0.14730756817759294
aF0.14730756817759294
aI0
aI0
aI0
aI0
aI0
aI0
aI0
aI1
aI0
aI0
aI0
aI0
aI0
aI0
aI0
aI0
aI0
aI0
aI0
aI0
aI0
aI0
aI0
aI0
aI1
aI0
aI0
aI0
aI2
aI0
aI0
aI0
aI0
aI0
aI0
aI0
aI0
aI0
aI0
aI2
aI0
aI0
aI0
aI0
aI20
aI0
aI0
aI0
aI0
aI0
aI2
aI0
aI0
aI0
aI22
aI11
aI0
aI26
aI18
aI0
aI5
aI12
aI0
aI0
aI0
aI9
aI6
aI0
aI1
aI17
aI32
aI0
aI11
aI25
aI0
aI1
aI0
aI2
aI1
aI0
aI0
aI0
aI0
aI0
aI2
aI0
aI0
aI0
aI4
aI0
aI0
aI0
aI0
aI0
aI0
aI0
aI0
aI0
aI0
aI1
aI0
aI0
aI0
aI0
aI1
aI0
aI0
aI0
aI2
aI0
aI0
aI0
aI0
aI0
aI0
aI0
aI0
aI0
aI0
aI0
aI1
aI0
aI0
aI0
aI1
aI2
aI0
aI0
aI0
aI0
aI0
aI0
aI0
aI0
aI0
aI7
aI0
aI0
aI0
aI0
aI0
aI0
aI0
aI0
aI0
aI0
aI0
aI7
aI0
aI0
aI0
aI85
aI0
aI0
aI0
aI0
aI0
aI0
aI0
aI0
aI0
aI0
aI0
aI4
aI0
aI0
aI0
aI16
aI0
aI0
aI0
aI0
aI0
aI0
aI0
aI0
aI0
aI0
aI0
aI0
aI0
aI0
aI0
aI0
aI0
aI0
aI0
aI0
aI0
aI0
aI0
aI0
aI0
aI0
aI0
aI0
aI0
aI0
aI0
aI0
aI0
aI0
aI0
aI0
aI0
aI0
aI0
aI0
aI0
aI0
aI0
aI0
aI43
aI0
aI0
aI0
aI19
aI0
aI0
aI0
aI0
aI0
aI0
aI0
aI0
aI0
aI0
aI0
aI1
aI0
aI0
aI0
aI59
aI0
aI0
aI0
aI0
aI0
aI0
aI0
aI0
aI0
aI0
aI0
aI0
aI0
aI0
aI0
aI0
aI0
aI0
aI0
aI0
aI0
aI0
aI0
aI0
aI0
aI0
aI0
aI0
aI0
aI0
aI0
aI0
aI0
aI0
aI0
aI0
aI0
aI0
aI0
aI0
aI0
aI0
aI0
aI29
aI0
aI0
aI0
aI27
aI0
aI0
aI0
aI0
aI0
aI0
aI0
aI0
aI0
aI0
aI0
aI22
aI0
aI0
aI0
aI41
aI0
aI0
aI0
aI0
aI0
aI0
aI0
aI0
aI0
aI0
aI0
aI0
aI0
aI0
aI0
aI0
aI0
aI0
aI0
aI0
aI0
aI0
aI0
aa(lp33
F334.53455124325785
aF27.731301334527934
aF51.860101061137364
aF8086.554276614902
aF402.4785688140606
aF343.61457577117613
aF0.3215373514002644
aF0.3215373514002644
aF0.3215373514002644
aF0.3215373514002644
aF0.3215373514002644
aF0.3215373514002644
aF0.3215373514002644
aF0.3215373514002644
aF0.3215373514002644
aF0.3215373514002644
aI0
aI0
aI0
aI0
aI0
aI0
aI0
aI0
aI0
aI0
aI0
aI0
aI0
aI0
aI0
aI0
aI0
aI0
aI0
aI0
aI0
aI0
aI0
aI0
aI0
aI0
aI0
aI0
aI0
aI0
aI0
aI0
aI0
aI0
aI0
aI2
aI0
aI0
aI0
aI1
aI0
aI0
aI0
aI0
aI0
aI0
aI0
aI0
aI0
aI0
aI0
aI2
aI0
aI0
aI29
aI8
aI0
aI33
aI20
aI0
aI1
aI9
aI0
aI0
aI0
aI3
aI9
aI1
aI5
aI28
aI31
aI1
aI19
aI12
aI1
aI1
aI0
aI1
aI0
aI0
aI0
aI0
aI0
aI0
aI0
aI0
aI0
aI0
aI5
aI0
aI0
aI0
aI0
aI0
aI1
aI0
aI0
aI0
aI0
aI0
aI0
aI0
aI0
aI0
aI1
aI0
aI0
aI0
aI0
aI0
aI0
aI0
aI0
aI0
aI0
aI0
aI0
aI0
aI0
aI0
aI2
aI0
aI0
aI0
aI0
aI0
aI0
aI0
aI0
aI0
aI0
aI0
aI0
aI0
aI0
aI4
aI0
aI0
aI0
aI1
aI0
aI0
aI0
aI0
aI0
aI0
aI0
aI2
aI0
aI0
aI0
aI59
aI0
aI0
aI0
aI25
aI0
aI0
aI0
aI0
aI0
aI0
aI0
aI7
aI0
aI0
aI0
aI23
aI0
aI0
aI0
aI0
aI0
aI0
aI0
aI0
aI0
aI0
aI0
aI0
aI0
aI0
aI0
aI0
aI0
aI0
aI0
aI0
aI0
aI0
aI0
aI0
aI0
aI0
aI0
aI0
aI0
aI0
aI0
aI0
aI0
aI0
aI0
aI0
aI0
aI0
aI0
aI0
aI0
aI0
aI0
aI0
aI31
aI0
aI0
aI0
aI21
aI0
aI0
aI0
aI0
aI0
aI0
aI0
aI0
aI0
aI0
aI0
aI9
aI0
aI0
aI0
aI44
aI0
aI0
aI0
aI0
aI0
aI0
aI0
aI0
aI0
aI0
aI0
aI0
aI0
aI0
aI0
aI0
aI0
aI0
aI0
aI0
aI0
aI0
aI0
aI0
aI0
aI0
aI0
aI0
aI0
aI0
aI0
aI0
aI0
aI0
aI0
aI0
aI0
aI0
aI0
aI0
aI0
aI0
aI0
aI33
aI0
aI0
aI0
aI26
aI0
aI0
aI0
aI0
aI0
aI0
aI0
aI0
aI0
aI0
aI0
aI18
aI0
aI0
aI0
aI44
aI0
aI0
aI0
aI0
aI0
aI0
aI0
aI0
aI0
aI0
aI0
aI0
aI0
aI0
aI0
aI0
aI0
aI0
aI0
aI0
aI0
aI0
aI0
aa(lp34
F331.3106629741955
aF28.80283385229104
aF-10.612400862426531
aF12595.309732196201
aF773.5175877951341
aF559.334224032124
aF0.17699452035969965
aF0.17699452035969965
aF0.17699452035969965
aF0.17699452035969965
aF0.17699452035969965
aF0.17699452035969965
aF0.17699452035969965
aF0.17699452035969965
aF0.17699452035969965
aF0.17699452035969965
aI0
aI0
aI0
aI0
aI0
aI0
aI0
aI0
aI0
aI0
aI0
aI0
aI0
aI0
aI0
aI0
aI0
aI0
aI0
aI0
aI1
aI0
aI0
aI2
aI0
aI0
aI0
aI0
aI0
aI0
aI0
aI0
aI0
aI0
aI0
aI6
aI0
aI0
aI0
aI0
aI6
aI0
aI0
aI0
aI4
aI0
aI0
aI0
aI0
aI0
aI6
aI3
aI0
aI0
aI20
aI0
aI6
aI42
aI18
aI0
aI3
aI3
aI0
aI0
aI0
aI0
aI0
aI0
aI1
aI25
aI37
aI3
aI14
aI11
aI1
aI2
aI1
aI4
aI2
aI0
aI0
aI0
aI0
aI0
aI0
aI0
aI0
aI0
aI0
aI0
aI0
aI0
aI0
aI0
aI0
aI0
aI0
aI0
aI0
aI0
aI0
aI0
aI0
aI0
aI1
aI0
aI0
aI0
aI0
aI0
aI0
aI0
aI0
aI0
aI0
aI0
aI0
aI0
aI0
aI0
aI2
aI0
aI0
aI0
aI0
aI0
aI0
aI0
aI0
aI0
aI0
aI0
aI0
aI0
aI0
aI0
aI0
aI0
aI0
aI0
aI0
aI0
aI0
aI0
aI0
aI0
aI0
aI0
aI0
aI0
aI0
aI70
aI0
aI0
aI0
aI8
aI0
aI0
aI0
aI0
aI0
aI0
aI0
aI0
aI0
aI0
aI0
aI26
aI0
aI0
aI0
aI0
aI0
aI0
aI0
aI0
aI0
aI0
aI0
aI0
aI0
aI0
aI0
aI0
aI0
aI0
aI0
aI0
aI0
aI0
aI0
aI0
aI0
aI0
aI0
aI0
aI0
aI0
aI0
aI0
aI0
aI0
aI0
aI0
aI0
aI0
aI0
aI0
aI0
aI0
aI0
aI0
aI43
aI0
aI0
aI0
aI15
aI0
aI0
aI0
aI3
aI1
aI0
aI0
aI0
aI0
aI0
aI0
aI11
aI0
aI0
aI0
aI28
aI0
aI0
aI0
aI0
aI1
aI3
aI0
aI0
aI0
aI0
aI0
aI0
aI0
aI0
aI0
aI6
aI0
aI0
aI0
aI0
aI4
aI5
aI0
aI0
aI0
aI0
aI0
aI0
aI0
aI0
aI0
aI0
aI0
aI0
aI0
aI0
aI0
aI0
aI0
aI0
aI0
aI0
aI0
aI31
aI0
aI0
aI0
aI19
aI0
aI0
aI0
aI0
aI0
aI0
aI0
aI0
aI0
aI0
aI0
aI16
aI0
aI0
aI0
aI38
aI0
aI0
aI0
aI0
aI0
aI0
aI0
aI0
aI0
aI0
aI0
aI0
aI0
aI0
aI0
aI0
aI0
aI0
aI0
aI0
aI0
aI0
aI0
aa(lp35
F352.6074681064163
aF10.277362150855788
aF28.18633073707025
aF14742.350506398743
aF432.07432757588384
aF479.98586892173
aF0.07428673638232296
aF0.07428673638232296
aF0.07428673638232296
aF0.07428673638232296
aF0.07428673638232296
aF0.07428673638232296
aF0.07428673638232296
aF0.07428673638232296
aF0.07428673638232296
aF0.07428673638232296
aI0
aI0
aI0
aI0
aI0
aI0
aI0
aI0
aI0
aI0
aI0
aI0
aI0
aI0
aI0
aI0
aI0
aI0
aI0
aI0
aI0
aI0
aI0
aI0
aI0
aI0
aI0
aI0
aI0
aI0
aI0
aI0
aI0
aI0
aI0
aI4
aI0
aI0
aI0
aI0
aI1
aI0
aI0
aI0
aI7
aI0
aI0
aI0
aI0
aI0
aI0
aI3
aI0
aI0
aI42
aI10
aI2
aI35
aI10
aI1
aI1
aI9
aI0
aI0
aI0
aI0
aI1
aI0
aI1
aI19
aI27
aI1
aI12
aI32
aI5
aI1
aI0
aI2
aI4
aI0
aI0
aI0
aI0
aI0
aI1
aI0
aI0
aI0
aI4
aI0
aI0
aI0
aI1
aI1
aI0
aI0
aI0
aI0
aI0
aI0
aI0
aI0
aI0
aI0
aI2
aI0
aI0
aI0
aI1
aI0
aI0
aI0
aI0
aI0
aI0
aI0
aI0
aI0
aI0
aI0
aI0
aI0
aI0
aI0
aI0
aI0
aI0
aI0
aI0
aI0
aI0
aI0
aI0
aI0
aI0
aI5
aI0
aI0
aI0
aI0
aI0
aI0
aI0
aI0
aI0
aI0
aI0
aI4
aI0
aI0
aI0
aI78
aI0
aI0
aI0
aI0
aI0
aI0
aI0
aI0
aI0
aI0
aI0
aI6
aI0
aI0
aI0
aI22
aI0
aI0
aI0
aI0
aI0
aI0
aI0
aI0
aI0
aI0
aI0
aI0
aI0
aI0
aI0
aI0
aI0
aI0
aI0
aI0
aI0
aI0
aI0
aI0
aI0
aI0
aI0
aI0
aI0
aI0
aI0
aI0
aI0
aI0
aI0
aI0
aI0
aI0
aI0
aI0
aI0
aI0
aI0
aI0
aI28
aI0
aI0
aI0
aI34
aI0
aI0
aI0
aI0
aI0
aI0
aI0
aI0
aI0
aI0
aI0
aI22
aI0
aI0
aI0
aI41
aI0
aI0
aI0
aI0
aI0
aI0
aI0
aI0
aI0
aI0
aI0
aI0
aI0
aI0
aI0
aI0
aI0
aI0
aI0
aI0
aI0
aI0
aI0
aI0
aI0
aI0
aI0
aI0
aI0
aI0
aI0
aI0
aI0
aI0
aI0
aI0
aI0
aI0
aI0
aI0
aI0
aI0
aI0
aI7
aI0
aI0
aI0
aI47
aI0
aI0
aI0
aI0
aI0
aI0
aI0
aI0
aI0
aI0
aI0
aI36
aI0
aI0
aI0
aI25
aI0
aI0
aI0
aI0
aI0
aI0
aI0
aI0
aI0
aI0
aI0
aI0
aI0
aI0
aI0
aI0
aI0
aI0
aI0
aI0
aI0
aI0
aI0
aa(lp36
F335.6377501308412
aF-27.91885224433635
aF42.63607416846349
aF16216.350515779219
aF452.7922972651279
aF627.6219647171243
aF0.21232120518388628
aF0.21232120518388628
aF0.21232120518388628
aF0.21232120518388628
aF0.21232120518388628
aF0.21232120518388628
aF0.21232120518388628
aF0.21232120518388628
aF0.21232120518388628
aF0.21232120518388628
aI0
aI0
aI0
aI0
aI0
aI0
aI2
aI0
aI0
aI0
aI0
aI0
aI0
aI0
aI0
aI0
aI0
aI0
aI0
aI0
aI0
aI0
aI0
aI0
aI0
aI0
aI0
aI0
aI0
aI0
aI0
aI0
aI0
aI0
aI0
aI4
aI0
aI0
aI0
aI0
aI0
aI0
aI0
aI0
aI0
aI0
aI0
aI0
aI0
aI0
aI10
aI8
aI0
aI0
aI34
aI10
aI7
aI40
aI16
aI0
aI0
aI0
aI0
aI0
aI0
aI0
aI0
aI0
aI0
aI19
aI31
aI0
aI15
aI25
aI5
aI1
aI8
aI8
aI0
aI0
aI0
aI0
aI0
aI0
aI0
aI0
aI0
aI0
aI3
aI0
aI0
aI0
aI0
aI1
aI0
aI0
aI0
aI0
aI0
aI0
aI0
aI0
aI0
aI0
aI0
aI0
aI0
aI0
aI0
aI0
aI0
aI0
aI0
aI0
aI0
aI0
aI0
aI0
aI0
aI0
aI0
aI0
aI0
aI0
aI0
aI0
aI0
aI0
aI0
aI0
aI0
aI0
aI0
aI0
aI0
aI0
aI0
aI0
aI0
aI0
aI0
aI0
aI0
aI0
aI0
aI0
aI0
aI0
aI0
aI0
aI0
aI98
aI0
aI0
aI0
aI0
aI0
aI0
aI0
aI0
aI0
aI0
aI0
aI0
aI0
aI0
aI0
aI18
aI0
aI0
aI0
aI0
aI0
aI0
aI0
aI0
aI0
aI0
aI0
aI0
aI0
aI0
aI0
aI0
aI0
aI0
aI0
aI0
aI0
aI0
aI0
aI0
aI0
aI0
aI0
aI0
aI0
aI0
aI0
aI0
aI13
aI12
aI1
aI0
aI2
aI0
aI0
aI0
aI0
aI0
aI0
aI0
aI24
aI0
aI0
aI0
aI7
aI0
aI0
aI0
aI1
aI0
aI0
aI0
aI0
aI0
aI0
aI0
aI32
aI0
aI0
aI0
aI39
aI0
aI0
aI0
aI0
aI0
aI0
aI0
aI0
aI0
aI0
aI0
aI0
aI0
aI0
aI0
aI0
aI0
aI0
aI0
aI0
aI0
aI0
aI0
aI0
aI0
aI0
aI0
aI0
aI0
aI0
aI0
aI0
aI0
aI0
aI0
aI0
aI0
aI0
aI0
aI0
aI0
aI0
aI0
aI8
aI0
aI0
aI0
aI42
aI0
aI0
aI0
aI0
aI0
aI0
aI0
aI0
aI0
aI0
aI0
aI36
aI0
aI0
aI0
aI30
aI0
aI0
aI0
aI0
aI0
aI0
aI0
aI0
aI0
aI0
aI0
aI0
aI0
aI0
aI0
aI0
aI0
aI0
aI0
aI0
aI0
aI0
aI0
aa(lp37
F381.234599744771
aF-1.994012219244341
aF32.139726601996365
aF15884.178104868071
aF361.4427794390714
aF653.6728655828647
aF0.41362957281073337
aF0.41362957281073337
aF0.41362957281073337
aF0.41362957281073337
aF0.41362957281073337
aF0.41362957281073337
aF0.41362957281073337
aF0.41362957281073337
aF0.41362957281073337
aF0.41362957281073337
aI0
aI0
aI0
aI0
aI0
aI0
aI0
aI0
aI0
aI0
aI0
aI0
aI0
aI0
aI0
aI0
aI0
aI0
aI0
aI0
aI0
aI0
aI0
aI0
aI0
aI0
aI0
aI0
aI0
aI0
aI0
aI0
aI0
aI0
aI0
aI4
aI0
aI0
aI0
aI0
aI1
aI0
aI0
aI0
aI0
aI0
aI0
aI0
aI0
aI0
aI0
aI5
aI0
aI0
aI35
aI15
aI4
aI41
aI12
aI0
aI1
aI2
aI0
aI0
aI0
aI0
aI0
aI0
aI1
aI13
aI29
aI0
aI17
aI22
aI5
aI3
aI0
aI5
aI0
aI0
aI0
aI0
aI0
aI0
aI0
aI0
aI0
aI0
aI0
aI0
aI0
aI0
aI1
aI1
aI0
aI0
aI0
aI0
aI0
aI0
aI0
aI0
aI0
aI0
aI0
aI0
aI0
aI0
aI0
aI0
aI0
aI0
aI0
aI0
aI0
aI0
aI0
aI0
aI0
aI0
aI2
aI0
aI0
aI0
aI0
aI0
aI0
aI0
aI0
aI0
aI0
aI0
aI0
aI0
aI0
aI1
aI0
aI0
aI0
aI0
aI0
aI0
aI0
aI0
aI0
aI0
aI0
aI0
aI0
aI0
aI0
aI80
aI0
aI0
aI0
aI0
aI0
aI0
aI0
aI0
aI0
aI0
aI0
aI0
aI0
aI0
aI0
aI18
aI0
aI0
aI0
aI0
aI0
aI0
aI0
aI0
aI0
aI0
aI0
aI0
aI0
aI0
aI0
aI0
aI0
aI0
aI0
aI0
aI0
aI0
aI0
aI0
aI0
aI0
aI0
aI0
aI8
aI1
aI0
aI0
aI0
aI3
aI4
aI6
aI0
aI0
aI0
aI0
aI0
aI0
aI0
aI0
aI16
aI0
aI0
aI0
aI0
aI0
aI0
aI20
aI0
aI0
aI0
aI0
aI0
aI0
aI0
aI0
aI27
aI0
aI0
aI0
aI15
aI0
aI0
aI10
aI0
aI0
aI0
aI0
aI0
aI0
aI0
aI0
aI0
aI0
aI0
aI0
aI4
aI2
aI2
aI2
aI0
aI0
aI0
aI0
aI0
aI0
aI0
aI0
aI0
aI0
aI0
aI0
aI0
aI0
aI0
aI0
aI0
aI0
aI0
aI0
aI0
aI0
aI0
aI0
aI7
aI0
aI0
aI0
aI39
aI0
aI0
aI0
aI0
aI0
aI0
aI0
aI0
aI0
aI0
aI0
aI32
aI0
aI0
aI0
aI21
aI0
aI0
aI0
aI0
aI0
aI0
aI0
aI0
aI0
aI0
aI0
aI0
aI0
aI0
aI0
aI0
aI0
aI0
aI0
aI0
aI0
aI0
aI0
aa(lp38
F366.6740205582096
aF33.619439337365804
aF22.78289378652643
aF10945.272639298533
aF371.29955416510296
aF504.76416062162224
aF0.020692845057374985
aF0.020692845057374985
aF0.020692845057374985
aF0.020692845057374985
aF0.020692845057374985
aF0.020692845057374985
aF0.020692845057374985
aF0.020692845057374985
aF0.020692845057374985
aF0.020692845057374985
aI0
aI0
aI0
aI0
aI0
aI0
aI0
aI0
aI0
aI0
aI0
aI0
aI0
aI0
aI0
aI0
aI0
aI0
aI0
aI0
aI0
aI0
aI0
aI2
aI1
aI0
aI0
aI0
aI0
aI0
aI0
aI0
aI0
aI0
aI0
aI1
aI0
aI0
aI0
aI0
aI2
aI0
aI0
aI0
aI4
aI0
aI0
aI0
aI0
aI0
aI0
aI3
aI0
aI0
aI32
aI8
aI0
aI32
aI10
aI0
aI4
aI2
aI0
aI0
aI0
aI0
aI0
aI0
aI2
aI26
aI14
aI1
aI5
aI9
aI3
aI2
aI0
aI0
aI2
aI0
aI0
aI1
aI0
aI0
aI0
aI0
aI0
aI0
aI2
aI0
aI0
aI0
aI0
aI0
aI0
aI0
aI0
aI0
aI1
aI0
aI0
aI0
aI0
aI0
aI0
aI0
aI0
aI0
aI0
aI0
aI0
aI0
aI0
aI0
aI0
aI0
aI0
aI0
aI0
aI0
aI0
aI0
aI0
aI0
aI0
aI0
aI0
aI0
aI0
aI0
aI0
aI0
aI0
aI0
aI0
aI0
aI0
aI0
aI0
aI0
aI0
aI0
aI0
aI0
aI0
aI0
aI0
aI0
aI0
aI0
aI0
aI26
aI0
aI0
aI0
aI0
aI0
aI0
aI0
aI0
aI0
aI0
aI0
aI0
aI0
aI0
aI0
aI42
aI0
aI0
aI0
aI0
aI0
aI0
aI0
aI0
aI0
aI0
aI0
aI0
aI0
aI0
aI0
aI0
aI0
aI0
aI0
aI0
aI0
aI0
aI0
aI0
aI0
aI0
aI0
aI0
aI0
aI0
aI0
aI0
aI0
aI0
aI0
aI0
aI0
aI0
aI0
aI0
aI0
aI0
aI0
aI0
aI27
aI0
aI0
aI0
aI22
aI0
aI0
aI0
aI0
aI0
aI0
aI0
aI0
aI0
aI0
aI0
aI13
aI0
aI0
aI0
aI39
aI0
aI0
aI0
aI0
aI0
aI0
aI0
aI0
aI0
aI0
aI0
aI0
aI0
aI0
aI0
aI0
aI0
aI0
aI0
aI0
aI0
aI0
aI0
aI0
aI0
aI0
aI0
aI0
aI0
aI0
aI0
aI0
aI0
aI0
aI0
aI0
aI0
aI0
aI0
aI0
aI0
aI0
aI0
aI20
aI0
aI0
aI0
aI12
aI0
aI0
aI0
aI0
aI0
aI0
aI0
aI0
aI0
aI0
aI0
aI13
aI0
aI0
aI0
aI23
aI0
aI0
aI0
aI0
aI0
aI0
aI0
aI0
aI0
aI0
aI0
aI0
aI0
aI0
aI0
aI0
aI0
aI0
aI0
aI0
aI0
aI0
aI0
aa(lp39
F296.89288535788245
aF44.48384618268111
aF45.08904908012872
aF10087.878566471212
aF937.563115893946
aF460.50951241846616
aF0.013334638579978329
aF0.013334638579978329
aF0.013334638579978329
aF0.013334638579978329
aF0.013334638579978329
aF0.013334638579978329
aF0.013334638579978329
aF0.013334638579978329
aF0.013334638579978329
aF0.013334638579978329
aI0
aI0
aI0
aI0
aI0
aI0
aI0
aI0
aI0
aI0
aI0
aI0
aI0
aI0
aI0
aI0
aI0
aI0
aI0
aI0
aI0
aI0
aI0
aI3
aI0
aI0
aI0
aI0
aI0
aI0
aI0
aI0
aI0
aI0
aI0
aI2
aI0
aI0
aI0
aI0
aI4
aI0
aI0
aI0
aI2
aI0
aI0
aI0
aI0
aI0
aI0
aI5
aI0
aI0
aI25
aI0
aI0
aI17
aI38
aI0
aI3
aI24
aI0
aI0
aI0
aI5
aI1
aI0
aI1
aI49
aI4
aI0
aI3
aI8
aI6
aI0
aI0
aI0
aI0
aI0
aI0
aI0
aI0
aI0
aI0
aI0
aI0
aI0
aI2
aI0
aI0
aI0
aI1
aI0
aI0
aI0
aI0
aI0
aI0
aI0
aI1
aI0
aI0
aI0
aI2
aI0
aI0
aI0
aI1
aI0
aI0
aI0
aI0
aI0
aI0
aI0
aI0
aI0
aI0
aI0
aI0
aI0
aI0
aI0
aI0
aI0
aI0
aI0
aI0
aI0
aI0
aI0
aI0
aI0
aI0
aI0
aI0
aI0
aI0
aI0
aI0
aI0
aI0
aI0
aI0
aI0
aI0
aI8
aI0
aI0
aI0
aI46
aI0
aI0
aI0
aI0
aI0
aI0
aI0
aI0
aI0
aI0
aI0
aI19
aI0
aI0
aI0
aI11
aI0
aI0
aI0
aI0
aI0
aI0
aI0
aI0
aI0
aI0
aI0
aI0
aI0
aI0
aI0
aI0
aI0
aI0
aI0
aI0
aI0
aI0
aI0
aI0
aI0
aI0
aI0
aI0
aI0
aI0
aI0
aI0
aI0
aI0
aI0
aI0
aI0
aI0
aI0
aI0
aI0
aI0
aI0
aI0
aI45
aI0
aI0
aI0
aI19
aI0
aI0
aI0
aI0
aI0
aI0
aI0
aI0
aI0
aI0
aI0
aI7
aI0
aI0
aI0
aI52
aI0
aI0
aI0
aI0
aI0
aI0
aI0
aI0
aI0
aI0
aI0
aI0
aI0
aI0
aI0
aI0
aI0
aI0
aI0
aI0
aI0
aI0
aI0
aI0
aI0
aI0
aI0
aI0
aI0
aI0
aI0
aI0
aI0
aI0
aI0
aI0
aI0
aI0
aI0
aI0
aI0
aI0
aI0
aI30
aI0
aI0
aI0
aI12
aI0
aI0
aI0
aI0
aI0
aI0
aI0
aI0
aI0
aI0
aI0
aI0
aI0
aI0
aI0
aI42
aI0
aI0
aI0
aI0
aI0
aI0
aI0
aI0
aI0
aI0
aI0
aI0
aI0
aI0
aI0
aI0
aI0
aI0
aI0
aI0
aI0
aI0
aI0
aa(lp40
F291.50037952942114
aF12.827351739390755
aF22.886946960981536
aF9909.26538914557
aF524.8150042459841
aF286.95982116288945
aF0.3113570308490767
aF0.3113570308490767
aF0.3113570308490767
aF0.3113570308490767
aF0.3113570308490767
aF0.3113570308490767
aF0.3113570308490767
aF0.3113570308490767
aF0.3113570308490767
aF0.3113570308490767
aI0
aI0
aI0
aI0
aI0
aI0
aI0
aI0
aI0
aI0
aI0
aI0
aI0
aI0
aI0
aI0
aI0
aI0
aI0
aI0
aI0
aI0
aI0
aI2
aI0
aI0
aI0
aI0
aI0
aI0
aI0
aI0
aI0
aI0
aI0
aI2
aI0
aI0
aI0
aI1
aI0
aI0
aI0
aI0
aI11
aI0
aI0
aI0
aI0
aI0
aI5
aI2
aI0
aI0
aI30
aI0
aI5
aI50
aI10
aI0
aI2
aI1
aI0
aI0
aI0
aI0
aI1
aI0
aI0
aI37
aI24
aI4
aI0
aI12
aI11
aI0
aI1
aI0
aI1
aI0
aI0
aI0
aI0
aI0
aI0
aI0
aI0
aI0
aI0
aI0
aI0
aI0
aI3
aI0
aI0
aI0
aI0
aI0
aI0
aI0
aI0
aI0
aI0
aI0
aI0
aI0
aI0
aI0
aI0
aI0
aI0
aI0
aI0
aI0
aI0
aI0
aI0
aI0
aI0
aI0
aI3
aI0
aI0
aI0
aI0
aI0
aI0
aI0
aI0
aI0
aI2
aI7
aI0
aI0
aI0
aI0
aI0
aI0
aI0
aI0
aI0
aI0
aI0
aI0
aI0
aI0
aI0
aI7
aI0
aI0
aI0
aI42
aI0
aI0
aI0
aI0
aI0
aI0
aI0
aI0
aI0
aI0
aI0
aI25
aI0
aI0
aI0
aI14
aI0
aI0
aI0
aI0
aI0
aI0
aI0
aI0
aI0
aI0
aI0
aI0
aI0
aI0
aI0
aI0
aI0
aI0
aI0
aI0
aI0
aI0
aI0
aI0
aI0
aI0
aI0
aI0
aI0
aI0
aI0
aI0
aI0
aI0
aI0
aI0
aI0
aI0
aI0
aI0
aI0
aI0
aI0
aI0
aI41
aI0
aI0
aI0
aI22
aI0
aI0
aI0
aI0
aI0
aI0
aI0
aI0
aI0
aI0
aI0
aI12
aI0
aI0
aI0
aI46
aI0
aI0
aI0
aI0
aI0
aI0
aI0
aI0
aI0
aI0
aI0
aI0
aI0
aI0
aI0
aI0
aI0
aI0
aI0
aI0
aI0
aI0
aI0
aI0
aI0
aI0
aI0
aI0
aI0
aI0
aI0
aI0
aI0
aI0
aI0
aI0
aI0
aI0
aI0
aI0
aI0
aI0
aI0
aI29
aI0
aI0
aI0
aI21
aI0
aI0
aI0
aI0
aI0
aI0
aI0
aI0
aI0
aI0
aI0
aI9
aI0
aI0
aI0
aI38
aI0
aI0
aI0
aI0
aI0
aI0
aI0
aI0
aI0
aI0
aI0
aI0
aI0
aI0
aI0
aI0
aI0
aI0
aI0
aI0
aI0
aI0
aI0
aa(lp41
F374.2575270135114
aF-7.293777517208537
aF23.651848852277055
aF12343.895185641451
aF614.4303856169122
aF576.6883094186086
aF0.10416758683704073
aF0.10416758683704073
aF0.10416758683704073
aF0.10416758683704073
aF0.10416758683704073
aF0.10416758683704073
aF0.10416758683704073
aF0.10416758683704073
aF0.10416758683704073
aF0.10416758683704073
aI0
aI0
aI0
aI0
aI0
aI0
aI0
aI1
aI0
aI0
aI0
aI0
aI0
aI0
aI0
aI0
aI0
aI0
aI0
aI0
aI0
aI0
aI0
aI2
aI0
aI0
aI0
aI1
aI0
aI0
aI0
aI0
aI0
aI0
aI2
aI5
aI0
aI0
aI0
aI1
aI0
aI0
aI0
aI0
aI3
aI0
aI0
aI0
aI0
aI0
aI7
aI0
aI0
aI0
aI28
aI0
aI2
aI32
aI8
aI0
aI6
aI3
aI0
aI0
aI0
aI0
aI0
aI0
aI1
aI23
aI22
aI2
aI0
aI24
aI4
aI0
aI0
aI4
aI1
aI0
aI0
aI0
aI0
aI0
aI0
aI0
aI0
aI0
aI1
aI0
aI0
aI0
aI0
aI1
aI0
aI0
aI0
aI0
aI0
aI0
aI0
aI0
aI0
aI0
aI0
aI0
aI0
aI0
aI1
aI0
aI0
aI0
aI0
aI0
aI0
aI0
aI0
aI0
aI0
aI0
aI0
aI0
aI0
aI0
aI0
aI0
aI0
aI0
aI0
aI0
aI0
aI7
aI0
aI0
aI0
aI0
aI0
aI0
aI0
aI0
aI0
aI0
aI0
aI0
aI0
aI0
aI0
aI15
aI0
aI0
aI0
aI39
aI0
aI0
aI0
aI0
aI0
aI0
aI0
aI0
aI0
aI0
aI0
aI10
aI0
aI0
aI0
aI13
aI0
aI0
aI0
aI0
aI0
aI0
aI0
aI0
aI0
aI0
aI0
aI0
aI0
aI0
aI0
aI0
aI0
aI0
aI0
aI0
aI0
aI0
aI0
aI0
aI0
aI0
aI0
aI0
aI0
aI0
aI0
aI0
aI0
aI0
aI0
aI0
aI0
aI0
aI0
aI0
aI0
aI0
aI0
aI0
aI25
aI0
aI0
aI0
aI23
aI0
aI0
aI0
aI0
aI0
aI0
aI0
aI0
aI0
aI0
aI0
aI17
aI0
aI0
aI0
aI36
aI0
aI0
aI0
aI0
aI0
aI0
aI0
aI0
aI0
aI0
aI0
aI0
aI0
aI0
aI0
aI0
aI0
aI0
aI0
aI0
aI0
aI0
aI0
aI0
aI0
aI0
aI0
aI0
aI0
aI0
aI0
aI0
aI0
aI0
aI0
aI0
aI0
aI0
aI0
aI0
aI0
aI0
aI0
aI18
aI0
aI0
aI0
aI21
aI0
aI0
aI0
aI0
aI0
aI0
aI0
aI0
aI0
aI0
aI0
aI17
aI0
aI0
aI0
aI28
aI0
aI0
aI0
aI0
aI0
aI0
aI0
aI0
aI0
aI0
aI0
aI0
aI0
aI0
aI0
aI0
aI0
aI0
aI0
aI0
aI0
aI0
aI0
aa(lp42
F409.3224425679017
aF22.416966614586023
aF-13.931092581484211
aF10356.546207641599
aF540.8105213405673
aF489.98467025157436
aF0.05641659042493487
aF0.05641659042493487
aF0.05641659042493487
aF0.05641659042493487
aF0.05641659042493487
aF0.05641659042493487
aF0.05641659042493487
aF0.05641659042493487
aF0.05641659042493487
aF0.05641659042493487
aI0
aI0
aI0
aI0
aI0
aI0
aI0
aI0
aI0
aI0
aI0
aI0
aI0
aI0
aI0
aI0
aI0
aI0
aI0
aI0
aI0
aI0
aI0
aI0
aI0
aI0
aI0
aI0
aI0
aI0
aI0
aI0
aI0
aI0
aI0
aI0
aI0
aI0
aI0
aI2
aI1
aI0
aI0
aI0
aI1
aI0
aI0
aI0
aI0
aI0
aI7
aI4
aI0
aI0
aI29
aI0
aI12
aI45
aI8
aI0
aI2
aI0
aI0
aI0
aI0
aI0
aI0
aI0
aI0
aI13
aI32
aI1
aI1
aI37
aI2
aI0
aI0
aI4
aI1
aI0
aI0
aI0
aI0
aI0
aI3
aI0
aI0
aI0
aI2
aI0
aI0
aI0
aI0
aI0
aI0
aI0
aI0
aI0
aI0
aI0
aI0
aI0
aI0
aI0
aI1
aI0
aI0
aI0
aI0
aI0
aI0
aI0
aI0
aI0
aI0
aI0
aI0
aI0
aI0
aI0
aI0
aI0
aI0
aI0
aI0
aI1
aI0
aI0
aI0
aI0
aI0
aI4
aI0
aI0
aI0
aI5
aI0
aI0
aI0
aI0
aI0
aI0
aI0
aI0
aI0
aI0
aI0
aI5
aI0
aI0
aI0
aI44
aI0
aI0
aI0
aI0
aI0
aI0
aI0
aI0
aI0
aI0
aI0
aI13
aI0
aI0
aI0
aI25
aI0
aI0
aI0
aI0
aI0
aI0
aI0
aI0
aI0
aI0
aI0
aI2
aI0
aI0
aI0
aI0
aI0
aI0
aI0
aI0
aI0
aI0
aI0
aI0
aI0
aI0
aI0
aI0
aI0
aI0
aI0
aI0
aI0
aI0
aI0
aI0
aI0
aI0
aI0
aI0
aI0
aI0
aI0
aI0
aI36
aI0
aI0
aI0
aI23
aI0
aI0
aI0
aI0
aI0
aI0
aI0
aI0
aI0
aI0
aI0
aI12
aI0
aI0
aI0
aI40
aI0
aI0
aI0
aI0
aI0
aI0
aI0
aI0
aI0
aI0
aI0
aI0
aI0
aI0
aI0
aI0
aI0
aI0
aI0
aI0
aI0
aI0
aI0
aI0
aI0
aI0
aI0
aI0
aI0
aI0
aI0
aI0
aI0
aI0
aI0
aI0
aI0
aI0
aI0
aI0
aI0
aI0
aI0
aI20
aI0
aI0
aI0
aI28
aI0
aI0
aI0
aI0
aI0
aI0
aI0
aI0
aI0
aI0
aI0
aI26
aI0
aI0
aI0
aI24
aI0
aI0
aI0
aI0
aI0
aI0
aI0
aI0
aI0
aI0
aI0
aI0
aI0
aI0
aI0
aI0
aI0
aI0
aI0
aI0
aI0
aI0
aI0
aa(lp43
F408.94464814795697
aF-3.7239600112744276
aF11.715466474288226
aF12699.36993366604
aF461.73090041367084
aF464.11699214435345
aF0.05856943755513796
aF0.05856943755513796
aF0.05856943755513796
aF0.05856943755513796
aF0.05856943755513796
aF0.05856943755513796
aF0.05856943755513796
aF0.05856943755513796
aF0.05856943755513796
aF0.05856943755513796
aI0
aI0
aI0
aI0
aI0
aI0
aI0
aI0
aI0
aI0
aI0
aI0
aI0
aI0
aI0
aI0
aI0
aI0
aI0
aI0
aI0
aI0
aI0
aI0
aI0
aI0
aI0
aI0
aI0
aI0
aI0
aI0
aI0
aI0
aI0
aI4
aI0
aI0
aI0
aI0
aI0
aI0
aI0
aI0
aI3
aI0
aI0
aI0
aI0
aI0
aI0
aI3
aI0
aI1
aI40
aI2
aI5
aI33
aI1
aI0
aI4
aI5
aI0
aI0
aI0
aI0
aI1
aI0
aI0
aI8
aI34
aI0
aI2
aI29
aI9
aI0
aI0
aI1
aI1
aI0
aI0
aI0
aI0
aI0
aI2
aI0
aI0
aI0
aI0
aI0
aI0
aI0
aI1
aI1
aI2
aI0
aI0
aI0
aI0
aI0
aI0
aI0
aI0
aI0
aI0
aI0
aI0
aI0
aI0
aI0
aI0
aI0
aI0
aI0
aI0
aI0
aI0
aI2
aI0
aI0
aI1
aI0
aI0
aI0
aI0
aI0
aI0
aI0
aI0
aI0
aI6
aI7
aI0
aI0
aI0
aI3
aI0
aI0
aI0
aI0
aI0
aI0
aI0
aI0
aI0
aI0
aI2
aI3
aI0
aI0
aI0
aI40
aI0
aI0
aI0
aI0
aI0
aI0
aI0
aI0
aI0
aI0
aI2
aI14
aI0
aI0
aI0
aI17
aI0
aI0
aI0
aI0
aI0
aI0
aI0
aI0
aI0
aI0
aI0
aI0
aI0
aI0
aI0
aI0
aI0
aI0
aI0
aI0
aI0
aI0
aI0
aI0
aI0
aI0
aI0
aI0
aI0
aI0
aI0
aI0
aI0
aI0
aI0
aI0
aI0
aI0
aI0
aI0
aI0
aI0
aI0
aI0
aI24
aI0
aI0
aI0
aI26
aI0
aI0
aI0
aI0
aI0
aI0
aI0
aI0
aI0
aI0
aI0
aI18
aI0
aI0
aI0
aI33
aI0
aI0
aI0
aI0
aI0
aI0
aI0
aI0
aI0
aI0
aI0
aI0
aI0
aI0
aI0
aI0
aI0
aI0
aI0
aI0
aI0
aI0
aI0
aI0
aI0
aI0
aI0
aI0
aI0
aI0
aI0
aI0
aI0
aI0
aI0
aI0
aI0
aI0
aI0
aI0
aI0
aI0
aI0
aI15
aI0
aI0
aI0
aI31
aI0
aI0
aI0
aI0
aI0
aI0
aI0
aI0
aI0
aI0
aI0
aI30
aI0
aI0
aI0
aI18
aI0
aI0
aI0
aI0
aI0
aI0
aI0
aI0
aI0
aI0
aI0
aI0
aI0
aI0
aI0
aI0
aI0
aI0
aI0
aI0
aI0
aI0
aI0
aa(lp44
F591.0317580117061
aF-2.9841155053632797
aF6.246359634715141
aF11571.073299381036
aF300.099832567303
aF363.7057918331712
aF0.0019473837763230035
aF0.0019473837763230035
aF0.0019473837763230035
aF0.0019473837763230035
aF0.0019473837763230035
aF0.0019473837763230035
aF0.0019473837763230035
aF0.0019473837763230035
aF0.0019473837763230035
aF0.0019473837763230035
aI0
aI0
aI0
aI0
aI0
aI0
aI0
aI0
aI0
aI0
aI0
aI0
aI0
aI0
aI0
aI0
aI0
aI0
aI0
aI0
aI0
aI0
aI0
aI1
aI0
aI0
aI0
aI0
aI0
aI0
aI0
aI0
aI0
aI0
aI0
aI0
aI0
aI0
aI0
aI2
aI0
aI0
aI0
aI0
aI0
aI0
aI0
aI0
aI0
aI0
aI1
aI1
aI0
aI6
aI19
aI2
aI2
aI27
aI2
aI0
aI0
aI3
aI0
aI0
aI0
aI0
aI0
aI0
aI0
aI4
aI28
aI1
aI8
aI16
aI10
aI2
aI0
aI3
aI0
aI0
aI0
aI0
aI0
aI0
aI0
aI0
aI0
aI0
aI3
aI0
aI0
aI0
aI1
aI0
aI0
aI0
aI0
aI0
aI0
aI0
aI0
aI0
aI0
aI0
aI3
aI0
aI0
aI0
aI1
aI1
aI0
aI0
aI0
aI0
aI0
aI0
aI0
aI0
aI0
aI0
aI0
aI1
aI1
aI0
aI0
aI0
aI0
aI0
aI0
aI0
aI0
aI0
aI0
aI0
aI0
aI0
aI0
aI0
aI0
aI0
aI0
aI0
aI0
aI0
aI0
aI0
aI0
aI0
aI0
aI0
aI0
aI63
aI0
aI0
aI0
aI0
aI0
aI0
aI0
aI0
aI0
aI0
aI1
aI3
aI0
aI0
aI0
aI16
aI0
aI0
aI0
aI0
aI0
aI0
aI0
aI0
aI0
aI0
aI0
aI0
aI0
aI0
aI0
aI0
aI0
aI0
aI0
aI0
aI0
aI0
aI0
aI0
aI0
aI0
aI0
aI0
aI0
aI0
aI0
aI0
aI0
aI0
aI0
aI0
aI0
aI0
aI0
aI0
aI0
aI0
aI0
aI0
aI14
aI0
aI0
aI0
aI20
aI0
aI0
aI0
aI0
aI0
aI0
aI0
aI0
aI0
aI0
aI0
aI12
aI0
aI0
aI0
aI20
aI0
aI0
aI0
aI0
aI0
aI0
aI0
aI0
aI0
aI0
aI0
aI0
aI0
aI0
aI0
aI0
aI0
aI0
aI0
aI0
aI0
aI0
aI0
aI0
aI0
aI0
aI0
aI0
aI0
aI0
aI0
aI0
aI0
aI0
aI0
aI0
aI0
aI0
aI0
aI0
aI0
aI0
aI0
aI4
aI0
aI0
aI0
aI34
aI0
aI0
aI0
aI0
aI0
aI0
aI0
aI0
aI0
aI0
aI0
aI28
aI0
aI0
aI0
aI17
aI0
aI0
aI0
aI0
aI0
aI0
aI0
aI0
aI0
aI0
aI0
aI0
aI0
aI0
aI0
aI0
aI0
aI0
aI0
aI0
aI0
aI0
aI0
aa(lp45
F391.8303191000283
aF7.532688762348436
aF40.947740545686855
aF10041.902388820412
aF387.77142437913164
aF467.21214191207105
aF0.34360891580581665
aF0.34360891580581665
aF0.34360891580581665
aF0.34360891580581665
aF0.34360891580581665
aF0.34360891580581665
aF0.34360891580581665
aF0.34360891580581665
aF0.34360891580581665
aF0.34360891580581665
aI0
aI0
aI0
aI0
aI0
aI0
aI0
aI0
aI0
aI0
aI0
aI0
aI0
aI0
aI0
aI0
aI0
aI0
aI0
aI0
aI0
aI0
aI0
aI0
aI0
aI0
aI0
aI0
aI0
aI0
aI0
aI0
aI0
aI0
aI0
aI2
aI0
aI0
aI0
aI0
aI0
aI0
aI0
aI0
aI1
aI0
aI0
aI0
aI0
aI0
aI1
aI1
aI0
aI1
aI32
aI14
aI0
aI29
aI8
aI0
aI4
aI5
aI0
aI0
aI0
aI0
aI1
aI0
aI0
aI9
aI32
aI0
aI1
aI13
aI8
aI0
aI0
aI0
aI0
aI0
aI0
aI0
aI0
aI0
aI0
aI0
aI0
aI0
aI0
aI0
aI0
aI0
aI0
aI0
aI0
aI0
aI0
aI0
aI0
aI0
aI0
aI0
aI0
aI0
aI0
aI0
aI0
aI0
aI1
aI0
aI0
aI0
aI0
aI0
aI0
aI0
aI0
aI0
aI0
aI0
aI2
aI0
aI0
aI0
aI2
aI1
aI0
aI0
aI0
aI0
aI1
aI5
aI0
aI0
aI2
aI0
aI0
aI0
aI0
aI0
aI0
aI0
aI0
aI0
aI0
aI0
aI0
aI14
aI0
aI0
aI0
aI25
aI0
aI0
aI0
aI0
aI0
aI0
aI0
aI0
aI0
aI0
aI0
aI14
aI0
aI0
aI0
aI9
aI0
aI0
aI0
aI0
aI0
aI0
aI0
aI0
aI0
aI0
aI0
aI0
aI0
aI0
aI0
aI0
aI0
aI0
aI0
aI0
aI0
aI0
aI0
aI0
aI0
aI0
aI0
aI0
aI0
aI0
aI0
aI0
aI0
aI0
aI0
aI0
aI0
aI0
aI0
aI0
aI0
aI0
aI0
aI0
aI19
aI0
aI0
aI0
aI28
aI0
aI0
aI0
aI0
aI0
aI0
aI0
aI0
aI0
aI0
aI0
aI23
aI0
aI0
aI0
aI28
aI0
aI0
aI0
aI0
aI0
aI0
aI0
aI0
aI0
aI0
aI0
aI0
aI0
aI0
aI0
aI0
aI0
aI0
aI0
aI0
aI0
aI0
aI0
aI0
aI0
aI0
aI0
aI0
aI0
aI0
aI0
aI0
aI0
aI0
aI0
aI0
aI0
aI0
aI0
aI0
aI0
aI0
aI0
aI17
aI0
aI0
aI0
aI16
aI0
aI0
aI0
aI0
aI0
aI0
aI0
aI0
aI0
aI0
aI0
aI9
aI0
aI0
aI0
aI28
aI0
aI0
aI0
aI0
aI0
aI0
aI0
aI0
aI0
aI0
aI0
aI0
aI0
aI0
aI0
aI0
aI0
aI0
aI0
aI0
aI0
aI0
aI0
aa(lp46
F495.74830656532964
aF-60.352921581129415
aF28.534054734525736
aF10975.035360621376
aF610.2055187034189
aF357.2260421771893
aF0.026893222119404512
aF0.026893222119404512
aF0.026893222119404512
aF0.026893222119404512
aF0.026893222119404512
aF0.026893222119404512
aF0.026893222119404512
aF0.026893222119404512
aF0.026893222119404512
aF0.026893222119404512
aI0
aI0
aI0
aI0
aI0
aI0
aI0
aI0
aI0
aI0
aI0
aI0
aI0
aI0
aI0
aI0
aI0
aI0
aI0
aI0
aI0
aI0
aI0
aI0
aI0
aI0
aI0
aI0
aI0
aI0
aI0
aI0
aI0
aI0
aI0
aI4
aI0
aI0
aI0
aI0
aI0
aI0
aI0
aI0
aI0
aI0
aI0
aI0
aI0
aI0
aI10
aI5
aI0
aI8
aI20
aI0
aI0
aI24
aI0
aI0
aI3
aI3
aI0
aI0
aI0
aI1
aI0
aI0
aI0
aI0
aI22
aI1
aI0
aI9
aI24
aI0
aI0
aI1
aI0
aI0
aI0
aI0
aI0
aI0
aI1
aI0
aI0
aI0
aI0
aI0
aI0
aI0
aI0
aI0
aI0
aI0
aI0
aI0
aI0
aI0
aI1
aI0
aI0
aI0
aI0
aI0
aI0
aI0
aI0
aI1
aI0
aI0
aI0
aI0
aI0
aI0
aI0
aI0
aI0
aI0
aI1
aI0
aI0
aI0
aI0
aI0
aI0
aI0
aI0
aI0
aI0
aI4
aI0
aI0
aI0
aI10
aI0
aI0
aI0
aI0
aI0
aI0
aI0
aI0
aI0
aI0
aI0
aI23
aI0
aI0
aI0
aI0
aI0
aI0
aI0
aI0
aI0
aI0
aI0
aI0
aI0
aI0
aI0
aI25
aI0
aI0
aI0
aI0
aI0
aI0
aI0
aI0
aI0
aI0
aI0
aI0
aI0
aI0
aI0
aI0
aI0
aI0
aI0
aI0
aI0
aI0
aI0
aI0
aI0
aI0
aI0
aI0
aI0
aI0
aI0
aI0
aI0
aI0
aI0
aI0
aI0
aI0
aI0
aI0
aI0
aI0
aI0
aI0
aI0
aI0
aI0
aI0
aI8
aI0
aI0
aI0
aI27
aI0
aI0
aI0
aI0
aI0
aI0
aI0
aI0
aI0
aI0
aI0
aI24
aI0
aI0
aI0
aI18
aI0
aI0
aI0
aI0
aI0
aI0
aI0
aI0
aI0
aI0
aI0
aI0
aI0
aI0
aI0
aI0
aI0
aI0
aI0
aI0
aI0
aI0
aI0
aI0
aI0
aI0
aI0
aI0
aI0
aI0
aI0
aI0
aI0
aI0
aI0
aI0
aI0
aI0
aI0
aI0
aI0
aI0
aI0
aI4
aI0
aI0
aI0
aI26
aI0
aI0
aI0
aI0
aI0
aI0
aI0
aI0
aI0
aI0
aI0
aI26
aI0
aI0
aI0
aI6
aI0
aI0
aI0
aI0
aI0
aI0
aI0
aI0
aI0
aI0
aI0
aI0
aI0
aI0
aI0
aI0
aI0
aI0
aI0
aI0
aI0
aI0
aI0
aa(lp47
F426.90766794962155
aF17.216639648358605
aF64.2804693429159
aF7809.613402235409
aF332.89472507160565
aF368.3962835303926
aF0.036512110190446576
aF0.036512110190446576
aF0.036512110190446576
aF0.036512110190446576
aF0.036512110190446576
aF0.036512110190446576
aF0.036512110190446576
aF0.036512110190446576
aF0.036512110190446576
aF0.036512110190446576
aI0
aI0
aI0
aI0
aI0
aI0
aI0
aI0
aI0
aI0
aI0
aI0
aI0
aI0
aI0
aI0
aI0
aI0
aI0
aI0
aI0
aI0
aI0
aI0
aI0
aI0
aI0
aI0
aI0
aI0
aI0
aI0
aI0
aI0
aI0
aI3
aI0
aI0
aI0
aI2
aI0
aI0
aI0
aI0
aI0
aI0
aI0
aI0
aI0
aI0
aI2
aI8
aI0
aI0
aI17
aI1
aI0
aI26
aI16
aI0
aI0
aI5
aI0
aI0
aI0
aI2
aI0
aI0
aI1
aI36
aI12
aI0
aI3
aI14
aI4
aI0
aI1
aI2
aI1
aI0
aI0
aI0
aI0
aI0
aI0
aI0
aI0
aI0
aI0
aI0
aI0
aI0
aI0
aI1
aI0
aI1
aI0
aI0
aI0
aI0
aI0
aI0
aI0
aI0
aI0
aI0
aI0
aI0
aI0
aI0
aI0
aI0
aI0
aI0
aI0
aI0
aI0
aI0
aI0
aI0
aI0
aI0
aI0
aI0
aI0
aI0
aI0
aI0
aI0
aI0
aI0
aI3
aI0
aI0
aI5
aI14
aI0
aI0
aI0
aI0
aI0
aI0
aI0
aI0
aI0
aI0
aI0
aI4
aI0
aI0
aI0
aI27
aI0
aI0
aI0
aI0
aI0
aI0
aI0
aI0
aI0
aI0
aI0
aI13
aI0
aI0
aI0
aI12
aI0
aI0
aI0
aI0
aI0
aI0
aI0
aI0
aI0
aI0
aI0
aI0
aI0
aI0
aI0
aI0
aI0
aI0
aI0
aI0
aI0
aI0
aI0
aI0
aI0
aI0
aI0
aI0
aI0
aI0
aI0
aI0
aI0
aI0
aI0
aI0
aI0
aI0
aI0
aI0
aI0
aI0
aI0
aI0
aI21
aI0
aI0
aI0
aI18
aI0
aI0
aI0
aI0
aI0
aI0
aI0
aI0
aI0
aI0
aI0
aI13
aI0
aI0
aI0
aI28
aI0
aI0
aI0
aI0
aI0
aI0
aI0
aI0
aI0
aI0
aI0
aI0
aI0
aI0
aI0
aI0
aI0
aI0
aI0
aI0
aI0
aI0
aI0
aI0
aI0
aI0
aI0
aI0
aI0
aI0
aI0
aI0
aI0
aI0
aI0
aI0
aI0
aI0
aI0
aI0
aI0
aI0
aI0
aI23
aI0
aI0
aI0
aI15
aI0
aI0
aI0
aI0
aI0
aI0
aI0
aI0
aI0
aI0
aI0
aI6
aI0
aI0
aI0
aI34
aI0
aI0
aI0
aI0
aI0
aI0
aI0
aI0
aI0
aI0
aI0
aI0
aI0
aI0
aI0
aI0
aI0
aI0
aI0
aI0
aI0
aI0
aI0
aa(lp48
F470.6667251555006
aF2.605611064072782
aF51.25764325747372
aF11025.775105367675
aF346.6078475257804
aF441.2233666132506
aF0.03352284686825763
aF0.03352284686825763
aF0.03352284686825763
aF0.03352284686825763
aF0.03352284686825763
aF0.03352284686825763
aF0.03352284686825763
aF0.03352284686825763
aF0.03352284686825763
aF0.03352284686825763
aI0
aI0
aI0
aI0
aI0
aI0
aI0
aI0
aI0
aI0
aI0
aI0
aI0
aI0
aI0
aI0
aI0
aI0
aI0
aI0
aI0
aI0
aI0
aI1
aI0
aI0
aI0
aI0
aI0
aI0
aI0
aI0
aI0
aI0
aI0
aI1
aI0
aI0
aI0
aI0
aI0
aI0
aI0
aI0
aI0
aI0
aI0
aI0
aI0
aI0
aI1
aI1
aI0
aI0
aI33
aI7
aI3
aI31
aI9
aI0
aI0
aI0
aI0
aI0
aI0
aI1
aI0
aI0
aI0
aI20
aI19
aI0
aI1
aI35
aI5
aI0
aI0
aI0
aI0
aI0
aI1
aI0
aI0
aI0
aI2
aI0
aI0
aI0
aI1
aI0
aI0
aI0
aI0
aI1
aI2
aI0
aI0
aI0
aI0
aI0
aI0
aI0
aI0
aI0
aI1
aI0
aI0
aI0
aI0
aI0
aI0
aI1
aI0
aI0
aI0
aI0
aI0
aI0
aI0
aI0
aI0
aI0
aI0
aI0
aI0
aI0
aI0
aI0
aI0
aI0
aI0
aI0
aI0
aI0
aI0
aI9
aI0
aI0
aI0
aI0
aI0
aI0
aI0
aI0
aI0
aI0
aI0
aI4
aI0
aI0
aI0
aI48
aI0
aI0
aI0
aI0
aI0
aI0
aI0
aI0
aI0
aI0
aI0
aI2
aI0
aI0
aI0
aI27
aI0
aI0
aI0
aI0
aI0
aI0
aI0
aI0
aI0
aI0
aI0
aI0
aI0
aI0
aI0
aI0
aI0
aI0
aI0
aI0
aI0
aI0
aI0
aI0
aI0
aI0
aI0
aI0
aI0
aI0
aI0
aI0
aI0
aI0
aI0
aI0
aI0
aI0
aI0
aI0
aI0
aI0
aI0
aI0
aI19
aI0
aI0
aI0
aI23
aI0
aI0
aI0
aI0
aI0
aI0
aI0
aI0
aI0
aI0
aI0
aI19
aI0
aI0
aI0
aI26
aI0
aI0
aI0
aI0
aI0
aI0
aI0
aI0
aI0
aI0
aI0
aI0
aI0
aI0
aI0
aI0
aI0
aI0
aI0
aI0
aI0
aI0
aI0
aI0
aI0
aI0
aI0
aI0
aI0
aI0
aI0
aI0
aI0
aI0
aI0
aI0
aI0
aI0
aI0
aI0
aI0
aI0
aI0
aI16
aI0
aI0
aI0
aI28
aI0
aI0
aI0
aI0
aI0
aI0
aI0
aI0
aI0
aI0
aI0
aI28
aI0
aI0
aI0
aI18
aI0
aI0
aI0
aI0
aI0
aI0
aI0
aI0
aI0
aI0
aI0
aI0
aI0
aI0
aI0
aI0
aI0
aI0
aI0
aI0
aI0
aI0
aI0
aa(lp49
F-21.002188424748162
aF76.49005441824058
aF13.443332415661603
aF1399.6097393762184
aF258.66347681815984
aF41.894757106271534
aF0.037298901371573163
aF0.037298901371573163
aF0.037298901371573163
aF0.037298901371573163
aF0.037298901371573163
aF0.037298901371573163
aF0.037298901371573163
aF0.037298901371573163
aF0.037298901371573163
aF0.037298901371573163
aI0
aI0
aI0
aI0
aI1
aI5
aI7
aI0
aI1
aI0
aI11
aI2
aI0
aI9
aI8
aI0
aI2
aI1
aI0
aI0
aI0
aI0
aI0
aI0
aI4
aI0
aI0
aI12
aI2
aI0
aI1
aI6
aI0
aI0
aI1
aI1
aI0
aI0
aI0
aI0
aI0
aI0
aI0
aI0
aI0
aI0
aI0
aI0
aI0
aI0
aI1
aI0
aI0
aI15
aI3
aI0
aI0
aI0
aI10
aI0
aI0
aI10
aI5
aI0
aI0
aI1
aI1
aI0
aI1
aI5
aI5
aI1
aI1
aI2
aI9
aI0
aI0
aI1
aI2
aI0
aI1
aI0
aI2
aI3
aI0
aI0
aI0
aI1
aI0
aI0
aI0
aI1
aI1
aI0
aI1
aI1
aI0
aI2
aI2
aI0
aI2
aI0
aI0
aI1
aI4
aI0
aI0
aI1
aI0
aI0
aI0
aI0
aI0
aI0
aI0
aI0
aI2
aI18
aI1
aI0
aI1
aI1
aI0
aI0
aI0
aI1
aI0
aI0
aI0
aI0
aI0
aI0
aI0
aI0
aI0
aI0
aI0
aI0
aI0
aI0
aI0
aI0
aI0
aI0
aI0
aI0
aI0
aI0
aI0
aI0
aI0
aI63
aI0
aI0
aI0
aI0
aI0
aI0
aI0
aI0
aI0
aI0
aI0
aI0
aI0
aI0
aI0
aI13
aI0
aI0
aI0
aI0
aI0
aI0
aI0
aI0
aI0
aI0
aI0
aI0
aI0
aI0
aI0
aI0
aI0
aI0
aI0
aI0
aI0
aI0
aI0
aI0
aI0
aI0
aI0
aI0
aI0
aI0
aI0
aI0
aI0
aI0
aI0
aI0
aI0
aI0
aI0
aI0
aI0
aI0
aI0
aI0
aI12
aI0
aI0
aI0
aI58
aI0
aI0
aI0
aI0
aI0
aI0
aI0
aI0
aI0
aI0
aI0
aI32
aI0
aI0
aI0
aI16
aI0
aI0
aI0
aI0
aI0
aI0
aI0
aI0
aI0
aI0
aI0
aI0
aI0
aI0
aI0
aI0
aI0
aI0
aI0
aI0
aI0
aI0
aI0
aI0
aI0
aI0
aI0
aI0
aI0
aI0
aI0
aI0
aI0
aI0
aI0
aI0
aI0
aI0
aI0
aI0
aI0
aI0
aI0
aI15
aI0
aI0
aI0
aI14
aI0
aI0
aI0
aI0
aI0
aI0
aI0
aI0
aI0
aI0
aI0
aI41
aI0
aI0
aI0
aI6
aI0
aI0
aI0
aI0
aI0
aI0
aI0
aI0
aI0
aI0
aI0
aI0
aI0
aI0
aI0
aI0
aI0
aI0
aI0
aI0
aI0
aI0
aI0
aa(lp50
F17.623911575111496
aF-30.027716975139718
aF90.82424979960773
aF1583.0383508144557
aF741.1236452690981
aF356.93797499575135
aF0.12310387963747457
aF0.12310387963747457
aF0.12310387963747457
aF0.12310387963747457
aF0.12310387963747457
aF0.12310387963747457
aF0.12310387963747457
aF0.12310387963747457
aF0.12310387963747457
aF0.12310387963747457
aI1
aI1
aI5
aI0
aI2
aI0
aI1
aI0
aI0
aI2
aI6
aI0
aI0
aI5
aI18
aI1
aI1
aI2
aI11
aI8
aI4
aI0
aI0
aI3
aI5
aI0
aI0
aI0
aI0
aI0
aI0
aI4
aI0
aI1
aI11
aI7
aI0
aI0
aI0
aI5
aI1
aI0
aI0
aI0
aI0
aI1
aI0
aI0
aI0
aI6
aI2
aI0
aI0
aI1
aI4
aI1
aI0
aI0
aI6
aI0
aI1
aI8
aI12
aI0
aI0
aI1
aI1
aI1
aI0
aI2
aI2
aI0
aI0
aI1
aI7
aI2
aI0
aI0
aI5
aI3
aI5
aI0
aI1
aI0
aI0
aI0
aI0
aI0
aI0
aI0
aI0
aI1
aI0
aI0
aI1
aI4
aI3
aI2
aI0
aI0
aI1
aI0
aI0
aI0
aI2
aI0
aI0
aI1
aI0
aI4
aI1
aI1
aI5
aI5
aI1
aI0
aI3
aI8
aI1
aI0
aI0
aI1
aI1
aI1
aI0
aI2
aI4
aI0
aI0
aI0
aI0
aI0
aI0
aI0
aI0
aI0
aI0
aI0
aI0
aI0
aI0
aI0
aI0
aI0
aI0
aI0
aI0
aI0
aI0
aI0
aI0
aI10
aI0
aI0
aI0
aI2
aI0
aI0
aI0
aI0
aI0
aI0
aI0
aI8
aI0
aI0
aI0
aI38
aI0
aI0
aI0
aI26
aI0
aI0
aI0
aI0
aI0
aI0
aI0
aI0
aI0
aI0
aI0
aI0
aI0
aI0
aI0
aI0
aI0
aI0
aI0
aI0
aI0
aI0
aI0
aI0
aI0
aI0
aI0
aI0
aI0
aI0
aI0
aI0
aI0
aI0
aI0
aI0
aI0
aI0
aI0
aI0
aI30
aI0
aI0
aI0
aI22
aI0
aI0
aI0
aI0
aI0
aI0
aI0
aI0
aI0
aI0
aI0
aI30
aI0
aI0
aI0
aI65
aI0
aI0
aI0
aI0
aI0
aI0
aI0
aI0
aI0
aI0
aI0
aI0
aI0
aI0
aI0
aI0
aI0
aI0
aI0
aI0
aI0
aI0
aI0
aI0
aI0
aI0
aI0
aI0
aI0
aI0
aI0
aI0
aI0
aI0
aI0
aI0
aI0
aI0
aI0
aI0
aI0
aI0
aI0
aI20
aI0
aI0
aI0
aI12
aI0
aI0
aI0
aI0
aI0
aI0
aI0
aI0
aI0
aI0
aI0
aI8
aI0
aI0
aI0
aI44
aI0
aI0
aI0
aI0
aI0
aI0
aI0
aI0
aI0
aI0
aI0
aI0
aI0
aI0
aI0
aI0
aI0
aI0
aI0
aI0
aI0
aI0
aI0
aa(lp51
F-25.78564631737407
aF-61.99932457089288
aF99.3376404445344
aF683.0473675893655
aF789.9442206795839
aF247.50838597424288
aF5.217066870546244
aF5.217066870546244
aF5.217066870546244
aF5.217066870546244
aF5.217066870546244
aF5.217066870546244
aF5.217066870546244
aF5.217066870546244
aF5.217066870546244
aF5.217066870546244
aI0
aI0
aI3
aI0
aI1
aI2
aI5
aI1
aI0
aI1
aI4
aI0
aI0
aI7
aI12
aI0
aI3
aI1
aI20
aI5
aI4
aI0
aI0
aI3
aI0
aI0
aI0
aI5
aI0
aI2
aI0
aI1
aI0
aI0
aI21
aI7
aI0
aI0
aI0
aI1
aI0
aI0
aI0
aI0
aI0
aI2
aI5
aI0
aI0
aI0
aI0
aI0
aI0
aI1
aI0
aI0
aI1
aI1
aI0
aI0
aI0
aI9
aI6
aI0
aI0
aI0
aI0
aI0
aI1
aI0
aI0
aI0
aI0
aI0
aI2
aI1
aI0
aI1
aI2
aI1
aI0
aI0
aI0
aI1
aI0
aI0
aI0
aI0
aI2
aI0
aI0
aI0
aI1
aI3
aI6
aI1
aI10
aI1
aI0
aI2
aI3
aI0
aI0
aI3
aI2
aI0
aI0
aI1
aI0
aI2
aI0
aI2
aI2
aI10
aI1
aI1
aI1
aI1
aI6
aI3
aI3
aI2
aI1
aI0
aI0
aI2
aI0
aI0
aI0
aI0
aI0
aI0
aI0
aI0
aI0
aI0
aI0
aI0
aI0
aI0
aI0
aI0
aI0
aI0
aI0
aI0
aI0
aI41
aI0
aI0
aI0
aI30
aI0
aI0
aI0
aI0
aI0
aI0
aI0
aI0
aI0
aI0
aI0
aI0
aI0
aI0
aI0
aI10
aI0
aI0
aI0
aI0
aI0
aI0
aI0
aI0
aI0
aI0
aI0
aI0
aI0
aI0
aI0
aI0
aI0
aI0
aI0
aI0
aI0
aI0
aI0
aI0
aI0
aI0
aI0
aI0
aI0
aI0
aI0
aI0
aI0
aI0
aI0
aI0
aI0
aI0
aI0
aI0
aI0
aI0
aI0
aI0
aI23
aI0
aI0
aI0
aI30
aI0
aI0
aI0
aI0
aI0
aI0
aI0
aI0
aI0
aI0
aI0
aI32
aI0
aI0
aI0
aI49
aI0
aI0
aI0
aI0
aI0
aI0
aI0
aI0
aI0
aI0
aI0
aI0
aI0
aI0
aI0
aI0
aI0
aI0
aI0
aI0
aI0
aI0
aI0
aI0
aI0
aI0
aI0
aI0
aI0
aI0
aI0
aI0
aI0
aI0
aI0
aI0
aI0
aI0
aI0
aI0
aI0
aI0
aI0
aI9
aI0
aI0
aI0
aI47
aI0
aI0
aI0
aI0
aI0
aI0
aI0
aI0
aI0
aI0
aI0
aI16
aI0
aI0
aI0
aI9
aI0
aI0
aI0
aI0
aI0
aI0
aI0
aI0
aI0
aI0
aI0
aI0
aI0
aI0
aI0
aI0
aI0
aI0
aI0
aI0
aI0
aI0
aI0
aa(lp52
F25.78221384884609
aF252.98467594818067
aF-107.67587213816937
aF378.796463811005
aF1527.2965333943705
aF186.1509248546523
aF0.08583679871031763
aF0.08583679871031763
aF0.08583679871031763
aF0.08583679871031763
aF0.08583679871031763
aF0.08583679871031763
aF0.08583679871031763
aF0.08583679871031763
aF0.08583679871031763
aF0.08583679871031763
aI1
aI2
aI1
aI1
aI0
aI0
aI0
aI0
aI1
aI0
aI1
aI0
aI1
aI1
aI1
aI0
aI4
aI7
aI4
aI2
aI2
aI0
aI0
aI0
aI7
aI0
aI0
aI1
aI1
aI18
aI1
aI0
aI4
aI2
aI0
aI0
aI2
aI0
aI0
aI3
aI1
aI0
aI0
aI1
aI3
aI18
aI4
aI1
aI1
aI0
aI2
aI0
aI0
aI0
aI0
aI0
aI0
aI1
aI0
aI0
aI0
aI2
aI0
aI1
aI0
aI1
aI3
aI1
aI0
aI0
aI2
aI0
aI2
aI0
aI0
aI0
aI1
aI1
aI0
aI0
aI0
aI1
aI17
aI3
aI0
aI0
aI0
aI1
aI2
aI0
aI0
aI0
aI2
aI7
aI4
aI0
aI0
aI0
aI0
aI1
aI0
aI0
aI0
aI3
aI2
aI0
aI0
aI1
aI6
aI2
aI1
aI1
aI0
aI0
aI2
aI0
aI0
aI0
aI5
aI3
aI1
aI2
aI0
aI0
aI0
aI0
aI0
aI0
aI0
aI0
aI0
aI0
aI0
aI0
aI0
aI0
aI0
aI0
aI0
aI0
aI0
aI0
aI0
aI0
aI0
aI0
aI0
aI0
aI0
aI0
aI0
aI5
aI0
aI0
aI0
aI0
aI0
aI0
aI0
aI0
aI0
aI0
aI0
aI0
aI0
aI0
aI0
aI73
aI0
aI0
aI0
aI0
aI0
aI0
aI0
aI0
aI0
aI0
aI0
aI0
aI0
aI0
aI0
aI0
aI0
aI0
aI0
aI0
aI0
aI0
aI0
aI0
aI0
aI0
aI0
aI0
aI0
aI0
aI0
aI0
aI0
aI0
aI0
aI0
aI0
aI0
aI0
aI0
aI0
aI0
aI0
aI0
aI16
aI0
aI0
aI0
aI6
aI0
aI0
aI0
aI4
aI0
aI0
aI0
aI0
aI0
aI0
aI0
aI18
aI0
aI0
aI0
aI0
aI0
aI0
aI0
aI6
aI11
aI34
aI8
aI0
aI0
aI0
aI0
aI0
aI0
aI0
aI0
aI0
aI0
aI0
aI0
aI0
aI0
aI0
aI0
aI0
aI0
aI0
aI0
aI0
aI0
aI0
aI0
aI0
aI0
aI0
aI0
aI0
aI0
aI0
aI0
aI0
aI0
aI0
aI0
aI16
aI0
aI0
aI0
aI3
aI0
aI0
aI0
aI0
aI0
aI0
aI0
aI0
aI0
aI0
aI0
aI0
aI0
aI0
aI0
aI59
aI0
aI0
aI0
aI0
aI0
aI0
aI0
aI0
aI0
aI0
aI0
aI0
aI0
aI0
aI0
aI0
aI0
aI0
aI0
aI0
aI0
aI0
aI0
aa(lp53
F20.312868969302315
aF70.31862077876788
aF153.68914934316646
aF1516.2349582299755
aF302.12077252293176
aF1516.034022826602
aF0.002710728830390849
aF0.002710728830390849
aF0.002710728830390849
aF0.002710728830390849
aF0.002710728830390849
aF0.002710728830390849
aF0.002710728830390849
aF0.002710728830390849
aF0.002710728830390849
aF0.002710728830390849
aI0
aI0
aI0
aI0
aI0
aI0
aI0
aI1
aI0
aI1
aI15
aI0
aI0
aI0
aI9
aI0
aI0
aI0
aI0
aI0
aI0
aI0
aI0
aI2
aI0
aI0
aI0
aI5
aI0
aI0
aI0
aI0
aI0
aI0
aI0
aI11
aI1
aI0
aI0
aI17
aI0
aI0
aI0
aI12
aI0
aI0
aI0
aI1
aI0
aI1
aI0
aI0
aI1
aI0
aI0
aI0
aI0
aI1
aI13
aI0
aI1
aI9
aI6
aI0
aI1
aI0
aI0
aI0
aI5
aI13
aI10
aI0
aI2
aI3
aI2
aI0
aI0
aI0
aI0
aI0
aI0
aI0
aI0
aI0
aI5
aI0
aI0
aI1
aI3
aI0
aI0
aI0
aI0
aI0
aI0
aI0
aI0
aI0
aI0
aI0
aI3
aI0
aI0
aI0
aI13
aI0
aI0
aI0
aI0
aI0
aI0
aI0
aI1
aI0
aI0
aI0
aI2
aI2
aI5
aI2
aI1
aI0
aI0
aI0
aI0
aI0
aI0
aI0
aI0
aI0
aI0
aI0
aI0
aI0
aI0
aI0
aI0
aI0
aI0
aI0
aI0
aI0
aI0
aI0
aI0
aI0
aI0
aI0
aI0
aI0
aI0
aI11
aI0
aI0
aI0
aI0
aI0
aI0
aI0
aI0
aI0
aI0
aI3
aI7
aI0
aI0
aI0
aI53
aI0
aI0
aI0
aI0
aI0
aI0
aI0
aI0
aI0
aI0
aI0
aI0
aI0
aI0
aI0
aI0
aI0
aI0
aI0
aI0
aI0
aI0
aI0
aI0
aI0
aI0
aI0
aI0
aI0
aI0
aI11
aI5
aI0
aI0
aI0
aI9
aI0
aI0
aI0
aI1
aI0
aI0
aI0
aI0
aI2
aI0
aI0
aI0
aI0
aI0
aI0
aI0
aI0
aI0
aI0
aI0
aI0
aI0
aI0
aI0
aI12
aI0
aI0
aI0
aI11
aI0
aI0
aI17
aI4
aI3
aI5
aI11
aI0
aI0
aI0
aI0
aI0
aI0
aI0
aI12
aI0
aI0
aI0
aI4
aI0
aI0
aI0
aI0
aI0
aI0
aI0
aI0
aI0
aI0
aI0
aI0
aI0
aI0
aI0
aI0
aI0
aI0
aI0
aI0
aI0
aI0
aI0
aI0
aI12
aI0
aI0
aI0
aI28
aI0
aI0
aI0
aI0
aI0
aI0
aI0
aI0
aI0
aI0
aI0
aI18
aI0
aI0
aI0
aI16
aI0
aI0
aI0
aI0
aI0
aI0
aI0
aI0
aI0
aI0
aI0
aI0
aI0
aI0
aI0
aI0
aI0
aI0
aI0
aI0
aI0
aI0
aI0
aa(lp54
F-12.924468815937958
aF40.86739061337692
aF89.05094881225229
aF1119.3749239905842
aF301.279857054268
aF296.88923901313274
aF0.00390625
aF0.00390625
aF0.00390625
aF0.00390625
aF0.00390625
aF0.00390625
aF0.00390625
aF0.00390625
aF0.00390625
aF0.00390625
aI0
aI0
aI0
aI0
aI0
aI0
aI0
aI0
aI0
aI3
aI5
aI2
aI0
aI4
aI27
aI0
aI0
aI0
aI0
aI5
aI0
aI0
aI0
aI2
aI0
aI0
aI0
aI2
aI0
aI1
aI10
aI8
aI0
aI0
aI0
aI19
aI0
aI0
aI0
aI4
aI0
aI0
aI0
aI2
aI0
aI0
aI0
aI0
aI0
aI0
aI0
aI0
aI0
aI0
aI0
aI0
aI0
aI4
aI5
aI0
aI0
aI3
aI24
aI0
aI0
aI0
aI0
aI0
aI0
aI1
aI0
aI0
aI0
aI3
aI0
aI0
aI0
aI0
aI0
aI0
aI0
aI0
aI0
aI0
aI0
aI0
aI0
aI0
aI0
aI0
aI0
aI0
aI0
aI0
aI0
aI0
aI0
aI0
aI0
aI0
aI1
aI0
aI0
aI0
aI0
aI0
aI0
aI0
aI0
aI0
aI0
aI0
aI0
aI1
aI0
aI0
aI5
aI1
aI0
aI0
aI0
aI0
aI0
aI0
aI0
aI0
aI0
aI0
aI0
aI0
aI0
aI0
aI0
aI0
aI0
aI0
aI0
aI0
aI0
aI0
aI0
aI0
aI0
aI0
aI0
aI0
aI3
aI9
aI0
aI0
aI0
aI0
aI0
aI0
aI0
aI0
aI0
aI0
aI0
aI0
aI0
aI0
aI0
aI0
aI0
aI0
aI0
aI0
aI0
aI0
aI0
aI0
aI0
aI0
aI0
aI0
aI0
aI0
aI0
aI0
aI0
aI0
aI0
aI0
aI0
aI0
aI0
aI0
aI0
aI0
aI0
aI0
aI0
aI0
aI0
aI0
aI0
aI0
aI0
aI0
aI0
aI0
aI0
aI0
aI0
aI0
aI0
aI0
aI0
aI0
aI0
aI0
aI27
aI0
aI0
aI0
aI53
aI0
aI0
aI0
aI0
aI0
aI0
aI0
aI0
aI0
aI0
aI0
aI32
aI0
aI0
aI0
aI18
aI0
aI0
aI0
aI0
aI0
aI0
aI0
aI0
aI0
aI0
aI0
aI0
aI0
aI0
aI0
aI0
aI0
aI0
aI0
aI0
aI0
aI0
aI0
aI0
aI0
aI0
aI0
aI0
aI0
aI0
aI0
aI0
aI0
aI0
aI0
aI0
aI0
aI0
aI0
aI0
aI0
aI0
aI0
aI0
aI0
aI0
aI0
aI6
aI0
aI0
aI0
aI0
aI0
aI0
aI0
aI0
aI0
aI0
aI0
aI5
aI0
aI0
aI0
aI1
aI0
aI0
aI0
aI0
aI0
aI0
aI0
aI0
aI0
aI0
aI0
aI0
aI0
aI0
aI0
aI0
aI0
aI0
aI0
aI0
aI0
aI0
aI0
aa(lp55
F26.863098946662785
aF35.126517519762906
aF67.91809471549553
aF2451.461943421911
aF803.3953486935304
aF386.48166963937575
aF0.022943481428799012
aF0.022943481428799012
aF0.022943481428799012
aF0.022943481428799012
aF0.022943481428799012
aF0.022943481428799012
aF0.022943481428799012
aF0.022943481428799012
aF0.022943481428799012
aF0.022943481428799012
aI0
aI0
aI0
aI0
aI0
aI1
aI3
aI0
aI0
aI0
aI12
aI4
aI0
aI4
aI14
aI1
aI0
aI0
aI17
aI9
aI0
aI0
aI0
aI4
aI0
aI0
aI0
aI4
aI0
aI0
aI0
aI7
aI0
aI0
aI6
aI11
aI0
aI0
aI0
aI0
aI0
aI0
aI0
aI0
aI0
aI0
aI0
aI0
aI0
aI0
aI0
aI0
aI0
aI0
aI0
aI0
aI1
aI0
aI21
aI0
aI1
aI11
aI5
aI0
aI2
aI3
aI0
aI0
aI0
aI11
aI7
aI0
aI1
aI1
aI20
aI2
aI0
aI2
aI1
aI0
aI3
aI0
aI0
aI1
aI0
aI0
aI0
aI0
aI1
aI0
aI0
aI0
aI0
aI0
aI1
aI1
aI0
aI0
aI0
aI1
aI1
aI0
aI0
aI0
aI3
aI0
aI0
aI0
aI1
aI2
aI0
aI0
aI0
aI11
aI8
aI0
aI2
aI3
aI2
aI1
aI8
aI6
aI4
aI0
aI0
aI1
aI0
aI0
aI0
aI0
aI0
aI1
aI0
aI0
aI0
aI0
aI0
aI0
aI0
aI0
aI0
aI0
aI0
aI0
aI0
aI0
aI0
aI9
aI0
aI0
aI0
aI45
aI0
aI0
aI0
aI6
aI0
aI0
aI0
aI0
aI0
aI0
aI0
aI3
aI0
aI0
aI0
aI46
aI0
aI0
aI0
aI1
aI0
aI0
aI0
aI0
aI0
aI0
aI0
aI0
aI0
aI0
aI0
aI0
aI0
aI0
aI0
aI0
aI0
aI0
aI0
aI0
aI0
aI0
aI0
aI0
aI0
aI0
aI0
aI0
aI0
aI0
aI0
aI0
aI0
aI0
aI0
aI0
aI0
aI0
aI0
aI0
aI20
aI0
aI0
aI0
aI19
aI0
aI0
aI0
aI0
aI0
aI0
aI0
aI0
aI0
aI0
aI0
aI22
aI0
aI0
aI0
aI60
aI0
aI0
aI0
aI0
aI0
aI0
aI0
aI0
aI0
aI0
aI0
aI0
aI0
aI2
aI9
aI3
aI1
aI0
aI0
aI0
aI0
aI0
aI0
aI0
aI0
aI0
aI0
aI0
aI0
aI0
aI0
aI0
aI0
aI0
aI0
aI0
aI0
aI0
aI0
aI0
aI0
aI0
aI0
aI23
aI0
aI0
aI0
aI29
aI0
aI0
aI0
aI0
aI0
aI0
aI0
aI0
aI0
aI0
aI0
aI18
aI0
aI0
aI0
aI41
aI0
aI0
aI0
aI0
aI0
aI0
aI0
aI0
aI0
aI0
aI0
aI0
aI0
aI0
aI0
aI0
aI0
aI0
aI0
aI0
aI0
aI0
aI0
aa(lp56
F13.523615495611049
aF26.835483976802145
aF56.46591430339625
aF1830.086609880834
aF1301.1953444548262
aF885.8803275173693
aF0.09764492461254234
aF0.09764492461254234
aF0.09764492461254234
aF0.09764492461254234
aF0.09764492461254234
aF0.09764492461254234
aF0.09764492461254234
aF0.09764492461254234
aF0.09764492461254234
aF0.09764492461254234
aI0
aI0
aI0
aI0
aI0
aI0
aI0
aI0
aI0
aI2
aI3
aI8
aI0
aI9
aI26
aI0
aI0
aI0
aI0
aI0
aI0
aI0
aI0
aI0
aI0
aI0
aI0
aI0
aI0
aI0
aI0
aI1
aI3
aI2
aI34
aI15
aI0
aI0
aI0
aI5
aI0
aI0
aI0
aI3
aI0
aI0
aI1
aI2
aI0
aI2
aI0
aI0
aI0
aI0
aI0
aI2
aI0
aI0
aI10
aI1
aI0
aI15
aI16
aI0
aI0
aI9
aI0
aI0
aI0
aI0
aI10
aI2
aI3
aI2
aI14
aI0
aI0
aI4
aI2
aI0
aI2
aI1
aI0
aI0
aI6
aI0
aI0
aI1
aI3
aI0
aI0
aI0
aI5
aI5
aI2
aI5
aI3
aI0
aI0
aI0
aI1
aI0
aI0
aI1
aI2
aI0
aI0
aI0
aI1
aI1
aI1
aI0
aI0
aI8
aI9
aI2
aI1
aI12
aI1
aI1
aI1
aI5
aI1
aI0
aI1
aI2
aI0
aI0
aI0
aI0
aI0
aI0
aI0
aI0
aI0
aI0
aI0
aI0
aI0
aI0
aI0
aI0
aI0
aI0
aI0
aI0
aI0
aI9
aI0
aI0
aI0
aI60
aI0
aI0
aI0
aI0
aI0
aI0
aI0
aI0
aI0
aI0
aI0
aI10
aI0
aI0
aI0
aI45
aI0
aI0
aI0
aI0
aI0
aI0
aI0
aI0
aI0
aI0
aI0
aI1
aI0
aI0
aI0
aI5
aI0
aI0
aI0
aI0
aI0
aI0
aI0
aI0
aI0
aI0
aI0
aI0
aI0
aI0
aI0
aI0
aI0
aI0
aI0
aI0
aI0
aI0
aI0
aI0
aI0
aI0
aI0
aI0
aI20
aI0
aI0
aI0
aI27
aI0
aI0
aI0
aI0
aI0
aI0
aI0
aI0
aI0
aI0
aI0
aI32
aI0
aI0
aI0
aI67
aI0
aI0
aI0
aI0
aI0
aI0
aI0
aI0
aI0
aI0
aI0
aI14
aI0
aI0
aI0
aI0
aI0
aI0
aI0
aI0
aI0
aI0
aI0
aI0
aI0
aI0
aI0
aI0
aI0
aI0
aI0
aI0
aI0
aI0
aI0
aI0
aI0
aI0
aI0
aI0
aI0
aI0
aI0
aI15
aI0
aI0
aI0
aI57
aI0
aI0
aI0
aI0
aI0
aI0
aI0
aI0
aI0
aI0
aI0
aI33
aI0
aI0
aI0
aI25
aI0
aI0
aI0
aI0
aI0
aI0
aI0
aI0
aI0
aI0
aI0
aI0
aI0
aI0
aI0
aI0
aI0
aI0
aI0
aI0
aI0
aI0
aI0
aa(lp57
F22.755184871581065
aF41.02755521766173
aF50.17509183964519
aF2252.905902380706
aF1520.6722885863464
aF555.0570892613996
aF0.013530155157086839
aF0.013530155157086839
aF0.013530155157086839
aF0.013530155157086839
aF0.013530155157086839
aF0.013530155157086839
aF0.013530155157086839
aF0.013530155157086839
aF0.013530155157086839
aF0.013530155157086839
aI0
aI1
aI0
aI1
aI0
aI1
aI1
aI3
aI1
aI1
aI7
aI4
aI0
aI7
aI21
aI0
aI0
aI0
aI26
aI3
aI0
aI0
aI0
aI4
aI0
aI0
aI0
aI1
aI0
aI0
aI1
aI0
aI0
aI0
aI22
aI1
aI0
aI0
aI0
aI0
aI0
aI0
aI0
aI0
aI0
aI0
aI0
aI0
aI0
aI2
aI0
aI0
aI1
aI0
aI0
aI0
aI0
aI0
aI7
aI0
aI0
aI17
aI13
aI0
aI2
aI14
aI10
aI0
aI1
aI6
aI11
aI1
aI0
aI1
aI8
aI3
aI0
aI2
aI5
aI0
aI2
aI1
aI0
aI1
aI0
aI0
aI0
aI3
aI1
aI0
aI0
aI0
aI6
aI1
aI4
aI0
aI0
aI4
aI0
aI0
aI0
aI0
aI0
aI0
aI9
aI0
aI0
aI1
aI4
aI3
aI0
aI0
aI0
aI8
aI0
aI0
aI1
aI3
aI1
aI2
aI5
aI5
aI2
aI3
aI1
aI1
aI0
aI0
aI0
aI0
aI0
aI0
aI0
aI0
aI0
aI0
aI0
aI0
aI0
aI0
aI0
aI0
aI0
aI0
aI0
aI0
aI0
aI5
aI0
aI0
aI0
aI88
aI0
aI0
aI0
aI0
aI0
aI0
aI0
aI0
aI0
aI0
aI0
aI6
aI0
aI0
aI0
aI37
aI0
aI0
aI0
aI0
aI0
aI0
aI0
aI0
aI0
aI0
aI0
aI0
aI0
aI0
aI0
aI0
aI0
aI0
aI0
aI0
aI0
aI0
aI0
aI0
aI0
aI0
aI0
aI0
aI0
aI0
aI0
aI0
aI0
aI0
aI0
aI0
aI0
aI0
aI0
aI0
aI0
aI0
aI0
aI0
aI22
aI0
aI0
aI0
aI21
aI0
aI0
aI0
aI0
aI0
aI0
aI0
aI0
aI0
aI0
aI0
aI27
aI0
aI0
aI9
aI52
aI0
aI0
aI4
aI0
aI0
aI0
aI0
aI0
aI0
aI0
aI0
aI0
aI0
aI0
aI3
aI1
aI0
aI2
aI3
aI0
aI2
aI0
aI0
aI0
aI0
aI0
aI0
aI0
aI0
aI0
aI0
aI0
aI0
aI0
aI0
aI0
aI0
aI0
aI0
aI0
aI0
aI0
aI0
aI34
aI0
aI0
aI0
aI26
aI0
aI0
aI0
aI0
aI0
aI0
aI0
aI0
aI0
aI0
aI0
aI23
aI0
aI0
aI0
aI53
aI0
aI0
aI0
aI0
aI0
aI0
aI0
aI0
aI0
aI0
aI0
aI0
aI0
aI0
aI0
aI0
aI0
aI0
aI0
aI0
aI0
aI0
aI0
aa(lp58
F39.88491046001015
aF-17.870605142896373
aF72.50943159483862
aF3740.5331471667832
aF1268.677814489188
aF874.6636016927222
aF0.1360019168315192
aF0.1360019168315192
aF0.1360019168315192
aF0.1360019168315192
aF0.1360019168315192
aF0.1360019168315192
aF0.1360019168315192
aF0.1360019168315192
aF0.1360019168315192
aF0.1360019168315192
aI0
aI0
aI0
aI0
aI0
aI2
aI1
aI1
aI0
aI1
aI17
aI2
aI0
aI7
aI14
aI0
aI0
aI4
aI3
aI1
aI0
aI0
aI0
aI3
aI0
aI0
aI0
aI0
aI0
aI0
aI0
aI0
aI1
aI3
aI37
aI22
aI0
aI0
aI0
aI3
aI0
aI0
aI0
aI1
aI2
aI1
aI0
aI0
aI0
aI0
aI4
aI0
aI1
aI0
aI4
aI0
aI0
aI0
aI13
aI0
aI0
aI20
aI5
aI0
aI1
aI21
aI1
aI0
aI0
aI5
aI2
aI0
aI0
aI0
aI1
aI0
aI0
aI3
aI0
aI0
aI0
aI0
aI0
aI0
aI0
aI0
aI0
aI0
aI0
aI0
aI0
aI0
aI7
aI3
aI11
aI2
aI4
aI0
aI0
aI0
aI1
aI0
aI0
aI0
aI0
aI0
aI0
aI0
aI3
aI1
aI9
aI2
aI0
aI23
aI0
aI0
aI5
aI8
aI0
aI0
aI1
aI2
aI2
aI0
aI0
aI0
aI2
aI0
aI0
aI0
aI0
aI0
aI0
aI0
aI0
aI0
aI0
aI0
aI0
aI0
aI0
aI0
aI0
aI0
aI0
aI0
aI0
aI0
aI0
aI0
aI0
aI18
aI0
aI0
aI0
aI0
aI0
aI0
aI0
aI0
aI0
aI0
aI0
aI12
aI0
aI0
aI0
aI85
aI0
aI0
aI0
aI5
aI0
aI0
aI0
aI0
aI0
aI0
aI0
aI0
aI0
aI0
aI0
aI0
aI0
aI0
aI0
aI0
aI0
aI0
aI0
aI0
aI0
aI0
aI0
aI0
aI0
aI0
aI0
aI0
aI0
aI0
aI0
aI0
aI0
aI0
aI0
aI0
aI0
aI0
aI0
aI0
aI35
aI0
aI0
aI0
aI60
aI0
aI0
aI0
aI0
aI0
aI0
aI0
aI0
aI0
aI0
aI0
aI35
aI0
aI0
aI8
aI23
aI0
aI0
aI4
aI0
aI0
aI0
aI0
aI0
aI0
aI0
aI0
aI0
aI0
aI0
aI2
aI1
aI2
aI0
aI3
aI0
aI0
aI0
aI0
aI0
aI0
aI0
aI0
aI0
aI0
aI0
aI0
aI0
aI0
aI0
aI0
aI0
aI0
aI0
aI0
aI0
aI0
aI0
aI0
aI9
aI0
aI0
aI0
aI19
aI0
aI0
aI0
aI0
aI0
aI0
aI0
aI0
aI0
aI0
aI0
aI41
aI0
aI0
aI0
aI51
aI0
aI0
aI0
aI0
aI0
aI0
aI0
aI0
aI0
aI0
aI0
aI0
aI0
aI0
aI0
aI0
aI0
aI0
aI0
aI0
aI0
aI0
aI0
aa(lp59
F-4.585916753648894
aF46.241956507467286
aF50.39404864504228
aF2175.9998246080954
aF1322.7733047985014
aF373.01575753200564
aF0.031610708746828746
aF0.031610708746828746
aF0.031610708746828746
aF0.031610708746828746
aF0.031610708746828746
aF0.031610708746828746
aF0.031610708746828746
aF0.031610708746828746
aF0.031610708746828746
aF0.031610708746828746
aI0
aI0
aI0
aI0
aI0
aI2
aI1
aI0
aI0
aI1
aI20
aI3
aI0
aI8
aI11
aI0
aI0
aI0
aI0
aI1
aI0
aI0
aI0
aI1
aI0
aI0
aI0
aI2
aI0
aI1
aI3
aI0
aI0
aI0
aI39
aI9
aI0
aI0
aI0
aI1
aI0
aI0
aI0
aI0
aI0
aI3
aI2
aI1
aI0
aI0
aI0
aI0
aI0
aI0
aI0
aI0
aI0
aI0
aI0
aI0
aI0
aI26
aI15
aI0
aI0
aI20
aI7
aI0
aI3
aI2
aI1
aI1
aI5
aI0
aI0
aI1
aI0
aI1
aI2
aI1
aI5
aI0
aI0
aI0
aI7
aI0
aI0
aI5
aI7
aI0
aI0
aI1
aI4
aI26
aI9
aI1
aI0
aI0
aI0
aI0
aI7
aI0
aI0
aI4
aI0
aI0
aI0
aI0
aI4
aI17
aI4
aI2
aI0
aI18
aI6
aI1
aI1
aI5
aI0
aI4
aI0
aI1
aI2
aI0
aI0
aI1
aI1
aI0
aI0
aI0
aI0
aI0
aI0
aI0
aI0
aI0
aI0
aI0
aI0
aI0
aI0
aI0
aI0
aI0
aI0
aI0
aI0
aI14
aI0
aI0
aI0
aI70
aI0
aI0
aI0
aI0
aI0
aI0
aI0
aI0
aI0
aI0
aI0
aI13
aI0
aI0
aI0
aI87
aI0
aI0
aI0
aI1
aI0
aI0
aI0
aI0
aI0
aI0
aI0
aI0
aI0
aI0
aI0
aI2
aI0
aI0
aI0
aI0
aI0
aI0
aI0
aI0
aI0
aI0
aI0
aI0
aI0
aI0
aI0
aI0
aI0
aI0
aI0
aI0
aI0
aI0
aI0
aI0
aI0
aI0
aI0
aI0
aI21
aI0
aI0
aI0
aI48
aI0
aI0
aI0
aI0
aI0
aI0
aI0
aI0
aI0
aI0
aI0
aI27
aI0
aI0
aI7
aI29
aI0
aI0
aI5
aI0
aI0
aI0
aI0
aI0
aI0
aI0
aI0
aI0
aI0
aI0
aI5
aI1
aI2
aI1
aI4
aI0
aI0
aI0
aI0
aI0
aI0
aI0
aI0
aI0
aI0
aI0
aI0
aI0
aI0
aI0
aI0
aI0
aI0
aI0
aI0
aI0
aI0
aI0
aI0
aI40
aI0
aI0
aI0
aI48
aI0
aI0
aI0
aI0
aI0
aI0
aI0
aI0
aI0
aI0
aI0
aI38
aI0
aI0
aI0
aI61
aI0
aI0
aI0
aI0
aI0
aI0
aI0
aI0
aI0
aI0
aI0
aI0
aI0
aI0
aI0
aI0
aI0
aI0
aI0
aI0
aI0
aI0
aI0
aa(lp60
F42.70826056003925
aF87.10220830781863
aF55.69005382278441
aF2513.44375075941
aF473.4393182655402
aF335.2013694458986
aF0.018426147499006982
aF0.018426147499006982
aF0.018426147499006982
aF0.018426147499006982
aF0.018426147499006982
aF0.018426147499006982
aF0.018426147499006982
aF0.018426147499006982
aF0.018426147499006982
aF0.018426147499006982
aI0
aI1
aI0
aI0
aI0
aI0
aI0
aI0
aI0
aI2
aI18
aI10
aI0
aI5
aI13
aI0
aI0
aI0
aI25
aI11
aI0
aI0
aI0
aI1
aI0
aI0
aI0
aI1
aI0
aI0
aI0
aI0
aI0
aI0
aI1
aI3
aI0
aI0
aI0
aI0
aI0
aI0
aI0
aI1
aI0
aI0
aI0
aI0
aI0
aI0
aI0
aI0
aI0
aI0
aI0
aI4
aI0
aI3
aI13
aI0
aI0
aI24
aI3
aI0
aI0
aI10
aI1
aI0
aI1
aI7
aI6
aI0
aI1
aI13
aI3
aI1
aI2
aI5
aI1
aI0
aI2
aI2
aI0
aI0
aI1
aI0
aI0
aI1
aI1
aI0
aI0
aI0
aI5
aI17
aI8
aI2
aI0
aI0
aI0
aI0
aI1
aI0
aI0
aI0
aI0
aI0
aI0
aI2
aI1
aI15
aI14
aI2
aI2
aI6
aI0
aI0
aI12
aI16
aI0
aI0
aI0
aI4
aI0
aI0
aI0
aI1
aI1
aI1
aI0
aI0
aI0
aI0
aI0
aI0
aI0
aI0
aI0
aI0
aI0
aI0
aI0
aI0
aI0
aI0
aI0
aI0
aI0
aI18
aI0
aI0
aI0
aI51
aI0
aI0
aI0
aI0
aI0
aI0
aI0
aI0
aI0
aI0
aI0
aI16
aI0
aI0
aI0
aI79
aI0
aI0
aI0
aI4
aI0
aI0
aI0
aI0
aI0
aI0
aI0
aI0
aI0
aI0
aI0
aI0
aI0
aI0
aI0
aI0
aI0
aI0
aI0
aI0
aI0
aI0
aI0
aI0
aI0
aI0
aI0
aI0
aI0
aI0
aI0
aI0
aI0
aI0
aI0
aI0
aI0
aI0
aI0
aI0
aI18
aI0
aI0
aI0
aI25
aI0
aI0
aI0
aI0
aI0
aI0
aI0
aI0
aI0
aI0
aI0
aI29
aI0
aI0
aI0
aI59
aI0
aI0
aI0
aI0
aI0
aI0
aI0
aI0
aI0
aI0
aI0
aI8
aI0
aI0
aI0
aI0
aI0
aI0
aI0
aI0
aI0
aI0
aI0
aI0
aI0
aI0
aI0
aI0
aI0
aI0
aI0
aI0
aI0
aI0
aI0
aI0
aI0
aI0
aI0
aI0
aI0
aI0
aI0
aI13
aI0
aI0
aI0
aI58
aI0
aI0
aI0
aI0
aI0
aI0
aI0
aI0
aI0
aI0
aI0
aI61
aI0
aI0
aI0
aI36
aI0
aI0
aI0
aI0
aI0
aI0
aI0
aI0
aI0
aI0
aI0
aI0
aI0
aI0
aI0
aI0
aI0
aI0
aI0
aI0
aI0
aI0
aI0
aa(lp61
F-27.41361605984214
aF24.23103377250582
aF52.31086649002393
aF2551.8862535834182
aF749.685976399955
aF1339.431750062604
aF0.006732897193931586
aF0.006732897193931586
aF0.006732897193931586
aF0.006732897193931586
aF0.006732897193931586
aF0.006732897193931586
aF0.006732897193931586
aF0.006732897193931586
aF0.006732897193931586
aF0.006732897193931586
aI0
aI0
aI0
aI0
aI1
aI1
aI0
aI2
aI0
aI1
aI30
aI6
aI0
aI4
aI3
aI0
aI0
aI0
aI5
aI2
aI0
aI0
aI0
aI0
aI0
aI0
aI0
aI2
aI0
aI0
aI0
aI1
aI1
aI1
aI51
aI4
aI0
aI0
aI0
aI1
aI0
aI0
aI0
aI1
aI0
aI0
aI0
aI1
aI0
aI0
aI0
aI0
aI0
aI0
aI0
aI0
aI0
aI0
aI3
aI0
aI1
aI25
aI5
aI0
aI0
aI8
aI3
aI3
aI1
aI2
aI1
aI0
aI2
aI0
aI1
aI0
aI0
aI1
aI1
aI0
aI2
aI0
aI1
aI1
aI3
aI0
aI0
aI1
aI12
aI0
aI0
aI5
aI2
aI28
aI20
aI0
aI1
aI0
aI1
aI0
aI4
aI0
aI0
aI1
aI4
aI0
aI0
aI3
aI0
aI13
aI13
aI6
aI0
aI5
aI1
aI1
aI3
aI11
aI4
aI2
aI0
aI3
aI2
aI0
aI0
aI1
aI2
aI0
aI0
aI0
aI0
aI0
aI0
aI0
aI0
aI0
aI0
aI0
aI0
aI0
aI0
aI0
aI0
aI0
aI0
aI0
aI0
aI40
aI0
aI0
aI0
aI45
aI0
aI0
aI0
aI0
aI0
aI0
aI0
aI0
aI0
aI0
aI0
aI18
aI0
aI0
aI0
aI76
aI0
aI0
aI0
aI0
aI0
aI0
aI0
aI0
aI0
aI0
aI0
aI0
aI0
aI0
aI0
aI0
aI0
aI0
aI0
aI0
aI0
aI0
aI0
aI0
aI0
aI0
aI0
aI0
aI0
aI0
aI0
aI0
aI0
aI0
aI0
aI0
aI0
aI0
aI0
aI0
aI0
aI0
aI0
aI0
aI45
aI0
aI0
aI0
aI66
aI0
aI0
aI0
aI0
aI0
aI0
aI0
aI0
aI0
aI0
aI0
aI5
aI0
aI0
aI6
aI14
aI0
aI0
aI14
aI0
aI0
aI0
aI0
aI0
aI0
aI0
aI0
aI0
aI0
aI0
aI0
aI0
aI0
aI0
aI1
aI0
aI1
aI0
aI0
aI0
aI0
aI0
aI0
aI0
aI0
aI0
aI0
aI0
aI0
aI0
aI0
aI0
aI0
aI0
aI0
aI0
aI0
aI0
aI0
aI29
aI0
aI0
aI0
aI61
aI0
aI0
aI0
aI0
aI0
aI0
aI0
aI0
aI0
aI0
aI0
aI33
aI0
aI0
aI0
aI56
aI0
aI0
aI0
aI0
aI0
aI0
aI0
aI0
aI0
aI0
aI0
aI0
aI0
aI0
aI0
aI0
aI0
aI0
aI0
aI0
aI0
aI0
aI0
aa(lp62
F-12.018175589525159
aF133.3582058683571
aF36.94727291608531
aF2764.6603805402115
aF445.6899027268849
aF305.74912156683683
aF0.0002158304496534446
aF0.0002158304496534446
aF0.0002158304496534446
aF0.0002158304496534446
aF0.0002158304496534446
aF0.0002158304496534446
aF0.0002158304496534446
aF0.0002158304496534446
aF0.0002158304496534446
aF0.0002158304496534446
aI0
aI0
aI0
aI0
aI0
aI0
aI0
aI1
aI0
aI0
aI17
aI5
aI0
aI2
aI21
aI0
aI0
aI0
aI0
aI0
aI0
aI0
aI0
aI0
aI0
aI0
aI0
aI0
aI0
aI0
aI0
aI0
aI2
aI0
aI0
aI0
aI0
aI0
aI0
aI0
aI0
aI0
aI0
aI0
aI0
aI0
aI0
aI0
aI0
aI0
aI0
aI0
aI0
aI0
aI3
aI0
aI0
aI1
aI22
aI0
aI0
aI12
aI8
aI0
aI1
aI15
aI1
aI0
aI3
aI1
aI2
aI1
aI0
aI1
aI3
aI1
aI0
aI2
aI2
aI1
aI1
aI1
aI1
aI0
aI0
aI0
aI0
aI1
aI0
aI0
aI0
aI0
aI0
aI5
aI2
aI1
aI2
aI0
aI0
aI0
aI0
aI0
aI0
aI1
aI1
aI0
aI0
aI0
aI1
aI4
aI10
aI1
aI2
aI9
aI0
aI0
aI4
aI11
aI5
aI2
aI6
aI6
aI4
aI2
aI1
aI2
aI4
aI0
aI0
aI0
aI0
aI0
aI0
aI0
aI0
aI0
aI0
aI0
aI0
aI0
aI0
aI0
aI0
aI0
aI0
aI0
aI0
aI0
aI0
aI0
aI0
aI29
aI0
aI0
aI0
aI0
aI0
aI0
aI0
aI0
aI0
aI0
aI0
aI9
aI0
aI0
aI0
aI78
aI0
aI0
aI0
aI8
aI0
aI0
aI0
aI0
aI0
aI0
aI0
aI0
aI0
aI0
aI0
aI0
aI0
aI0
aI0
aI0
aI0
aI0
aI0
aI0
aI0
aI0
aI0
aI0
aI0
aI0
aI0
aI0
aI0
aI0
aI0
aI0
aI0
aI0
aI0
aI0
aI0
aI0
aI0
aI0
aI15
aI0
aI0
aI0
aI33
aI0
aI0
aI0
aI0
aI0
aI0
aI0
aI0
aI0
aI0
aI0
aI0
aI0
aI0
aI0
aI25
aI0
aI0
aI0
aI0
aI0
aI0
aI0
aI0
aI0
aI0
aI0
aI3
aI1
aI3
aI14
aI0
aI0
aI0
aI0
aI0
aI0
aI0
aI0
aI0
aI0
aI0
aI0
aI0
aI0
aI0
aI0
aI0
aI0
aI0
aI0
aI0
aI0
aI0
aI0
aI0
aI0
aI0
aI0
aI7
aI0
aI0
aI0
aI27
aI0
aI0
aI0
aI0
aI0
aI0
aI0
aI0
aI0
aI0
aI0
aI34
aI0
aI0
aI0
aI56
aI0
aI0
aI0
aI0
aI0
aI0
aI0
aI0
aI0
aI0
aI0
aI0
aI0
aI0
aI0
aI0
aI0
aI0
aI0
aI0
aI0
aI0
aI0
aa(lp63
F-1.2291115434897302
aF26.977898736821718
aF37.53614094094589
aF1757.7193987522317
aF848.8087773515565
aF332.7544866045188
aF0.13712809838824191
aF0.13712809838824191
aF0.13712809838824191
aF0.13712809838824191
aF0.13712809838824191
aF0.13712809838824191
aF0.13712809838824191
aF0.13712809838824191
aF0.13712809838824191
aF0.13712809838824191
aI0
aI0
aI0
aI0
aI0
aI0
aI0
aI0
aI0
aI1
aI28
aI4
aI0
aI8
aI10
aI0
aI0
aI0
aI27
aI12
aI0
aI0
aI0
aI0
aI0
aI0
aI0
aI3
aI0
aI0
aI0
aI4
aI1
aI1
aI14
aI15
aI1
aI0
aI0
aI2
aI0
aI0
aI0
aI6
aI1
aI0
aI0
aI0
aI0
aI0
aI0
aI0
aI0
aI1
aI0
aI1
aI0
aI3
aI13
aI3
aI1
aI24
aI4
aI0
aI1
aI8
aI4
aI0
aI5
aI16
aI5
aI4
aI6
aI15
aI4
aI5
aI2
aI6
aI0
aI0
aI1
aI1
aI4
aI0
aI3
aI0
aI0
aI0
aI6
aI0
aI0
aI3
aI20
aI28
aI9
aI5
aI1
aI0
aI0
aI0
aI3
aI0
aI0
aI1
aI3
aI0
aI0
aI3
aI5
aI13
aI7
aI0
aI0
aI1
aI0
aI0
aI4
aI11
aI0
aI1
aI1
aI0
aI0
aI0
aI1
aI0
aI3
aI0
aI0
aI0
aI0
aI0
aI0
aI0
aI0
aI0
aI0
aI0
aI0
aI0
aI0
aI0
aI0
aI0
aI0
aI0
aI0
aI38
aI0
aI0
aI0
aI68
aI0
aI0
aI0
aI0
aI0
aI0
aI0
aI0
aI0
aI0
aI0
aI29
aI0
aI0
aI0
aI81
aI0
aI0
aI0
aI0
aI0
aI0
aI0
aI0
aI0
aI0
aI0
aI0
aI0
aI0
aI0
aI3
aI0
aI0
aI0
aI0
aI0
aI0
aI0
aI0
aI0
aI0
aI0
aI0
aI0
aI0
aI0
aI0
aI0
aI0
aI0
aI0
aI0
aI0
aI0
aI0
aI0
aI0
aI0
aI0
aI16
aI0
aI0
aI0
aI35
aI0
aI0
aI0
aI0
aI0
aI0
aI0
aI0
aI0
aI0
aI0
aI37
aI0
aI0
aI0
aI83
aI0
aI0
aI0
aI0
aI0
aI0
aI0
aI0
aI0
aI0
aI0
aI4
aI10
aI3
aI0
aI0
aI0
aI0
aI0
aI0
aI0
aI0
aI0
aI0
aI0
aI0
aI0
aI0
aI0
aI0
aI0
aI0
aI0
aI0
aI0
aI0
aI0
aI0
aI0
aI0
aI0
aI0
aI0
aI31
aI0
aI0
aI0
aI75
aI0
aI0
aI0
aI0
aI0
aI0
aI0
aI0
aI0
aI0
aI0
aI51
aI0
aI0
aI0
aI62
aI0
aI0
aI0
aI0
aI0
aI0
aI0
aI0
aI0
aI0
aI0
aI0
aI0
aI0
aI0
aI0
aI0
aI0
aI0
aI0
aI0
aI0
aI0
aa(lp64
F5.731617080884028
aF41.227851779469006
aF46.64820969670236
aF3252.292767747007
aF1696.6208203249987
aF438.47667933794895
aF0.13936072246781334
aF0.13936072246781334
aF0.13936072246781334
aF0.13936072246781334
aF0.13936072246781334
aF0.13936072246781334
aF0.13936072246781334
aF0.13936072246781334
aF0.13936072246781334
aF0.13936072246781334
aI0
aI0
aI0
aI0
aI0
aI0
aI0
aI8
aI0
aI2
aI14
aI9
aI0
aI5
aI21
aI0
aI0
aI0
aI8
aI2
aI0
aI0
aI0
aI0
aI0
aI0
aI0
aI0
aI0
aI0
aI0
aI0
aI1
aI3
aI46
aI4
aI0
aI0
aI0
aI0
aI0
aI0
aI0
aI0
aI0
aI4
aI0
aI0
aI0
aI0
aI0
aI0
aI0
aI0
aI5
aI1
aI0
aI1
aI15
aI0
aI0
aI19
aI11
aI0
aI1
aI16
aI6
aI0
aI2
aI4
aI1
aI1
aI7
aI6
aI6
aI2
aI2
aI4
aI6
aI0
aI0
aI4
aI0
aI0
aI0
aI0
aI0
aI1
aI7
aI0
aI0
aI1
aI5
aI13
aI18
aI3
aI0
aI2
aI0
aI0
aI2
aI0
aI0
aI0
aI3
aI0
aI0
aI3
aI1
aI10
aI12
aI3
aI1
aI12
aI2
aI0
aI13
aI4
aI4
aI0
aI1
aI5
aI5
aI0
aI0
aI0
aI0
aI1
aI0
aI0
aI0
aI0
aI0
aI0
aI0
aI0
aI0
aI0
aI0
aI0
aI0
aI0
aI0
aI0
aI0
aI0
aI0
aI16
aI0
aI0
aI0
aI75
aI0
aI0
aI0
aI0
aI0
aI0
aI0
aI0
aI0
aI0
aI0
aI18
aI0
aI0
aI0
aI88
aI0
aI0
aI0
aI3
aI0
aI0
aI0
aI0
aI0
aI0
aI0
aI0
aI0
aI0
aI0
aI0
aI0
aI0
aI0
aI0
aI0
aI0
aI0
aI0
aI0
aI0
aI0
aI0
aI0
aI0
aI0
aI0
aI0
aI0
aI0
aI0
aI0
aI0
aI0
aI0
aI0
aI0
aI0
aI0
aI20
aI0
aI0
aI0
aI37
aI0
aI0
aI0
aI0
aI0
aI0
aI0
aI0
aI0
aI0
aI0
aI33
aI0
aI0
aI0
aI69
aI0
aI0
aI0
aI0
aI0
aI0
aI0
aI0
aI0
aI0
aI0
aI0
aI0
aI1
aI14
aI2
aI2
aI1
aI0
aI0
aI0
aI0
aI0
aI0
aI0
aI0
aI0
aI0
aI0
aI0
aI0
aI0
aI0
aI0
aI0
aI0
aI0
aI0
aI0
aI0
aI0
aI0
aI0
aI26
aI0
aI0
aI0
aI65
aI0
aI0
aI0
aI0
aI0
aI0
aI0
aI0
aI0
aI0
aI0
aI50
aI0
aI0
aI0
aI59
aI0
aI0
aI0
aI0
aI0
aI0
aI0
aI0
aI0
aI0
aI0
aI0
aI0
aI0
aI0
aI0
aI0
aI0
aI0
aI0
aI0
aI0
aI0
aa(lp65
F3.5599388161864645
aF74.64098839899185
aF60.498707639379425
aF1669.9383326910852
aF1293.286178713538
aF237.30128664489786
aF0.0024683772078163417
aF0.0024683772078163417
aF0.0024683772078163417
aF0.0024683772078163417
aF0.0024683772078163417
aF0.0024683772078163417
aF0.0024683772078163417
aF0.0024683772078163417
aF0.0024683772078163417
aF0.0024683772078163417
aI0
aI0
aI0
aI1
aI0
aI0
aI0
aI1
aI0
aI3
aI1
aI1
aI0
aI0
aI26
aI5
aI0
aI1
aI24
aI2
aI0
aI0
aI0
aI3
aI0
aI0
aI0
aI1
aI0
aI0
aI0
aI0
aI0
aI0
aI25
aI0
aI0
aI0
aI0
aI0
aI0
aI0
aI0
aI0
aI0
aI0
aI0
aI0
aI0
aI0
aI0
aI0
aI0
aI0
aI0
aI0
aI0
aI0
aI2
aI0
aI0
aI12
aI19
aI0
aI2
aI11
aI0
aI0
aI0
aI1
aI1
aI0
aI0
aI0
aI0
aI0
aI0
aI0
aI1
aI0
aI3
aI1
aI0
aI0
aI3
aI0
aI0
aI0
aI2
aI0
aI0
aI2
aI4
aI6
aI26
aI3
aI1
aI2
aI0
aI0
aI15
aI0
aI0
aI0
aI1
aI0
aI0
aI3
aI1
aI8
aI15
aI7
aI2
aI7
aI0
aI0
aI3
aI5
aI0
aI1
aI0
aI0
aI0
aI1
aI0
aI1
aI0
aI0
aI0
aI0
aI0
aI6
aI0
aI0
aI0
aI0
aI0
aI0
aI0
aI0
aI0
aI0
aI0
aI0
aI0
aI0
aI0
aI23
aI0
aI0
aI0
aI38
aI0
aI0
aI0
aI0
aI0
aI0
aI0
aI0
aI0
aI0
aI0
aI13
aI0
aI0
aI0
aI51
aI0
aI0
aI0
aI0
aI0
aI0
aI0
aI0
aI0
aI0
aI7
aI1
aI0
aI0
aI0
aI0
aI0
aI0
aI0
aI0
aI0
aI0
aI0
aI0
aI0
aI0
aI0
aI0
aI0
aI0
aI0
aI0
aI0
aI0
aI0
aI0
aI0
aI0
aI0
aI0
aI0
aI0
aI0
aI0
aI18
aI0
aI0
aI0
aI18
aI0
aI0
aI0
aI0
aI0
aI0
aI0
aI0
aI0
aI0
aI0
aI36
aI0
aI0
aI0
aI55
aI0
aI0
aI0
aI0
aI0
aI0
aI0
aI0
aI0
aI0
aI0
aI0
aI0
aI0
aI0
aI0
aI0
aI0
aI0
aI0
aI0
aI0
aI0
aI0
aI0
aI0
aI0
aI0
aI0
aI0
aI0
aI0
aI0
aI0
aI0
aI0
aI0
aI0
aI0
aI0
aI0
aI0
aI0
aI23
aI0
aI0
aI0
aI44
aI0
aI0
aI0
aI0
aI0
aI0
aI0
aI0
aI0
aI0
aI0
aI35
aI0
aI0
aI0
aI37
aI0
aI0
aI0
aI0
aI0
aI0
aI0
aI0
aI0
aI0
aI0
aI0
aI0
aI0
aI0
aI0
aI0
aI0
aI0
aI0
aI0
aI0
aI0
aa(lp66
F-23.251101767808564
aF300.8734174406262
aF63.38788810710557
aF3194.550629908433
aF746.6836490264922
aF127.06996391062523
aF4.974370335853877e-05
aF4.974370335853877e-05
aF4.974370335853877e-05
aF4.974370335853877e-05
aF4.974370335853877e-05
aF4.974370335853877e-05
aF4.974370335853877e-05
aF4.974370335853877e-05
aF4.974370335853877e-05
aF4.974370335853877e-05
aI0
aI0
aI0
aI0
aI0
aI0
aI0
aI0
aI0
aI0
aI1
aI3
aI0
aI7
aI24
aI0
aI0
aI0
aI0
aI0
aI0
aI0
aI0
aI1
aI0
aI0
aI0
aI0
aI0
aI0
aI0
aI0
aI0
aI0
aI0
aI0
aI0
aI0
aI0
aI0
aI0
aI0
aI0
aI0
aI0
aI0
aI0
aI0
aI0
aI0
aI0
aI0
aI0
aI0
aI0
aI0
aI0
aI0
aI2
aI0
aI0
aI14
aI19
aI0
aI0
aI20
aI1
aI0
aI0
aI0
aI2
aI0
aI0
aI1
aI9
aI0
aI0
aI0
aI0
aI0
aI0
aI0
aI0
aI0
aI5
aI0
aI0
aI0
aI0
aI0
aI0
aI0
aI4
aI8
aI4
aI1
aI0
aI0
aI0
aI0
aI3
aI0
aI0
aI1
aI0
aI0
aI0
aI2
aI0
aI2
aI18
aI5
aI1
aI14
aI1
aI0
aI5
aI9
aI1
aI1
aI3
aI20
aI5
aI4
aI0
aI1
aI1
aI0
aI0
aI0
aI0
aI2
aI0
aI0
aI0
aI0
aI0
aI0
aI0
aI0
aI0
aI0
aI0
aI0
aI0
aI0
aI0
aI20
aI0
aI0
aI0
aI55
aI0
aI0
aI0
aI0
aI0
aI0
aI0
aI0
aI0
aI0
aI0
aI21
aI0
aI0
aI0
aI53
aI0
aI0
aI0
aI0
aI0
aI0
aI0
aI0
aI0
aI0
aI0
aI1
aI0
aI0
aI0
aI0
aI0
aI0
aI0
aI0
aI0
aI0
aI0
aI0
aI0
aI0
aI0
aI0
aI0
aI0
aI0
aI0
aI0
aI0
aI0
aI0
aI0
aI0
aI0
aI0
aI0
aI0
aI0
aI0
aI14
aI0
aI0
aI0
aI22
aI0
aI0
aI0
aI0
aI0
aI0
aI0
aI0
aI0
aI0
aI0
aI16
aI0
aI0
aI0
aI19
aI0
aI0
aI0
aI0
aI0
aI0
aI0
aI0
aI0
aI0
aI0
aI0
aI0
aI0
aI0
aI0
aI0
aI0
aI0
aI0
aI0
aI0
aI0
aI0
aI0
aI0
aI0
aI0
aI0
aI0
aI0
aI0
aI0
aI0
aI0
aI0
aI0
aI0
aI0
aI0
aI0
aI0
aI0
aI26
aI0
aI0
aI0
aI51
aI0
aI0
aI0
aI0
aI0
aI0
aI0
aI0
aI0
aI0
aI0
aI38
aI0
aI0
aI0
aI37
aI0
aI0
aI0
aI0
aI0
aI0
aI0
aI0
aI0
aI0
aI0
aI0
aI0
aI0
aI0
aI0
aI0
aI0
aI0
aI0
aI0
aI0
aI0
aa(lp67
F20.372990224427063
aF1.7661734995630696
aF27.846351838935167
aF2225.662948530319
aF3397.3200943219163
aF865.7536773266577
aF0.0634934262772243
aF0.0634934262772243
aF0.0634934262772243
aF0.0634934262772243
aF0.0634934262772243
aF0.0634934262772243
aF0.0634934262772243
aF0.0634934262772243
aF0.0634934262772243
aF0.0634934262772243
aI0
aI0
aI0
aI0
aI0
aI0
aI0
aI0
aI0
aI1
aI8
aI0
aI0
aI10
aI21
aI1
aI0
aI3
aI34
aI9
aI0
aI0
aI0
aI2
aI0
aI0
aI0
aI2
aI1
aI1
aI0
aI1
aI2
aI5
aI29
aI1
aI0
aI0
aI0
aI0
aI0
aI0
aI0
aI2
aI0
aI1
aI0
aI0
aI1
aI0
aI1
aI0
aI0
aI0
aI1
aI0
aI0
aI2
aI1
aI0
aI0
aI20
aI15
aI0
aI2
aI13
aI12
aI0
aI0
aI0
aI0
aI0
aI1
aI0
aI1
aI0
aI0
aI3
aI1
aI0
aI2
aI0
aI0
aI0
aI17
aI0
aI0
aI0
aI5
aI0
aI0
aI2
aI5
aI11
aI24
aI6
aI0
aI0
aI0
aI0
aI6
aI0
aI0
aI0
aI4
aI0
aI0
aI0
aI7
aI18
aI24
aI4
aI1
aI24
aI0
aI0
aI0
aI1
aI2
aI0
aI0
aI0
aI2
aI1
aI0
aI0
aI1
aI1
aI0
aI0
aI0
aI0
aI0
aI0
aI0
aI0
aI0
aI0
aI0
aI0
aI0
aI0
aI0
aI0
aI0
aI0
aI0
aI14
aI0
aI0
aI0
aI83
aI0
aI0
aI0
aI0
aI0
aI0
aI0
aI0
aI0
aI0
aI2
aI10
aI0
aI0
aI0
aI85
aI0
aI0
aI0
aI3
aI0
aI0
aI0
aI0
aI0
aI0
aI1
aI2
aI0
aI0
aI0
aI1
aI0
aI0
aI0
aI0
aI0
aI0
aI0
aI0
aI0
aI0
aI0
aI0
aI9
aI0
aI0
aI0
aI0
aI9
aI0
aI0
aI0
aI8
aI0
aI0
aI0
aI0
aI0
aI0
aI29
aI0
aI0
aI0
aI14
aI0
aI0
aI0
aI13
aI6
aI0
aI0
aI0
aI0
aI0
aI0
aI28
aI0
aI0
aI8
aI0
aI0
aI0
aI24
aI0
aI5
aI10
aI12
aI0
aI0
aI0
aI0
aI0
aI0
aI0
aI0
aI0
aI0
aI0
aI0
aI0
aI0
aI0
aI0
aI0
aI0
aI0
aI0
aI0
aI0
aI0
aI0
aI0
aI0
aI0
aI0
aI0
aI0
aI0
aI0
aI0
aI0
aI0
aI0
aI37
aI0
aI0
aI0
aI60
aI0
aI0
aI0
aI0
aI0
aI0
aI0
aI0
aI0
aI0
aI0
aI45
aI0
aI0
aI0
aI59
aI0
aI0
aI0
aI0
aI0
aI0
aI0
aI0
aI0
aI0
aI0
aI0
aI0
aI0
aI0
aI0
aI0
aI0
aI0
aI0
aI0
aI0
aI0
aa(lp68
F20.97053973296909
aF72.48181393876912
aF64.05319119589238
aF2403.7061514306947
aF1750.1008956962216
aF688.6751733400283
aF0.0027528078931108617
aF0.0027528078931108617
aF0.0027528078931108617
aF0.0027528078931108617
aF0.0027528078931108617
aF0.0027528078931108617
aF0.0027528078931108617
aF0.0027528078931108617
aF0.0027528078931108617
aF0.0027528078931108617
aI0
aI0
aI0
aI0
aI0
aI0
aI3
aI0
aI0
aI1
aI7
aI0
aI0
aI7
aI20
aI0
aI0
aI2
aI12
aI3
aI0
aI0
aI0
aI1
aI0
aI0
aI0
aI0
aI0
aI0
aI0
aI0
aI0
aI3
aI22
aI6
aI0
aI0
aI0
aI1
aI0
aI0
aI0
aI0
aI0
aI0
aI0
aI0
aI0
aI0
aI0
aI0
aI0
aI0
aI0
aI3
aI0
aI0
aI6
aI0
aI0
aI17
aI9
aI0
aI0
aI7
aI19
aI0
aI0
aI0
aI0
aI1
aI0
aI9
aI3
aI1
aI0
aI1
aI1
aI0
aI0
aI0
aI0
aI0
aI8
aI0
aI0
aI1
aI0
aI0
aI0
aI0
aI0
aI5
aI10
aI3
aI0
aI0
aI0
aI0
aI0
aI0
aI0
aI0
aI1
aI0
aI0
aI0
aI0
aI6
aI9
aI3
aI0
aI21
aI3
aI0
aI0
aI4
aI3
aI0
aI2
aI5
aI8
aI1
aI0
aI2
aI4
aI1
aI0
aI0
aI0
aI0
aI0
aI0
aI0
aI0
aI0
aI0
aI0
aI0
aI0
aI0
aI0
aI0
aI0
aI0
aI0
aI0
aI0
aI0
aI0
aI33
aI0
aI0
aI0
aI0
aI0
aI0
aI0
aI0
aI0
aI0
aI0
aI14
aI0
aI0
aI0
aI91
aI0
aI0
aI0
aI4
aI0
aI0
aI0
aI0
aI0
aI0
aI0
aI0
aI0
aI0
aI0
aI0
aI0
aI0
aI0
aI0
aI0
aI0
aI0
aI0
aI0
aI1
aI0
aI0
aI0
aI8
aI4
aI0
aI0
aI0
aI9
aI0
aI0
aI0
aI10
aI0
aI0
aI14
aI0
aI0
aI0
aI0
aI0
aI0
aI0
aI0
aI0
aI0
aI0
aI0
aI33
aI0
aI2
aI0
aI0
aI0
aI8
aI0
aI0
aI0
aI0
aI0
aI0
aI0
aI0
aI0
aI8
aI1
aI0
aI0
aI0
aI0
aI0
aI0
aI9
aI4
aI0
aI0
aI0
aI9
aI0
aI0
aI0
aI3
aI0
aI0
aI0
aI0
aI0
aI0
aI0
aI0
aI0
aI0
aI0
aI0
aI0
aI0
aI0
aI0
aI0
aI0
aI0
aI0
aI23
aI0
aI0
aI0
aI30
aI0
aI0
aI0
aI0
aI0
aI0
aI0
aI0
aI0
aI0
aI0
aI32
aI0
aI0
aI0
aI57
aI0
aI0
aI0
aI0
aI0
aI0
aI0
aI0
aI0
aI0
aI0
aI0
aI0
aI0
aI0
aI0
aI0
aI0
aI0
aI0
aI0
aI0
aI0
aa(lp69
F-39.35377130212946
aF9.616731563106544
aF116.61216067392093
aF2104.962351796586
aF893.6121759631944
aF590.1431780817641
aF0.0021591487726185243
aF0.0021591487726185243
aF0.0021591487726185243
aF0.0021591487726185243
aF0.0021591487726185243
aF0.0021591487726185243
aF0.0021591487726185243
aF0.0021591487726185243
aF0.0021591487726185243
aF0.0021591487726185243
aI0
aI0
aI0
aI0
aI0
aI0
aI0
aI2
aI0
aI0
aI26
aI2
aI0
aI4
aI2
aI1
aI0
aI0
aI24
aI25
aI0
aI0
aI0
aI0
aI0
aI0
aI0
aI0
aI0
aI0
aI0
aI0
aI0
aI0
aI2
aI4
aI0
aI0
aI0
aI0
aI0
aI0
aI0
aI0
aI0
aI0
aI0
aI0
aI0
aI0
aI0
aI0
aI0
aI0
aI0
aI0
aI0
aI0
aI9
aI0
aI0
aI3
aI13
aI0
aI0
aI15
aI0
aI0
aI3
aI4
aI3
aI0
aI1
aI3
aI5
aI0
aI0
aI3
aI1
aI0
aI0
aI0
aI1
aI1
aI0
aI0
aI0
aI0
aI0
aI0
aI0
aI1
aI6
aI12
aI3
aI1
aI0
aI0
aI0
aI0
aI0
aI0
aI0
aI0
aI0
aI0
aI0
aI0
aI6
aI9
aI1
aI0
aI0
aI1
aI0
aI0
aI0
aI7
aI5
aI3
aI0
aI2
aI0
aI0
aI0
aI0
aI0
aI0
aI0
aI0
aI0
aI0
aI0
aI0
aI0
aI0
aI0
aI0
aI0
aI0
aI0
aI0
aI0
aI0
aI0
aI0
aI0
aI8
aI0
aI0
aI0
aI74
aI0
aI0
aI0
aI0
aI0
aI0
aI0
aI0
aI0
aI0
aI0
aI0
aI0
aI0
aI0
aI15
aI0
aI0
aI0
aI0
aI0
aI0
aI0
aI0
aI0
aI0
aI0
aI0
aI0
aI0
aI0
aI0
aI0
aI0
aI0
aI0
aI0
aI0
aI0
aI0
aI0
aI0
aI0
aI0
aI0
aI0
aI5
aI2
aI0
aI0
aI2
aI8
aI0
aI0
aI5
aI0
aI0
aI0
aI0
aI0
aI24
aI0
aI0
aI0
aI7
aI0
aI0
aI0
aI5
aI16
aI12
aI0
aI0
aI0
aI0
aI0
aI0
aI0
aI0
aI0
aI0
aI0
aI0
aI2
aI0
aI0
aI1
aI5
aI0
aI0
aI0
aI0
aI0
aI0
aI0
aI11
aI0
aI0
aI0
aI12
aI0
aI0
aI0
aI0
aI0
aI0
aI0
aI0
aI0
aI0
aI0
aI0
aI0
aI0
aI0
aI0
aI0
aI0
aI0
aI0
aI0
aI0
aI0
aI0
aI15
aI0
aI0
aI0
aI22
aI0
aI0
aI0
aI0
aI0
aI0
aI0
aI0
aI0
aI0
aI0
aI24
aI0
aI0
aI0
aI36
aI0
aI0
aI0
aI0
aI0
aI0
aI0
aI0
aI0
aI0
aI0
aI0
aI0
aI0
aI0
aI0
aI0
aI0
aI0
aI0
aI0
aI0
aI0
aa(lp70
F14.198698386319757
aF271.38436312694904
aF16.208027144502285
aF5057.548314614052
aF369.0502314377296
aF36.00384990215936
aF1.5847009359431842e-05
aF1.5847009359431842e-05
aF1.5847009359431842e-05
aF1.5847009359431842e-05
aF1.5847009359431842e-05
aF1.5847009359431842e-05
aF1.5847009359431842e-05
aF1.5847009359431842e-05
aF1.5847009359431842e-05
aF1.5847009359431842e-05
aI0
aI0
aI0
aI0
aI0
aI0
aI0
aI0
aI0
aI2
aI20
aI0
aI0
aI4
aI0
aI0
aI0
aI0
aI0
aI0
aI0
aI0
aI0
aI0
aI0
aI0
aI0
aI0
aI0
aI0
aI0
aI0
aI0
aI0
aI0
aI0
aI0
aI0
aI0
aI0
aI0
aI0
aI0
aI0
aI0
aI0
aI0
aI0
aI0
aI0
aI0
aI0
aI0
aI0
aI0
aI0
aI0
aI1
aI12
aI0
aI0
aI10
aI4
aI0
aI0
aI7
aI0
aI0
aI0
aI7
aI1
aI0
aI1
aI1
aI1
aI0
aI0
aI0
aI0
aI0
aI0
aI0
aI0
aI0
aI0
aI0
aI0
aI0
aI0
aI0
aI0
aI0
aI3
aI2
aI8
aI2
aI0
aI0
aI0
aI0
aI0
aI0
aI0
aI0
aI1
aI0
aI0
aI1
aI2
aI16
aI2
aI1
aI0
aI0
aI0
aI0
aI2
aI24
aI0
aI0
aI0
aI6
aI0
aI0
aI0
aI3
aI1
aI0
aI0
aI0
aI0
aI0
aI0
aI0
aI0
aI0
aI0
aI0
aI0
aI0
aI0
aI0
aI0
aI0
aI0
aI0
aI0
aI3
aI0
aI0
aI0
aI26
aI0
aI0
aI0
aI0
aI0
aI0
aI0
aI0
aI0
aI0
aI0
aI6
aI0
aI0
aI0
aI52
aI0
aI0
aI0
aI5
aI0
aI0
aI0
aI0
aI0
aI0
aI0
aI0
aI0
aI0
aI0
aI0
aI0
aI0
aI0
aI0
aI0
aI0
aI0
aI0
aI0
aI0
aI0
aI0
aI6
aI1
aI0
aI0
aI0
aI0
aI0
aI0
aI0
aI0
aI0
aI0
aI0
aI0
aI0
aI0
aI8
aI0
aI0
aI0
aI12
aI0
aI0
aI0
aI0
aI0
aI0
aI0
aI0
aI0
aI0
aI0
aI8
aI0
aI0
aI0
aI18
aI0
aI0
aI0
aI0
aI0
aI0
aI0
aI0
aI0
aI0
aI0
aI0
aI0
aI0
aI0
aI0
aI0
aI0
aI0
aI0
aI0
aI0
aI0
aI0
aI0
aI0
aI0
aI0
aI0
aI0
aI0
aI0
aI0
aI0
aI0
aI0
aI0
aI0
aI0
aI0
aI0
aI0
aI0
aI32
aI0
aI0
aI0
aI34
aI0
aI0
aI0
aI0
aI0
aI0
aI0
aI0
aI0
aI0
aI0
aI2
aI0
aI0
aI0
aI24
aI0
aI0
aI0
aI0
aI0
aI0
aI0
aI0
aI0
aI0
aI0
aI0
aI0
aI0
aI0
aI0
aI0
aI0
aI0
aI0
aI0
aI0
aI0
aa(lp71
F0.0
aF0.0
aF0.0
aI0
aI0
aI0
aI0
aI0
aI0
aI0
aI0
aI0
aI0
aI0
aI0
aI0
aI0
aI0
aI0
aI0
aI0
aI0
aI0
aI0
aI0
aI0
aI0
aI0
aI0
aI0
aI0
aI0
aI0
aI0
aI0
aI0
aI0
aI0
aI0
aI0
aI0
aI0
aI0
aI0
aI0
aI0
aI0
aI0
aI0
aI0
aI0
aI0
aI0
aI0
aI0
aI0
aI0
aI0
aI0
aI0
aI0
aI0
aI0
aI0
aI0
aI0
aI0
aI0
aI0
aI0
aI0
aI0
aI0
aI0
aI0
aI0
aI0
aI0
aI0
aI0
aI0
aI0
aI0
aI0
aI0
aI0
aI0
aI0
aI0
aI0
aI0
aI0
aI0
aI0
aI0
aI0
aI0
aI0
aI0
aI0
aI0
aI0
aI0
aI0
aI0
aI0
aI0
aI0
aI0
aI0
aI0
aI0
aI0
aI0
aI0
aI0
aI0
aI0
aI0
aI0
aI0
aI0
aI0
aI0
aI0
aI0
aI0
aI0
aI0
aI0
aI0
aI0
aI0
aI0
aI0
aI0
aI0
aI0
aI0
aI0
aI0
aI0
aI0
aI0
aI0
aI0
aI0
aI0
aI0
aI0
aI0
aI0
aI0
aI0
aI0
aI0
aI0
aI0
aI0
aI0
aI0
aI0
aI0
aI0
aI0
aI0
aI0
aI0
aI0
aI0
aI0
aI0
aI0
aI0
aI0
aI0
aI0
aI0
aI0
aI0
aI0
aI0
aI0
aI0
aI0
aI0
aI0
aI0
aI0
aI0
aI0
aI0
aI0
aI0
aI0
aI0
aI0
aI0
aI0
aI0
aI0
aI0
aI0
aI0
aI0
aI0
aI0
aI0
aI0
aI0
aI0
aI0
aI0
aI0
aI0
aI0
aI0
aI0
aI0
aI0
aI0
aI0
aI0
aI0
aI0
aI0
aI0
aI0
aI0
aI0
aI0
aI0
aI0
aI0
aI0
aI0
aI0
aI0
aI0
aI0
aI0
aI0
aI0
aI0
aI0
aI0
aI0
aI0
aI0
aI0
aI0
aI0
aI0
aI0
aI0
aI0
aI0
aI0
aI0
aI0
aI0
aI0
aI0
aI0
aI0
aI0
aI0
aI0
aI0
aI0
aI0
aI0
aI0
aI0
aI0
aI0
aI0
aI0
aI0
aI0
aI0
aI0
aI0
aI0
aI0
aI0
aI0
aI0
aI0
aI0
aI0
aI0
aI0
aI0
aI0
aI0
aI0
aI0
aI0
aI0
aI0
aI0
aI0
aI0
aI0
aI0
aI0
aI0
aI0
aI0
aI0
aI0
aI0
aI0
aI0
aI0
aI0
aI0
aI0
aI0
aI0
aI0
aI0
aI0
aI0
aI0
aI0
aI0
aI0
aI0
aI0
aI0
aI0
aI0
aI0
aI0
aa(lp72
F47.91148497182827
aF-111.01430114104342
aF-270.32041397758275
aF8275.12809223099
aF753.7174653522577
aF2068.6897049506556
aF0.0006186634371983059
aF0.0006186634371983059
aF0.0006186634371983059
aF0.0006186634371983059
aF0.0006186634371983059
aF0.0006186634371983059
aF0.0006186634371983059
aF0.0006186634371983059
aF0.0006186634371983059
aF0.0006186634371983059
aI0
aI0
aI0
aI0
aI11
aI20
aI0
aI0
aI0
aI6
aI1
aI1
aI0
aI0
aI0
aI0
aI0
aI0
aI3
aI0
aI1
aI0
aI0
aI0
aI1
aI0
aI0
aI0
aI0
aI0
aI0
aI0
aI1
aI0
aI1
aI0
aI0
aI0
aI0
aI0
aI0
aI0
aI0
aI0
aI0
aI0
aI2
aI0
aI0
aI3
aI0
aI0
aI6
aI14
aI1
aI0
aI0
aI9
aI1
aI0
aI0
aI0
aI1
aI0
aI0
aI0
aI0
aI0
aI0
aI8
aI3
aI0
aI1
aI0
aI1
aI1
aI0
aI0
aI0
aI0
aI0
aI0
aI0
aI0
aI0
aI0
aI0
aI1
aI1
aI0
aI0
aI0
aI0
aI0
aI0
aI0
aI0
aI0
aI1
aI0
aI0
aI0
aI0
aI6
aI0
aI0
aI0
aI0
aI0
aI0
aI0
aI0
aI0
aI0
aI0
aI0
aI0
aI0
aI1
aI2
aI2
aI6
aI7
aI3
aI0
aI1
aI0
aI0
aI0
aI0
aI0
aI0
aI0
aI0
aI0
aI10
aI0
aI0
aI0
aI0
aI0
aI0
aI0
aI0
aI0
aI0
aI0
aI0
aI0
aI0
aI0
aI21
aI0
aI0
aI0
aI1
aI0
aI0
aI0
aI0
aI0
aI0
aI0
aI0
aI0
aI0
aI0
aI13
aI0
aI0
aI0
aI0
aI0
aI0
aI0
aI0
aI0
aI0
aI0
aI0
aI0
aI0
aI0
aI0
aI0
aI0
aI0
aI0
aI0
aI0
aI0
aI0
aI0
aI0
aI0
aI0
aI1
aI0
aI0
aI1
aI0
aI0
aI0
aI5
aI0
aI0
aI0
aI0
aI0
aI0
aI0
aI0
aI18
aI0
aI0
aI5
aI0
aI0
aI0
aI5
aI0
aI0
aI0
aI0
aI0
aI0
aI0
aI0
aI6
aI0
aI0
aI12
aI15
aI0
aI0
aI5
aI0
aI0
aI0
aI0
aI0
aI0
aI0
aI0
aI2
aI0
aI0
aI0
aI6
aI0
aI1
aI1
aI0
aI0
aI0
aI0
aI0
aI0
aI0
aI0
aI0
aI0
aI0
aI0
aI0
aI0
aI0
aI0
aI0
aI0
aI0
aI0
aI0
aI0
aI0
aI0
aI14
aI0
aI0
aI0
aI7
aI0
aI0
aI0
aI0
aI0
aI0
aI0
aI0
aI0
aI0
aI0
aI14
aI0
aI0
aI0
aI10
aI0
aI0
aI0
aI0
aI0
aI0
aI0
aI0
aI0
aI0
aI0
aI0
aI0
aI0
aI0
aI0
aI0
aI0
aI0
aI0
aI0
aI0
aI0
aa(lp73
F-70.25493569677722
aF-106.07867065186811
aF-322.26348868219804
aF11444.102386707664
aF1034.8608713453389
aF2072.729223224955
aF34.67918954221405
aF34.67918954221405
aF34.67918954221405
aF34.67918954221405
aF34.67918954221405
aF34.67918954221405
aF34.67918954221405
aF34.67918954221405
aF34.67918954221405
aF34.67918954221405
aI0
aI0
aI1
aI0
aI46
aI103
aI7
aI0
aI0
aI17
aI4
aI0
aI0
aI0
aI0
aI0
aI0
aI0
aI0
aI0
aI0
aI0
aI0
aI0
aI0
aI0
aI0
aI0
aI0
aI0
aI0
aI0
aI0
aI0
aI0
aI0
aI0
aI0
aI0
aI0
aI0
aI0
aI0
aI0
aI0
aI0
aI0
aI0
aI0
aI0
aI0
aI0
aI34
aI85
aI6
aI1
aI1
aI5
aI0
aI0
aI0
aI0
aI0
aI0
aI0
aI0
aI0
aI0
aI1
aI5
aI4
aI2
aI2
aI3
aI8
aI2
aI0
aI0
aI0
aI0
aI0
aI0
aI0
aI0
aI0
aI0
aI0
aI2
aI0
aI0
aI0
aI1
aI0
aI0
aI0
aI0
aI0
aI1
aI0
aI0
aI1
aI0
aI0
aI8
aI2
aI0
aI0
aI1
aI0
aI0
aI0
aI0
aI0
aI1
aI0
aI0
aI0
aI2
aI6
aI5
aI3
aI12
aI7
aI11
aI0
aI0
aI0
aI0
aI0
aI0
aI0
aI0
aI0
aI0
aI0
aI4
aI0
aI0
aI0
aI0
aI0
aI0
aI0
aI0
aI0
aI0
aI0
aI0
aI0
aI0
aI0
aI59
aI0
aI0
aI0
aI0
aI0
aI0
aI0
aI0
aI0
aI0
aI0
aI0
aI0
aI0
aI0
aI21
aI0
aI0
aI0
aI0
aI0
aI0
aI0
aI0
aI0
aI0
aI0
aI0
aI0
aI0
aI0
aI6
aI0
aI0
aI0
aI0
aI0
aI0
aI0
aI0
aI0
aI0
aI0
aI0
aI0
aI0
aI0
aI3
aI0
aI0
aI0
aI4
aI0
aI0
aI0
aI0
aI0
aI0
aI0
aI0
aI78
aI0
aI0
aI10
aI5
aI0
aI0
aI38
aI0
aI0
aI1
aI0
aI0
aI0
aI0
aI0
aI28
aI0
aI0
aI17
aI65
aI0
aI0
aI42
aI0
aI0
aI0
aI0
aI0
aI0
aI0
aI0
aI3
aI2
aI2
aI2
aI2
aI0
aI2
aI6
aI0
aI0
aI0
aI0
aI0
aI0
aI0
aI0
aI0
aI0
aI1
aI0
aI0
aI0
aI0
aI0
aI0
aI0
aI0
aI0
aI0
aI0
aI0
aI0
aI22
aI0
aI0
aI13
aI6
aI0
aI0
aI0
aI0
aI0
aI0
aI0
aI0
aI0
aI0
aI0
aI18
aI0
aI0
aI0
aI28
aI0
aI0
aI1
aI0
aI0
aI0
aI0
aI0
aI0
aI0
aI0
aI0
aI0
aI0
aI0
aI0
aI0
aI1
aI0
aI0
aI0
aI0
aI0
aa(lp74
F-51.9971134833136
aF-60.30794331544332
aF-247.90657638769358
aF10187.468021514349
aF902.0357709131629
aF2831.1448140136004
aF18.576966523755573
aF18.576966523755573
aF18.576966523755573
aF18.576966523755573
aF18.576966523755573
aF18.576966523755573
aF18.576966523755573
aF18.576966523755573
aF18.576966523755573
aF18.576966523755573
aI0
aI0
aI0
aI0
aI30
aI85
aI1
aI3
aI0
aI28
aI13
aI0
aI0
aI0
aI0
aI0
aI0
aI0
aI0
aI0
aI4
aI0
aI0
aI1
aI1
aI0
aI0
aI0
aI1
aI1
aI0
aI0
aI0
aI0
aI0
aI0
aI0
aI0
aI0
aI2
aI0
aI0
aI0
aI0
aI2
aI0
aI0
aI0
aI0
aI0
aI0
aI0
aI22
aI48
aI3
aI0
aI6
aI14
aI3
aI0
aI0
aI0
aI0
aI0
aI0
aI0
aI0
aI0
aI0
aI9
aI7
aI3
aI1
aI0
aI1
aI0
aI0
aI0
aI0
aI0
aI0
aI0
aI0
aI0
aI0
aI0
aI0
aI5
aI1
aI0
aI0
aI0
aI0
aI0
aI0
aI0
aI0
aI0
aI2
aI2
aI1
aI0
aI0
aI3
aI0
aI0
aI0
aI5
aI0
aI0
aI0
aI0
aI0
aI0
aI4
aI1
aI3
aI1
aI3
aI3
aI6
aI2
aI7
aI9
aI0
aI0
aI0
aI2
aI0
aI0
aI0
aI0
aI0
aI0
aI0
aI0
aI0
aI0
aI0
aI0
aI0
aI0
aI0
aI0
aI0
aI0
aI0
aI0
aI0
aI0
aI0
aI49
aI0
aI0
aI0
aI10
aI0
aI0
aI0
aI0
aI0
aI0
aI0
aI0
aI0
aI0
aI0
aI20
aI0
aI0
aI0
aI1
aI0
aI0
aI0
aI0
aI0
aI0
aI0
aI0
aI0
aI0
aI0
aI0
aI0
aI0
aI0
aI1
aI0
aI0
aI0
aI0
aI0
aI0
aI0
aI0
aI1
aI0
aI0
aI0
aI1
aI1
aI0
aI4
aI0
aI0
aI0
aI0
aI0
aI0
aI0
aI0
aI72
aI0
aI0
aI5
aI9
aI0
aI0
aI29
aI0
aI0
aI0
aI0
aI0
aI0
aI0
aI0
aI41
aI0
aI0
aI28
aI42
aI0
aI0
aI16
aI0
aI0
aI0
aI0
aI0
aI0
aI0
aI0
aI3
aI1
aI1
aI0
aI1
aI1
aI0
aI12
aI0
aI0
aI0
aI0
aI0
aI0
aI0
aI0
aI1
aI0
aI0
aI0
aI0
aI0
aI0
aI0
aI0
aI0
aI0
aI0
aI0
aI0
aI0
aI0
aI13
aI0
aI0
aI13
aI5
aI0
aI0
aI0
aI0
aI0
aI0
aI0
aI0
aI0
aI0
aI0
aI16
aI0
aI0
aI1
aI24
aI0
aI0
aI7
aI0
aI0
aI0
aI0
aI0
aI0
aI0
aI0
aI0
aI0
aI0
aI0
aI0
aI1
aI0
aI0
aI0
aI0
aI0
aI0
aa(lp75
F-222.63774765363422
aF-141.10105323173818
aF-310.8406846928647
aF9023.947615642965
aF849.5796417848321
aF1194.130263746418
aF0.21967013955776468
aF0.21967013955776468
aF0.21967013955776468
aF0.21967013955776468
aF0.21967013955776468
aF0.21967013955776468
aF0.21967013955776468
aF0.21967013955776468
aF0.21967013955776468
aF0.21967013955776468
aI2
aI8
aI2
aI0
aI13
aI76
aI5
aI0
aI1
aI3
aI0
aI1
aI0
aI0
aI0
aI0
aI0
aI0
aI0
aI0
aI1
aI0
aI0
aI0
aI0
aI0
aI0
aI0
aI0
aI1
aI0
aI0
aI0
aI0
aI0
aI1
aI0
aI0
aI0
aI0
aI0
aI0
aI0
aI0
aI0
aI3
aI0
aI0
aI1
aI1
aI1
aI0
aI3
aI22
aI2
aI0
aI0
aI12
aI1
aI1
aI0
aI2
aI0
aI0
aI0
aI0
aI0
aI0
aI1
aI2
aI6
aI2
aI1
aI6
aI2
aI4
aI0
aI2
aI2
aI1
aI0
aI0
aI0
aI0
aI0
aI0
aI0
aI6
aI0
aI0
aI0
aI2
aI0
aI0
aI1
aI3
aI0
aI0
aI0
aI0
aI0
aI0
aI0
aI0
aI1
aI0
aI0
aI6
aI1
aI0
aI0
aI1
aI0
aI1
aI1
aI0
aI1
aI1
aI4
aI4
aI2
aI3
aI8
aI12
aI2
aI4
aI1
aI0
aI0
aI0
aI0
aI0
aI0
aI0
aI0
aI19
aI0
aI0
aI0
aI0
aI0
aI0
aI0
aI0
aI0
aI0
aI0
aI0
aI0
aI0
aI0
aI30
aI0
aI0
aI0
aI0
aI0
aI0
aI0
aI0
aI0
aI0
aI0
aI0
aI0
aI0
aI0
aI17
aI0
aI0
aI0
aI0
aI0
aI0
aI0
aI0
aI0
aI0
aI0
aI0
aI0
aI0
aI4
aI24
aI0
aI0
aI0
aI0
aI0
aI0
aI0
aI0
aI0
aI0
aI1
aI0
aI5
aI0
aI0
aI0
aI2
aI2
aI1
aI13
aI0
aI0
aI0
aI0
aI0
aI0
aI0
aI1
aI33
aI0
aI0
aI3
aI8
aI0
aI0
aI6
aI0
aI0
aI0
aI0
aI0
aI0
aI0
aI0
aI11
aI0
aI0
aI5
aI16
aI0
aI0
aI11
aI0
aI0
aI0
aI0
aI0
aI0
aI0
aI0
aI3
aI3
aI4
aI4
aI6
aI2
aI6
aI17
aI0
aI0
aI0
aI0
aI0
aI0
aI0
aI0
aI0
aI0
aI0
aI1
aI0
aI0
aI0
aI0
aI0
aI0
aI0
aI0
aI0
aI0
aI0
aI0
aI9
aI0
aI0
aI2
aI27
aI0
aI0
aI0
aI0
aI0
aI0
aI0
aI0
aI0
aI0
aI0
aI46
aI0
aI0
aI0
aI9
aI0
aI0
aI0
aI0
aI0
aI0
aI0
aI0
aI0
aI0
aI0
aI0
aI0
aI0
aI0
aI0
aI0
aI0
aI0
aI0
aI0
aI0
aI0
aa(lp76
F-305.3064004766642
aF-241.80978547428035
aF-400.9724148636502
aF14474.816664289658
aF1935.9595031330632
aF3366.5223807861353
aF0.6259865022517935
aF0.6259865022517935
aF0.6259865022517935
aF0.6259865022517935
aF0.6259865022517935
aF0.6259865022517935
aF0.6259865022517935
aF0.6259865022517935
aF0.6259865022517935
aF0.6259865022517935
aI18
aI7
aI0
aI0
aI20
aI70
aI0
aI0
aI0
aI12
aI5
aI3
aI0
aI0
aI0
aI0
aI8
aI0
aI0
aI0
aI1
aI0
aI0
aI0
aI0
aI0
aI0
aI0
aI0
aI1
aI0
aI0
aI0
aI0
aI0
aI0
aI1
aI0
aI0
aI0
aI0
aI0
aI0
aI0
aI0
aI2
aI0
aI2
aI0
aI0
aI0
aI0
aI23
aI16
aI2
aI0
aI1
aI4
aI1
aI0
aI0
aI2
aI0
aI0
aI0
aI0
aI0
aI1
aI2
aI1
aI1
aI0
aI1
aI4
aI5
aI2
aI0
aI0
aI3
aI1
aI0
aI0
aI1
aI2
aI0
aI0
aI0
aI3
aI0
aI0
aI0
aI6
aI0
aI0
aI0
aI0
aI2
aI0
aI1
aI0
aI0
aI0
aI0
aI1
aI0
aI0
aI0
aI15
aI0
aI0
aI0
aI0
aI3
aI0
aI1
aI0
aI2
aI3
aI1
aI8
aI4
aI5
aI6
aI9
aI0
aI6
aI7
aI1
aI0
aI0
aI0
aI0
aI0
aI0
aI1
aI44
aI0
aI0
aI0
aI0
aI0
aI0
aI0
aI0
aI0
aI0
aI0
aI0
aI0
aI0
aI0
aI27
aI0
aI0
aI0
aI7
aI0
aI0
aI0
aI0
aI0
aI0
aI0
aI0
aI0
aI0
aI0
aI0
aI0
aI0
aI0
aI0
aI0
aI0
aI0
aI0
aI0
aI0
aI0
aI0
aI0
aI0
aI0
aI22
aI0
aI0
aI0
aI7
aI0
aI0
aI0
aI0
aI4
aI1
aI0
aI0
aI6
aI27
aI3
aI0
aI0
aI1
aI26
aI0
aI0
aI1
aI0
aI0
aI5
aI3
aI0
aI0
aI5
aI0
aI0
aI0
aI0
aI0
aI0
aI0
aI0
aI1
aI0
aI0
aI4
aI3
aI3
aI1
aI1
aI0
aI0
aI1
aI3
aI0
aI0
aI0
aI1
aI0
aI0
aI0
aI1
aI5
aI5
aI0
aI1
aI8
aI6
aI13
aI6
aI13
aI38
aI1
aI1
aI1
aI0
aI0
aI0
aI0
aI0
aI0
aI0
aI0
aI0
aI0
aI0
aI0
aI0
aI0
aI0
aI0
aI0
aI0
aI0
aI0
aI0
aI0
aI5
aI0
aI0
aI15
aI29
aI0
aI0
aI0
aI0
aI0
aI0
aI0
aI0
aI0
aI0
aI0
aI31
aI0
aI0
aI3
aI24
aI0
aI0
aI0
aI0
aI0
aI0
aI0
aI0
aI0
aI0
aI0
aI0
aI0
aI0
aI1
aI0
aI0
aI0
aI0
aI0
aI0
aI0
aI0
aa(lp77
F-222.69305611901288
aF-81.76371522940197
aF-331.2148723575497
aF13168.324955930857
aF2819.1371592334003
aF2261.134389476877
aF0.0742091497981847
aF0.0742091497981847
aF0.0742091497981847
aF0.0742091497981847
aF0.0742091497981847
aF0.0742091497981847
aF0.0742091497981847
aF0.0742091497981847
aF0.0742091497981847
aF0.0742091497981847
aI0
aI2
aI0
aI0
aI26
aI70
aI5
aI0
aI0
aI7
aI3
aI1
aI0
aI0
aI0
aI0
aI1
aI0
aI0
aI0
aI2
aI0
aI0
aI0
aI0
aI0
aI0
aI0
aI0
aI0
aI0
aI0
aI0
aI1
aI1
aI0
aI1
aI0
aI0
aI0
aI0
aI0
aI0
aI0
aI0
aI0
aI3
aI0
aI0
aI1
aI0
aI0
aI7
aI21
aI2
aI0
aI1
aI14
aI6
aI0
aI0
aI0
aI2
aI0
aI0
aI0
aI2
aI0
aI1
aI5
aI4
aI2
aI1
aI2
aI7
aI0
aI0
aI0
aI0
aI0
aI3
aI0
aI3
aI0
aI0
aI0
aI0
aI4
aI0
aI0
aI0
aI0
aI0
aI0
aI0
aI1
aI0
aI1
aI0
aI0
aI0
aI0
aI0
aI3
aI0
aI0
aI0
aI2
aI0
aI0
aI0
aI0
aI0
aI0
aI1
aI0
aI0
aI1
aI5
aI3
aI1
aI3
aI7
aI13
aI0
aI0
aI0
aI1
aI0
aI0
aI0
aI0
aI0
aI0
aI0
aI13
aI0
aI0
aI0
aI3
aI0
aI0
aI0
aI0
aI0
aI0
aI0
aI0
aI0
aI0
aI0
aI17
aI0
aI0
aI0
aI8
aI0
aI0
aI0
aI0
aI0
aI0
aI0
aI0
aI0
aI0
aI0
aI16
aI0
aI0
aI0
aI6
aI0
aI0
aI0
aI0
aI0
aI0
aI0
aI0
aI0
aI0
aI0
aI13
aI0
aI0
aI0
aI0
aI0
aI0
aI0
aI0
aI0
aI0
aI0
aI0
aI0
aI0
aI0
aI0
aI0
aI1
aI0
aI2
aI0
aI0
aI0
aI0
aI0
aI0
aI0
aI0
aI52
aI0
aI0
aI0
aI6
aI0
aI0
aI15
aI0
aI0
aI0
aI0
aI0
aI0
aI0
aI0
aI45
aI0
aI0
aI3
aI35
aI0
aI0
aI15
aI0
aI0
aI0
aI0
aI0
aI0
aI0
aI0
aI0
aI1
aI1
aI0
aI0
aI0
aI1
aI0
aI0
aI0
aI0
aI0
aI0
aI1
aI0
aI0
aI0
aI0
aI0
aI0
aI0
aI0
aI0
aI0
aI0
aI0
aI0
aI0
aI0
aI0
aI0
aI0
aI8
aI0
aI0
aI14
aI13
aI0
aI0
aI0
aI0
aI0
aI0
aI0
aI0
aI0
aI0
aI0
aI9
aI0
aI0
aI7
aI5
aI0
aI0
aI9
aI0
aI0
aI0
aI0
aI0
aI0
aI0
aI0
aI1
aI0
aI1
aI0
aI1
aI0
aI5
aI2
aI0
aI0
aI0
aI0
aa(lp78
F-132.0226212923899
aF-102.01581997199965
aF-337.05717520562166
aF14792.009665232237
aF2411.5494550458507
aF2008.9863228643383
aF1.6725590279534726
aF1.6725590279534726
aF1.6725590279534726
aF1.6725590279534726
aF1.6725590279534726
aF1.6725590279534726
aF1.6725590279534726
aF1.6725590279534726
aF1.6725590279534726
aF1.6725590279534726
aI0
aI0
aI1
aI0
aI44
aI97
aI8
aI2
aI4
aI5
aI4
aI1
aI0
aI0
aI0
aI0
aI0
aI0
aI0
aI0
aI3
aI0
aI0
aI1
aI0
aI0
aI0
aI0
aI0
aI0
aI0
aI0
aI0
aI0
aI1
aI0
aI3
aI0
aI0
aI1
aI0
aI0
aI0
aI2
aI0
aI0
aI0
aI0
aI0
aI0
aI0
aI0
aI32
aI31
aI6
aI0
aI0
aI21
aI2
aI2
aI0
aI0
aI2
aI0
aI0
aI5
aI1
aI1
aI2
aI5
aI4
aI1
aI0
aI0
aI3
aI8
aI0
aI0
aI0
aI0
aI0
aI0
aI0
aI1
aI3
aI0
aI0
aI4
aI2
aI0
aI0
aI5
aI0
aI0
aI0
aI0
aI0
aI1
aI0
aI0
aI0
aI0
aI0
aI7
aI0
aI0
aI0
aI0
aI2
aI0
aI0
aI0
aI0
aI1
aI0
aI0
aI1
aI1
aI3
aI3
aI1
aI4
aI10
aI5
aI0
aI0
aI1
aI0
aI0
aI0
aI0
aI0
aI0
aI0
aI0
aI8
aI0
aI0
aI0
aI0
aI0
aI0
aI0
aI0
aI0
aI0
aI0
aI0
aI0
aI0
aI0
aI31
aI0
aI0
aI0
aI0
aI0
aI0
aI0
aI0
aI0
aI0
aI0
aI0
aI0
aI0
aI0
aI26
aI0
aI0
aI0
aI7
aI0
aI0
aI0
aI0
aI0
aI0
aI0
aI0
aI0
aI0
aI0
aI13
aI0
aI0
aI0
aI0
aI0
aI0
aI0
aI0
aI0
aI0
aI0
aI0
aI0
aI0
aI0
aI0
aI2
aI2
aI1
aI4
aI0
aI1
aI0
aI0
aI0
aI0
aI0
aI0
aI59
aI0
aI0
aI4
aI30
aI0
aI0
aI24
aI0
aI0
aI0
aI0
aI0
aI1
aI0
aI1
aI69
aI0
aI0
aI9
aI38
aI0
aI0
aI18
aI0
aI0
aI0
aI0
aI0
aI0
aI0
aI0
aI3
aI1
aI1
aI1
aI1
aI1
aI0
aI2
aI0
aI0
aI0
aI0
aI0
aI0
aI2
aI0
aI0
aI0
aI0
aI1
aI0
aI0
aI0
aI0
aI0
aI0
aI0
aI0
aI1
aI0
aI0
aI0
aI2
aI0
aI0
aI15
aI14
aI0
aI0
aI0
aI0
aI0
aI0
aI0
aI0
aI0
aI0
aI0
aI10
aI0
aI0
aI11
aI3
aI0
aI0
aI17
aI0
aI0
aI0
aI0
aI0
aI0
aI0
aI0
aI0
aI0
aI0
aI0
aI1
aI2
aI0
aI6
aI0
aI0
aI0
aI0
aa(lp79
F-42.40187438727796
aF-120.67367390678852
aF-306.0266379053083
aF13496.803594815166
aF1868.200464497207
aF2595.511268666641
aF0.2811575076011212
aF0.2811575076011212
aF0.2811575076011212
aF0.2811575076011212
aF0.2811575076011212
aF0.2811575076011212
aF0.2811575076011212
aF0.2811575076011212
aF0.2811575076011212
aF0.2811575076011212
aI2
aI8
aI0
aI0
aI10
aI68
aI0
aI0
aI4
aI14
aI5
aI2
aI0
aI0
aI0
aI0
aI1
aI1
aI2
aI0
aI1
aI0
aI0
aI1
aI0
aI0
aI0
aI0
aI0
aI0
aI0
aI0
aI0
aI2
aI0
aI0
aI0
aI0
aI0
aI0
aI0
aI0
aI0
aI0
aI0
aI2
aI0
aI3
aI0
aI2
aI1
aI0
aI22
aI11
aI2
aI0
aI2
aI23
aI1
aI0
aI0
aI2
aI0
aI0
aI0
aI0
aI0
aI0
aI1
aI0
aI8
aI2
aI0
aI5
aI6
aI0
aI0
aI0
aI1
aI1
aI1
aI0
aI0
aI0
aI0
aI0
aI0
aI2
aI0
aI0
aI0
aI3
aI0
aI0
aI0
aI2
aI0
aI0
aI1
aI0
aI2
aI0
aI0
aI1
aI2
aI0
aI0
aI2
aI0
aI0
aI0
aI0
aI0
aI1
aI2
aI0
aI0
aI1
aI8
aI1
aI2
aI3
aI9
aI4
aI1
aI8
aI4
aI1
aI0
aI0
aI0
aI0
aI0
aI0
aI0
aI22
aI0
aI0
aI0
aI0
aI0
aI0
aI0
aI0
aI0
aI0
aI0
aI0
aI0
aI0
aI0
aI19
aI0
aI0
aI0
aI8
aI0
aI0
aI0
aI0
aI0
aI0
aI0
aI0
aI0
aI0
aI0
aI13
aI0
aI0
aI0
aI0
aI0
aI0
aI0
aI0
aI0
aI0
aI0
aI0
aI0
aI0
aI2
aI20
aI0
aI0
aI0
aI1
aI0
aI0
aI0
aI0
aI0
aI0
aI0
aI0
aI1
aI1
aI0
aI3
aI20
aI4
aI1
aI1
aI0
aI0
aI0
aI0
aI0
aI0
aI0
aI0
aI14
aI0
aI0
aI31
aI9
aI0
aI0
aI6
aI0
aI0
aI0
aI0
aI0
aI0
aI0
aI0
aI23
aI0
aI0
aI12
aI14
aI0
aI0
aI23
aI0
aI0
aI0
aI0
aI0
aI0
aI0
aI0
aI8
aI4
aI4
aI4
aI9
aI0
aI0
aI0
aI0
aI0
aI0
aI0
aI0
aI2
aI0
aI0
aI0
aI0
aI0
aI0
aI0
aI0
aI0
aI0
aI0
aI0
aI0
aI0
aI0
aI0
aI0
aI0
aI6
aI0
aI0
aI9
aI23
aI0
aI0
aI0
aI0
aI0
aI0
aI0
aI1
aI0
aI0
aI0
aI19
aI0
aI0
aI5
aI17
aI0
aI0
aI0
aI0
aI0
aI0
aI0
aI0
aI0
aI0
aI0
aI0
aI0
aI0
aI0
aI2
aI0
aI1
aI0
aI0
aI0
aI0
aI0
aa(lp80
F-209.97412423002694
aF-40.46505072300906
aF-249.55925717250793
aF16352.798915090754
aF2298.744203050771
aF2097.70676286801
aF2.5402703948949856
aF2.5402703948949856
aF2.5402703948949856
aF2.5402703948949856
aF2.5402703948949856
aF2.5402703948949856
aF2.5402703948949856
aF2.5402703948949856
aF2.5402703948949856
aF2.5402703948949856
aI0
aI0
aI0
aI0
aI44
aI91
aI3
aI1
aI5
aI54
aI11
aI1
aI0
aI0
aI0
aI0
aI0
aI0
aI0
aI0
aI0
aI0
aI0
aI1
aI3
aI0
aI0
aI1
aI0
aI0
aI0
aI0
aI2
aI0
aI0
aI0
aI3
aI0
aI0
aI0
aI2
aI0
aI0
aI0
aI0
aI0
aI0
aI0
aI0
aI0
aI0
aI0
aI34
aI12
aI1
aI0
aI1
aI28
aI2
aI0
aI0
aI0
aI0
aI0
aI0
aI2
aI0
aI0
aI1
aI3
aI13
aI2
aI4
aI4
aI7
aI4
aI0
aI1
aI0
aI0
aI0
aI1
aI0
aI0
aI1
aI0
aI0
aI4
aI0
aI0
aI0
aI2
aI2
aI0
aI0
aI0
aI2
aI2
aI0
aI0
aI3
aI0
aI0
aI1
aI2
aI0
aI0
aI11
aI0
aI0
aI0
aI3
aI0
aI0
aI2
aI0
aI1
aI3
aI6
aI4
aI7
aI13
aI7
aI9
aI0
aI1
aI0
aI0
aI0
aI0
aI0
aI0
aI0
aI0
aI0
aI22
aI0
aI0
aI0
aI1
aI0
aI0
aI0
aI0
aI0
aI0
aI0
aI0
aI0
aI0
aI0
aI34
aI0
aI0
aI0
aI16
aI0
aI0
aI0
aI0
aI0
aI0
aI0
aI0
aI0
aI0
aI0
aI25
aI0
aI0
aI0
aI2
aI0
aI0
aI0
aI0
aI0
aI0
aI0
aI0
aI0
aI0
aI0
aI28
aI0
aI0
aI0
aI0
aI0
aI0
aI0
aI0
aI0
aI0
aI0
aI0
aI2
aI0
aI0
aI0
aI1
aI0
aI1
aI6
aI0
aI1
aI1
aI1
aI0
aI0
aI0
aI0
aI74
aI0
aI0
aI1
aI0
aI0
aI0
aI44
aI1
aI0
aI0
aI0
aI0
aI0
aI0
aI0
aI56
aI0
aI0
aI11
aI28
aI0
aI0
aI37
aI0
aI0
aI0
aI0
aI0
aI0
aI0
aI0
aI9
aI5
aI7
aI13
aI0
aI0
aI0
aI1
aI0
aI0
aI0
aI0
aI0
aI0
aI0
aI0
aI1
aI0
aI4
aI3
aI0
aI0
aI0
aI0
aI0
aI0
aI0
aI0
aI0
aI0
aI0
aI0
aI8
aI0
aI0
aI11
aI28
aI0
aI0
aI0
aI0
aI0
aI0
aI0
aI0
aI0
aI0
aI0
aI36
aI0
aI0
aI9
aI26
aI0
aI0
aI0
aI0
aI0
aI0
aI0
aI0
aI1
aI0
aI0
aI1
aI0
aI0
aI0
aI0
aI0
aI0
aI0
aI0
aI0
aI0
aI0
aa(lp81
F-238.6806300173531
aF-66.83384536167574
aF-264.3363335404105
aF19839.35298693514
aF2257.416355936817
aF3174.214960622885
aF99.29123674892763
aF99.29123674892763
aF99.29123674892763
aF99.29123674892763
aF99.29123674892763
aF99.29123674892763
aF99.29123674892763
aF99.29123674892763
aF99.29123674892763
aF99.29123674892763
aI0
aI0
aI0
aI0
aI69
aI124
aI5
aI4
aI15
aI15
aI16
aI0
aI0
aI1
aI0
aI0
aI0
aI0
aI0
aI0
aI3
aI0
aI0
aI2
aI5
aI0
aI0
aI0
aI12
aI8
aI0
aI0
aI0
aI0
aI0
aI0
aI0
aI0
aI0
aI0
aI0
aI0
aI0
aI1
aI4
aI1
aI0
aI0
aI0
aI0
aI0
aI0
aI32
aI39
aI2
aI0
aI2
aI2
aI2
aI1
aI0
aI1
aI0
aI0
aI0
aI3
aI1
aI0
aI4
aI11
aI5
aI0
aI0
aI5
aI6
aI2
aI1
aI0
aI0
aI0
aI1
aI0
aI0
aI2
aI3
aI0
aI0
aI8
aI1
aI0
aI0
aI0
aI1
aI2
aI1
aI0
aI0
aI0
aI1
aI2
aI0
aI0
aI0
aI10
aI1
aI0
aI0
aI3
aI0
aI0
aI0
aI2
aI0
aI0
aI0
aI0
aI1
aI1
aI10
aI6
aI6
aI2
aI15
aI15
aI0
aI2
aI0
aI0
aI0
aI0
aI0
aI0
aI0
aI0
aI0
aI19
aI0
aI0
aI0
aI0
aI0
aI0
aI0
aI0
aI0
aI0
aI0
aI0
aI0
aI0
aI0
aI49
aI0
aI0
aI0
aI2
aI0
aI0
aI0
aI0
aI0
aI0
aI0
aI0
aI0
aI0
aI0
aI40
aI0
aI0
aI0
aI0
aI0
aI0
aI0
aI0
aI0
aI0
aI0
aI0
aI0
aI0
aI0
aI13
aI0
aI0
aI0
aI11
aI0
aI0
aI0
aI0
aI0
aI0
aI0
aI0
aI0
aI0
aI1
aI2
aI10
aI1
aI2
aI0
aI0
aI2
aI0
aI0
aI0
aI0
aI0
aI0
aI7
aI0
aI0
aI80
aI41
aI0
aI0
aI6
aI1
aI0
aI0
aI1
aI0
aI0
aI0
aI0
aI50
aI0
aI0
aI33
aI68
aI0
aI0
aI27
aI0
aI0
aI0
aI0
aI0
aI0
aI0
aI0
aI8
aI4
aI2
aI4
aI9
aI2
aI3
aI2
aI0
aI0
aI0
aI0
aI0
aI0
aI0
aI0
aI1
aI0
aI0
aI0
aI0
aI0
aI0
aI0
aI0
aI0
aI0
aI0
aI0
aI0
aI0
aI0
aI30
aI0
aI0
aI0
aI27
aI0
aI0
aI0
aI0
aI0
aI0
aI0
aI0
aI0
aI0
aI0
aI35
aI0
aI0
aI8
aI32
aI0
aI0
aI0
aI0
aI0
aI0
aI0
aI0
aI0
aI0
aI0
aI1
aI0
aI0
aI0
aI0
aI0
aI0
aI0
aI0
aI0
aI0
aI0
aa(lp82
F-47.503139739515184
aF-130.602724884984
aF-279.2489478250593
aF15612.324298466343
aF2944.9148258655828
aF3115.5740888509586
aF52.01596518946891
aF52.01596518946891
aF52.01596518946891
aF52.01596518946891
aF52.01596518946891
aF52.01596518946891
aF52.01596518946891
aF52.01596518946891
aF52.01596518946891
aF52.01596518946891
aI0
aI0
aI0
aI0
aI44
aI124
aI2
aI1
aI3
aI35
aI17
aI1
aI0
aI0
aI0
aI0
aI0
aI0
aI0
aI0
aI1
aI0
aI0
aI2
aI3
aI0
aI0
aI0
aI0
aI0
aI0
aI0
aI0
aI0
aI0
aI0
aI0
aI0
aI0
aI0
aI0
aI0
aI0
aI1
aI0
aI0
aI0
aI3
aI0
aI0
aI0
aI0
aI63
aI51
aI6
aI1
aI0
aI11
aI3
aI0
aI0
aI0
aI0
aI0
aI0
aI0
aI0
aI0
aI0
aI2
aI3
aI0
aI1
aI4
aI3
aI6
aI0
aI0
aI0
aI0
aI0
aI1
aI0
aI0
aI0
aI0
aI0
aI0
aI1
aI0
aI0
aI1
aI2
aI1
aI0
aI1
aI1
aI2
aI0
aI0
aI2
aI0
aI0
aI8
aI1
aI0
aI0
aI0
aI1
aI0
aI0
aI2
aI0
aI0
aI0
aI0
aI0
aI3
aI1
aI8
aI6
aI4
aI7
aI17
aI0
aI1
aI0
aI0
aI0
aI0
aI0
aI0
aI0
aI0
aI0
aI12
aI0
aI0
aI0
aI0
aI0
aI0
aI0
aI0
aI0
aI0
aI0
aI0
aI0
aI0
aI0
aI34
aI0
aI0
aI0
aI25
aI0
aI0
aI0
aI0
aI0
aI0
aI0
aI2
aI0
aI0
aI0
aI5
aI0
aI0
aI0
aI0
aI0
aI0
aI0
aI0
aI0
aI0
aI0
aI0
aI0
aI0
aI0
aI12
aI0
aI0
aI0
aI0
aI0
aI0
aI0
aI0
aI0
aI0
aI0
aI0
aI0
aI0
aI0
aI14
aI30
aI13
aI3
aI1
aI3
aI4
aI3
aI0
aI0
aI2
aI1
aI1
aI0
aI0
aI0
aI58
aI32
aI0
aI0
aI4
aI0
aI0
aI0
aI1
aI0
aI0
aI0
aI0
aI30
aI0
aI0
aI44
aI6
aI0
aI0
aI21
aI0
aI0
aI0
aI1
aI0
aI0
aI0
aI0
aI7
aI11
aI15
aI15
aI26
aI17
aI0
aI9
aI0
aI0
aI0
aI0
aI0
aI0
aI0
aI0
aI0
aI0
aI0
aI0
aI0
aI0
aI0
aI0
aI0
aI0
aI0
aI0
aI0
aI0
aI0
aI0
aI20
aI0
aI0
aI9
aI12
aI0
aI0
aI0
aI0
aI0
aI0
aI0
aI0
aI0
aI0
aI0
aI19
aI0
aI0
aI8
aI21
aI0
aI0
aI0
aI0
aI0
aI0
aI0
aI0
aI0
aI0
aI0
aI0
aI1
aI0
aI0
aI0
aI0
aI0
aI0
aI0
aI0
aI0
aI0
aa(lp83
F-131.00442240486683
aF-147.63514892174123
aF-318.55916572761885
aF18268.51733481965
aF2593.966436328404
aF2733.183087136481
aF24.038802165886082
aF24.038802165886082
aF24.038802165886082
aF24.038802165886082
aF24.038802165886082
aF24.038802165886082
aF24.038802165886082
aF24.038802165886082
aF24.038802165886082
aF24.038802165886082
aI1
aI11
aI0
aI0
aI37
aI108
aI7
aI0
aI0
aI13
aI5
aI3
aI0
aI1
aI0
aI0
aI0
aI0
aI0
aI1
aI4
aI0
aI0
aI1
aI8
aI0
aI0
aI1
aI6
aI1
aI0
aI0
aI0
aI1
aI1
aI0
aI0
aI0
aI0
aI0
aI1
aI0
aI0
aI0
aI3
aI10
aI1
aI0
aI0
aI0
aI0
aI0
aI31
aI51
aI1
aI0
aI0
aI3
aI0
aI0
aI0
aI0
aI0
aI0
aI1
aI2
aI0
aI0
aI2
aI3
aI1
aI1
aI0
aI5
aI3
aI7
aI0
aI0
aI0
aI0
aI1
aI0
aI0
aI0
aI0
aI0
aI0
aI4
aI0
aI0
aI0
aI2
aI0
aI0
aI0
aI0
aI1
aI0
aI0
aI1
aI0
aI0
aI0
aI0
aI0
aI0
aI0
aI6
aI2
aI0
aI0
aI1
aI0
aI0
aI1
aI0
aI2
aI0
aI3
aI2
aI3
aI5
aI8
aI15
aI0
aI1
aI0
aI0
aI0
aI0
aI0
aI0
aI0
aI0
aI0
aI28
aI0
aI0
aI0
aI0
aI0
aI0
aI0
aI0
aI0
aI0
aI0
aI0
aI0
aI0
aI0
aI21
aI0
aI0
aI0
aI6
aI0
aI0
aI0
aI0
aI0
aI0
aI0
aI0
aI0
aI0
aI0
aI7
aI0
aI0
aI0
aI2
aI0
aI0
aI0
aI0
aI0
aI0
aI0
aI0
aI0
aI0
aI0
aI19
aI0
aI0
aI0
aI0
aI0
aI0
aI0
aI0
aI0
aI0
aI0
aI0
aI0
aI0
aI0
aI0
aI1
aI0
aI0
aI0
aI0
aI0
aI0
aI0
aI0
aI0
aI0
aI0
aI8
aI0
aI0
aI51
aI74
aI0
aI0
aI3
aI1
aI0
aI0
aI0
aI1
aI0
aI0
aI2
aI58
aI0
aI0
aI23
aI66
aI0
aI0
aI14
aI0
aI0
aI0
aI1
aI1
aI0
aI1
aI0
aI2
aI2
aI1
aI1
aI0
aI0
aI0
aI0
aI0
aI0
aI0
aI0
aI0
aI0
aI0
aI0
aI0
aI0
aI0
aI0
aI0
aI0
aI0
aI0
aI0
aI0
aI0
aI0
aI0
aI0
aI0
aI0
aI14
aI0
aI0
aI0
aI19
aI0
aI0
aI0
aI0
aI0
aI0
aI0
aI0
aI0
aI0
aI0
aI32
aI0
aI0
aI3
aI14
aI0
aI0
aI0
aI0
aI0
aI0
aI0
aI0
aI1
aI0
aI0
aI0
aI0
aI0
aI0
aI0
aI0
aI0
aI0
aI0
aI0
aI0
aI0
aa(lp84
F-366.27731233978005
aF-148.03543921144907
aF-379.45645561626577
aF16182.397131519716
aF1648.2006586903801
aF2903.471899405208
aF3.126769931254324
aF3.126769931254324
aF3.126769931254324
aF3.126769931254324
aF3.126769931254324
aF3.126769931254324
aF3.126769931254324
aF3.126769931254324
aF3.126769931254324
aF3.126769931254324
aI3
aI0
aI0
aI0
aI61
aI74
aI0
aI0
aI0
aI27
aI10
aI0
aI0
aI1
aI0
aI0
aI1
aI1
aI0
aI0
aI12
aI0
aI0
aI0
aI5
aI0
aI0
aI0
aI2
aI1
aI0
aI0
aI1
aI0
aI0
aI0
aI0
aI0
aI0
aI1
aI0
aI0
aI0
aI0
aI0
aI2
aI0
aI0
aI0
aI1
aI0
aI0
aI22
aI18
aI8
aI0
aI0
aI3
aI0
aI0
aI0
aI2
aI0
aI0
aI0
aI0
aI0
aI0
aI1
aI0
aI2
aI0
aI0
aI0
aI3
aI6
aI0
aI0
aI0
aI0
aI0
aI0
aI0
aI0
aI0
aI0
aI0
aI0
aI0
aI0
aI0
aI1
aI0
aI0
aI0
aI1
aI2
aI0
aI0
aI0
aI0
aI0
aI0
aI1
aI1
aI0
aI0
aI1
aI0
aI0
aI0
aI0
aI0
aI1
aI0
aI0
aI2
aI0
aI0
aI5
aI3
aI6
aI8
aI8
aI0
aI2
aI1
aI0
aI0
aI0
aI0
aI0
aI0
aI0
aI0
aI14
aI0
aI0
aI0
aI0
aI0
aI0
aI0
aI0
aI0
aI0
aI0
aI0
aI0
aI0
aI0
aI17
aI0
aI0
aI0
aI10
aI0
aI0
aI0
aI0
aI0
aI0
aI0
aI0
aI0
aI0
aI0
aI0
aI0
aI0
aI0
aI0
aI0
aI0
aI0
aI0
aI0
aI0
aI0
aI0
aI0
aI0
aI0
aI14
aI0
aI0
aI0
aI0
aI0
aI0
aI0
aI0
aI0
aI0
aI0
aI0
aI2
aI0
aI0
aI0
aI2
aI6
aI7
aI14
aI0
aI0
aI0
aI0
aI0
aI0
aI0
aI1
aI63
aI0
aI0
aI0
aI4
aI0
aI0
aI9
aI0
aI0
aI0
aI0
aI0
aI0
aI0
aI2
aI35
aI0
aI0
aI18
aI12
aI0
aI0
aI42
aI0
aI0
aI0
aI0
aI0
aI0
aI0
aI0
aI8
aI4
aI4
aI5
aI1
aI4
aI2
aI11
aI0
aI0
aI0
aI0
aI0
aI0
aI0
aI0
aI1
aI0
aI0
aI0
aI0
aI0
aI0
aI0
aI0
aI0
aI0
aI0
aI0
aI0
aI0
aI0
aI1
aI0
aI0
aI8
aI14
aI0
aI0
aI0
aI0
aI0
aI0
aI0
aI0
aI0
aI0
aI0
aI12
aI0
aI0
aI11
aI8
aI0
aI0
aI0
aI0
aI0
aI0
aI0
aI0
aI0
aI0
aI0
aI0
aI0
aI0
aI0
aI0
aI0
aI0
aI0
aI0
aI0
aI0
aI0
aa(lp85
F-358.45423163534
aF-230.99543786380912
aF-336.6700380307984
aF12080.851560885543
aF1666.9370643717532
aF2581.8227237364995
aF12.378321038762266
aF12.378321038762266
aF12.378321038762266
aF12.378321038762266
aF12.378321038762266
aF12.378321038762266
aF12.378321038762266
aF12.378321038762266
aF12.378321038762266
aF12.378321038762266
aI0
aI1
aI3
aI0
aI50
aI106
aI0
aI1
aI1
aI16
aI8
aI0
aI0
aI0
aI0
aI0
aI0
aI0
aI1
aI0
aI2
aI0
aI0
aI0
aI1
aI0
aI0
aI0
aI0
aI0
aI0
aI0
aI0
aI0
aI0
aI0
aI0
aI0
aI0
aI0
aI0
aI0
aI0
aI0
aI0
aI0
aI1
aI3
aI0
aI1
aI0
aI0
aI13
aI29
aI3
aI1
aI0
aI9
aI0
aI0
aI0
aI0
aI2
aI0
aI0
aI0
aI0
aI0
aI0
aI0
aI1
aI1
aI0
aI1
aI1
aI2
aI0
aI0
aI0
aI0
aI0
aI0
aI0
aI0
aI0
aI0
aI0
aI4
aI1
aI0
aI0
aI2
aI0
aI0
aI0
aI0
aI0
aI0
aI0
aI0
aI0
aI0
aI0
aI3
aI0
aI0
aI0
aI4
aI0
aI0
aI0
aI0
aI0
aI0
aI1
aI0
aI3
aI1
aI2
aI1
aI4
aI7
aI6
aI8
aI0
aI3
aI2
aI2
aI0
aI0
aI0
aI0
aI0
aI0
aI0
aI13
aI0
aI0
aI0
aI0
aI0
aI0
aI0
aI0
aI0
aI0
aI0
aI0
aI0
aI0
aI0
aI26
aI0
aI0
aI0
aI9
aI0
aI0
aI0
aI0
aI0
aI0
aI0
aI0
aI0
aI0
aI0
aI6
aI0
aI0
aI0
aI0
aI0
aI0
aI0
aI0
aI0
aI0
aI0
aI0
aI0
aI0
aI0
aI6
aI0
aI0
aI0
aI0
aI0
aI0
aI0
aI0
aI0
aI0
aI0
aI0
aI1
aI0
aI0
aI0
aI1
aI0
aI6
aI9
aI0
aI0
aI0
aI0
aI0
aI0
aI0
aI0
aI74
aI0
aI0
aI0
aI10
aI0
aI0
aI11
aI0
aI0
aI0
aI0
aI0
aI0
aI0
aI0
aI32
aI0
aI0
aI25
aI23
aI0
aI0
aI34
aI0
aI0
aI0
aI0
aI0
aI0
aI0
aI0
aI2
aI1
aI1
aI0
aI5
aI2
aI4
aI11
aI0
aI0
aI0
aI0
aI0
aI0
aI0
aI0
aI0
aI1
aI0
aI0
aI0
aI0
aI0
aI0
aI0
aI0
aI0
aI0
aI0
aI0
aI0
aI0
aI15
aI0
aI0
aI4
aI6
aI0
aI0
aI0
aI0
aI0
aI0
aI0
aI0
aI0
aI0
aI0
aI7
aI0
aI0
aI5
aI21
aI0
aI0
aI1
aI0
aI0
aI0
aI0
aI0
aI0
aI0
aI0
aI0
aI0
aI0
aI0
aI0
aI0
aI0
aI0
aI0
aI0
aI0
aI0
aa(lp86
F-149.87334744886394
aF-76.21875017627033
aF-410.8162946317665
aF12800.66492398828
aF1667.4953777029523
aF2989.330127209718
aF0.0689543465809429
aF0.0689543465809429
aF0.0689543465809429
aF0.0689543465809429
aF0.0689543465809429
aF0.0689543465809429
aF0.0689543465809429
aF0.0689543465809429
aF0.0689543465809429
aF0.0689543465809429
aI0
aI0
aI0
aI0
aI15
aI47
aI6
aI0
aI0
aI2
aI4
aI0
aI0
aI0
aI0
aI0
aI0
aI0
aI0
aI0
aI0
aI0
aI0
aI0
aI1
aI0
aI0
aI0
aI0
aI0
aI0
aI0
aI1
aI1
aI0
aI0
aI0
aI0
aI0
aI0
aI0
aI0
aI0
aI1
aI0
aI0
aI0
aI0
aI0
aI0
aI0
aI0
aI6
aI16
aI1
aI0
aI18
aI12
aI0
aI0
aI0
aI0
aI0
aI0
aI0
aI2
aI0
aI0
aI2
aI7
aI11
aI2
aI0
aI0
aI2
aI0
aI0
aI0
aI0
aI0
aI1
aI0
aI0
aI1
aI0
aI0
aI0
aI4
aI0
aI0
aI0
aI0
aI0
aI0
aI0
aI0
aI0
aI0
aI0
aI0
aI0
aI0
aI0
aI6
aI1
aI0
aI0
aI1
aI0
aI0
aI0
aI0
aI0
aI0
aI0
aI0
aI0
aI2
aI5
aI4
aI1
aI7
aI2
aI4
aI1
aI0
aI0
aI0
aI0
aI0
aI0
aI0
aI0
aI0
aI0
aI4
aI0
aI0
aI0
aI0
aI0
aI0
aI0
aI0
aI0
aI0
aI0
aI0
aI0
aI0
aI0
aI21
aI0
aI0
aI0
aI11
aI0
aI0
aI0
aI0
aI0
aI0
aI0
aI0
aI0
aI0
aI0
aI14
aI0
aI0
aI0
aI0
aI0
aI0
aI0
aI0
aI0
aI0
aI0
aI0
aI0
aI0
aI0
aI13
aI0
aI0
aI0
aI3
aI0
aI0
aI0
aI0
aI0
aI0
aI0
aI0
aI0
aI0
aI0
aI3
aI8
aI0
aI1
aI0
aI1
aI2
aI0
aI0
aI0
aI0
aI0
aI0
aI1
aI0
aI0
aI22
aI28
aI0
aI0
aI0
aI1
aI1
aI0
aI0
aI1
aI0
aI0
aI0
aI18
aI0
aI0
aI16
aI1
aI0
aI0
aI2
aI0
aI0
aI0
aI2
aI0
aI0
aI0
aI0
aI5
aI4
aI3
aI3
aI0
aI0
aI0
aI8
aI0
aI0
aI0
aI0
aI0
aI0
aI0
aI0
aI0
aI0
aI0
aI1
aI0
aI0
aI0
aI0
aI0
aI0
aI0
aI0
aI0
aI0
aI0
aI0
aI1
aI0
aI0
aI7
aI16
aI0
aI0
aI0
aI0
aI0
aI0
aI0
aI0
aI0
aI0
aI0
aI23
aI0
aI0
aI2
aI14
aI0
aI0
aI0
aI0
aI0
aI0
aI0
aI0
aI0
aI0
aI0
aI1
aI1
aI0
aI0
aI0
aI0
aI0
aI0
aI0
aI0
aI0
aI0
aa(lp87
F-279.58470771984423
aF-50.20329248388914
aF-409.8143529643405
aF12952.368020559805
aF777.1065143673825
aF2825.2700253762387
aF1.4623118932915489
aF1.4623118932915489
aF1.4623118932915489
aF1.4623118932915489
aF1.4623118932915489
aF1.4623118932915489
aF1.4623118932915489
aF1.4623118932915489
aF1.4623118932915489
aF1.4623118932915489
aI0
aI0
aI0
aI0
aI32
aI59
aI0
aI0
aI13
aI16
aI7
aI0
aI0
aI0
aI0
aI0
aI1
aI0
aI0
aI0
aI0
aI0
aI0
aI2
aI4
aI0
aI0
aI0
aI0
aI0
aI0
aI0
aI0
aI0
aI0
aI0
aI1
aI0
aI0
aI0
aI3
aI0
aI0
aI0
aI0
aI0
aI0
aI0
aI0
aI0
aI0
aI0
aI11
aI15
aI1
aI0
aI20
aI8
aI0
aI0
aI0
aI1
aI0
aI0
aI0
aI0
aI0
aI0
aI0
aI1
aI3
aI3
aI2
aI3
aI4
aI2
aI0
aI0
aI0
aI0
aI0
aI0
aI0
aI1
aI0
aI0
aI0
aI5
aI1
aI0
aI0
aI2
aI0
aI1
aI0
aI0
aI0
aI0
aI0
aI0
aI0
aI0
aI0
aI3
aI1
aI0
aI0
aI2
aI0
aI0
aI0
aI0
aI0
aI0
aI1
aI0
aI0
aI3
aI3
aI6
aI7
aI4
aI4
aI4
aI0
aI1
aI4
aI0
aI0
aI0
aI0
aI0
aI0
aI0
aI0
aI6
aI0
aI0
aI0
aI0
aI0
aI0
aI0
aI0
aI0
aI0
aI0
aI0
aI0
aI0
aI0
aI37
aI0
aI0
aI0
aI3
aI0
aI0
aI0
aI0
aI0
aI0
aI0
aI0
aI0
aI0
aI0
aI10
aI0
aI0
aI0
aI0
aI0
aI0
aI0
aI0
aI0
aI0
aI0
aI0
aI0
aI0
aI0
aI15
aI0
aI0
aI0
aI0
aI0
aI0
aI0
aI0
aI0
aI0
aI0
aI0
aI6
aI0
aI0
aI0
aI0
aI0
aI3
aI16
aI0
aI0
aI0
aI1
aI0
aI0
aI0
aI0
aI45
aI0
aI0
aI0
aI1
aI0
aI0
aI14
aI0
aI1
aI0
aI0
aI0
aI0
aI0
aI0
aI22
aI0
aI0
aI24
aI19
aI0
aI0
aI0
aI0
aI0
aI0
aI0
aI0
aI0
aI0
aI0
aI7
aI7
aI4
aI11
aI1
aI0
aI3
aI9
aI0
aI0
aI0
aI0
aI0
aI0
aI0
aI0
aI0
aI0
aI1
aI0
aI0
aI0
aI0
aI0
aI0
aI0
aI0
aI0
aI0
aI0
aI0
aI0
aI16
aI0
aI0
aI2
aI15
aI0
aI0
aI0
aI0
aI0
aI0
aI0
aI0
aI0
aI0
aI0
aI25
aI0
aI0
aI0
aI10
aI0
aI0
aI0
aI0
aI0
aI0
aI0
aI0
aI0
aI0
aI0
aI1
aI0
aI1
aI0
aI0
aI0
aI0
aI0
aI0
aI0
aI0
aI0
aa(lp88
F-6.704011071514179
aF-45.594793598919495
aF-332.61113296999116
aF12792.207951196931
aF1075.809433670028
aF2929.9369507294946
aF0.23917700129941785
aF0.23917700129941785
aF0.23917700129941785
aF0.23917700129941785
aF0.23917700129941785
aF0.23917700129941785
aF0.23917700129941785
aF0.23917700129941785
aF0.23917700129941785
aF0.23917700129941785
aI0
aI0
aI0
aI0
aI22
aI39
aI1
aI1
aI4
aI7
aI5
aI0
aI0
aI0
aI0
aI0
aI0
aI0
aI0
aI1
aI0
aI0
aI0
aI0
aI2
aI0
aI0
aI0
aI0
aI0
aI0
aI0
aI1
aI0
aI0
aI0
aI0
aI0
aI0
aI0
aI0
aI0
aI0
aI0
aI0
aI0
aI0
aI0
aI0
aI0
aI0
aI0
aI1
aI23
aI1
aI0
aI16
aI16
aI3
aI0
aI0
aI0
aI0
aI0
aI0
aI0
aI0
aI0
aI0
aI3
aI6
aI2
aI2
aI4
aI2
aI0
aI0
aI0
aI0
aI0
aI0
aI0
aI0
aI0
aI0
aI0
aI0
aI6
aI3
aI0
aI0
aI0
aI0
aI0
aI0
aI0
aI0
aI0
aI0
aI2
aI0
aI0
aI0
aI8
aI2
aI0
aI0
aI1
aI0
aI0
aI0
aI0
aI0
aI0
aI2
aI0
aI0
aI3
aI7
aI2
aI10
aI2
aI12
aI4
aI0
aI0
aI1
aI0
aI0
aI0
aI0
aI0
aI0
aI0
aI0
aI8
aI0
aI0
aI0
aI0
aI0
aI0
aI0
aI0
aI0
aI0
aI0
aI0
aI0
aI0
aI0
aI49
aI0
aI0
aI0
aI5
aI0
aI0
aI0
aI0
aI0
aI0
aI0
aI0
aI0
aI0
aI0
aI16
aI0
aI0
aI0
aI0
aI0
aI0
aI0
aI0
aI0
aI0
aI0
aI0
aI0
aI0
aI0
aI6
aI0
aI0
aI0
aI0
aI0
aI0
aI0
aI0
aI0
aI0
aI0
aI0
aI0
aI1
aI1
aI0
aI0
aI1
aI1
aI2
aI0
aI0
aI0
aI0
aI0
aI0
aI0
aI0
aI40
aI0
aI0
aI0
aI3
aI0
aI0
aI20
aI0
aI0
aI0
aI1
aI0
aI0
aI0
aI0
aI11
aI0
aI0
aI24
aI32
aI0
aI0
aI0
aI0
aI0
aI0
aI0
aI0
aI0
aI0
aI0
aI1
aI1
aI2
aI2
aI0
aI0
aI0
aI0
aI0
aI0
aI0
aI0
aI0
aI0
aI0
aI0
aI2
aI1
aI1
aI6
aI0
aI0
aI0
aI0
aI0
aI0
aI0
aI0
aI0
aI0
aI0
aI0
aI12
aI0
aI0
aI9
aI9
aI0
aI0
aI0
aI0
aI0
aI0
aI0
aI0
aI0
aI0
aI0
aI13
aI0
aI0
aI0
aI22
aI0
aI0
aI1
aI0
aI0
aI0
aI0
aI0
aI0
aI0
aI0
aI0
aI0
aI0
aI0
aI3
aI0
aI1
aI4
aI0
aI0
aI0
aI0
aa(lp89
F-35.22026956293487
aF12.604185005117088
aF-257.918458342303
aF11277.68232419371
aF613.6749752598463
aF3091.133811625001
aF1.7971060280132345
aF1.7971060280132345
aF1.7971060280132345
aF1.7971060280132345
aF1.7971060280132345
aF1.7971060280132345
aF1.7971060280132345
aF1.7971060280132345
aF1.7971060280132345
aF1.7971060280132345
aI0
aI1
aI0
aI0
aI24
aI52
aI0
aI0
aI3
aI8
aI9
aI2
aI0
aI1
aI0
aI0
aI0
aI0
aI0
aI0
aI0
aI0
aI0
aI1
aI2
aI0
aI0
aI1
aI1
aI1
aI0
aI0
aI0
aI0
aI0
aI0
aI0
aI0
aI0
aI0
aI0
aI0
aI0
aI0
aI1
aI0
aI2
aI0
aI0
aI0
aI0
aI0
aI13
aI13
aI2
aI0
aI24
aI17
aI3
aI1
aI1
aI0
aI1
aI0
aI0
aI0
aI1
aI0
aI1
aI4
aI15
aI2
aI0
aI2
aI3
aI1
aI0
aI0
aI0
aI0
aI2
aI0
aI1
aI0
aI0
aI0
aI0
aI3
aI3
aI0
aI0
aI0
aI2
aI0
aI0
aI0
aI1
aI0
aI1
aI3
aI0
aI0
aI0
aI9
aI3
aI0
aI0
aI2
aI0
aI0
aI1
aI0
aI1
aI1
aI3
aI1
aI0
aI7
aI5
aI5
aI8
aI2
aI9
aI7
aI1
aI1
aI0
aI0
aI0
aI0
aI0
aI0
aI0
aI0
aI0
aI4
aI0
aI0
aI0
aI0
aI0
aI0
aI0
aI0
aI0
aI0
aI0
aI0
aI0
aI0
aI0
aI49
aI0
aI0
aI0
aI14
aI0
aI0
aI0
aI0
aI0
aI0
aI0
aI0
aI0
aI0
aI0
aI31
aI0
aI0
aI0
aI0
aI0
aI0
aI0
aI0
aI0
aI0
aI0
aI0
aI0
aI0
aI0
aI13
aI0
aI0
aI0
aI0
aI0
aI0
aI0
aI0
aI0
aI0
aI0
aI0
aI1
aI0
aI0
aI0
aI0
aI1
aI1
aI13
aI0
aI0
aI0
aI0
aI0
aI0
aI0
aI0
aI38
aI0
aI0
aI0
aI0
aI0
aI0
aI28
aI0
aI0
aI0
aI0
aI0
aI0
aI0
aI0
aI28
aI0
aI0
aI30
aI27
aI0
aI0
aI4
aI0
aI0
aI0
aI0
aI0
aI0
aI0
aI1
aI5
aI1
aI0
aI0
aI6
aI0
aI0
aI0
aI0
aI0
aI0
aI0
aI0
aI0
aI0
aI0
aI3
aI3
aI2
aI3
aI0
aI0
aI0
aI0
aI0
aI0
aI0
aI0
aI0
aI0
aI0
aI0
aI17
aI0
aI0
aI2
aI17
aI0
aI0
aI0
aI0
aI0
aI0
aI0
aI0
aI0
aI0
aI0
aI16
aI0
aI0
aI0
aI42
aI0
aI0
aI5
aI0
aI0
aI0
aI0
aI0
aI0
aI0
aI0
aI0
aI0
aI0
aI0
aI1
aI0
aI0
aI0
aI0
aI0
aI0
aI0
aa(lp90
F-2.6028329710702685
aF-3.643890533981469
aF-274.4895298720515
aF12077.159498500863
aF773.4726979183323
aF3426.2449233580114
aF0.2049661519353075
aF0.2049661519353075
aF0.2049661519353075
aF0.2049661519353075
aF0.2049661519353075
aF0.2049661519353075
aF0.2049661519353075
aF0.2049661519353075
aF0.2049661519353075
aF0.2049661519353075
aI0
aI0
aI0
aI0
aI13
aI40
aI1
aI0
aI0
aI19
aI16
aI0
aI1
aI0
aI0
aI0
aI0
aI0
aI0
aI0
aI0
aI0
aI0
aI0
aI0
aI0
aI0
aI0
aI2
aI0
aI0
aI0
aI0
aI0
aI0
aI0
aI0
aI0
aI0
aI0
aI0
aI0
aI0
aI0
aI2
aI0
aI0
aI0
aI0
aI0
aI0
aI0
aI3
aI39
aI4
aI0
aI26
aI12
aI0
aI0
aI0
aI0
aI0
aI0
aI0
aI0
aI0
aI0
aI0
aI7
aI5
aI4
aI0
aI3
aI7
aI1
aI0
aI0
aI0
aI0
aI0
aI0
aI0
aI0
aI0
aI0
aI0
aI4
aI1
aI0
aI0
aI0
aI0
aI0
aI0
aI0
aI0
aI0
aI0
aI0
aI0
aI0
aI0
aI3
aI2
aI0
aI0
aI0
aI0
aI0
aI0
aI0
aI1
aI0
aI0
aI0
aI1
aI8
aI7
aI10
aI8
aI9
aI2
aI2
aI0
aI0
aI0
aI0
aI0
aI0
aI0
aI0
aI0
aI0
aI0
aI2
aI0
aI0
aI0
aI0
aI0
aI0
aI0
aI0
aI0
aI0
aI0
aI0
aI0
aI0
aI0
aI41
aI0
aI0
aI0
aI6
aI0
aI0
aI0
aI0
aI0
aI0
aI0
aI0
aI0
aI0
aI0
aI26
aI0
aI0
aI0
aI0
aI0
aI0
aI0
aI0
aI0
aI0
aI0
aI0
aI0
aI0
aI0
aI10
aI0
aI0
aI0
aI0
aI0
aI0
aI0
aI0
aI0
aI0
aI0
aI0
aI28
aI0
aI0
aI0
aI0
aI0
aI1
aI21
aI0
aI0
aI1
aI2
aI0
aI0
aI0
aI0
aI23
aI0
aI0
aI0
aI0
aI0
aI0
aI14
aI0
aI0
aI0
aI0
aI0
aI0
aI0
aI0
aI11
aI0
aI0
aI0
aI0
aI0
aI0
aI0
aI0
aI0
aI1
aI0
aI0
aI0
aI0
aI0
aI10
aI4
aI2
aI15
aI25
aI8
aI5
aI6
aI0
aI1
aI0
aI0
aI0
aI0
aI0
aI0
aI0
aI4
aI1
aI0
aI0
aI0
aI0
aI0
aI0
aI0
aI0
aI0
aI0
aI0
aI0
aI0
aI18
aI0
aI0
aI0
aI16
aI0
aI0
aI0
aI0
aI0
aI0
aI0
aI0
aI0
aI0
aI0
aI24
aI0
aI0
aI0
aI19
aI0
aI0
aI0
aI0
aI0
aI0
aI0
aI0
aI0
aI0
aI0
aI2
aI0
aI0
aI0
aI1
aI0
aI0
aI0
aI0
aI0
aI0
aI0
aa(lp91
F-166.29397806807776
aF16.780176366673818
aF-237.56848541660602
aF12751.452955398692
aF346.2378335784249
aF3157.4662087486763
aF0.9336347758273457
aF0.9336347758273457
aF0.9336347758273457
aF0.9336347758273457
aF0.9336347758273457
aF0.9336347758273457
aF0.9336347758273457
aF0.9336347758273457
aF0.9336347758273457
aF0.9336347758273457
aI0
aI0
aI0
aI0
aI23
aI22
aI6
aI0
aI13
aI59
aI17
aI0
aI0
aI0
aI0
aI0
aI0
aI0
aI0
aI0
aI0
aI0
aI0
aI0
aI0
aI0
aI0
aI0
aI0
aI0
aI0
aI0
aI0
aI0
aI0
aI0
aI0
aI0
aI0
aI0
aI0
aI0
aI0
aI0
aI1
aI0
aI1
aI1
aI0
aI0
aI0
aI0
aI3
aI34
aI5
aI1
aI31
aI13
aI0
aI0
aI0
aI0
aI2
aI0
aI0
aI0
aI0
aI0
aI3
aI8
aI2
aI10
aI3
aI2
aI10
aI7
aI0
aI0
aI4
aI1
aI0
aI0
aI0
aI2
aI0
aI0
aI0
aI6
aI2
aI0
aI0
aI1
aI0
aI0
aI0
aI1
aI0
aI1
aI0
aI1
aI0
aI0
aI0
aI9
aI1
aI0
aI0
aI1
aI0
aI0
aI0
aI2
aI0
aI0
aI0
aI0
aI0
aI0
aI12
aI8
aI3
aI6
aI6
aI3
aI0
aI1
aI0
aI0
aI0
aI0
aI0
aI0
aI0
aI0
aI0
aI9
aI0
aI0
aI0
aI0
aI0
aI0
aI0
aI0
aI0
aI0
aI0
aI1
aI0
aI0
aI0
aI46
aI0
aI0
aI0
aI0
aI0
aI0
aI0
aI0
aI0
aI0
aI0
aI0
aI0
aI0
aI0
aI34
aI0
aI0
aI0
aI8
aI0
aI0
aI0
aI0
aI0
aI0
aI0
aI0
aI0
aI0
aI0
aI18
aI0
aI0
aI0
aI0
aI0
aI0
aI0
aI0
aI0
aI0
aI0
aI0
aI0
aI0
aI0
aI0
aI0
aI0
aI0
aI1
aI0
aI1
aI1
aI0
aI0
aI0
aI0
aI0
aI66
aI0
aI0
aI0
aI5
aI0
aI0
aI39
aI0
aI0
aI0
aI0
aI0
aI0
aI0
aI0
aI47
aI0
aI0
aI17
aI35
aI0
aI0
aI8
aI0
aI0
aI0
aI0
aI0
aI0
aI0
aI0
aI3
aI2
aI2
aI4
aI1
aI0
aI0
aI0
aI0
aI0
aI0
aI0
aI0
aI0
aI0
aI0
aI1
aI0
aI2
aI2
aI0
aI0
aI0
aI0
aI0
aI0
aI0
aI0
aI0
aI0
aI0
aI0
aI22
aI0
aI0
aI8
aI24
aI0
aI0
aI0
aI0
aI0
aI0
aI0
aI0
aI0
aI0
aI0
aI22
aI0
aI0
aI1
aI27
aI0
aI0
aI6
aI0
aI0
aI0
aI0
aI0
aI0
aI0
aI0
aI0
aI0
aI0
aI0
aI1
aI0
aI0
aI0
aI0
aI0
aI0
aI0
aa(lp92
F-215.94015378769765
aF59.244454832480514
aF-180.32229730951818
aF11381.024661284182
aF676.8900734691653
aF2466.286856086154
aF0.1516407439149451
aF0.1516407439149451
aF0.1516407439149451
aF0.1516407439149451
aF0.1516407439149451
aF0.1516407439149451
aF0.1516407439149451
aF0.1516407439149451
aF0.1516407439149451
aF0.1516407439149451
aI0
aI0
aI0
aI0
aI16
aI23
aI7
aI1
aI16
aI27
aI14
aI0
aI0
aI1
aI0
aI0
aI1
aI0
aI0
aI0
aI0
aI0
aI0
aI3
aI1
aI0
aI0
aI0
aI0
aI2
aI0
aI0
aI1
aI0
aI0
aI0
aI1
aI0
aI0
aI0
aI0
aI0
aI0
aI0
aI0
aI1
aI1
aI0
aI0
aI0
aI0
aI0
aI0
aI17
aI6
aI0
aI17
aI12
aI1
aI1
aI1
aI0
aI2
aI0
aI0
aI0
aI0
aI0
aI1
aI1
aI2
aI2
aI1
aI4
aI11
aI4
aI0
aI0
aI0
aI1
aI0
aI0
aI0
aI0
aI1
aI0
aI0
aI1
aI1
aI0
aI0
aI0
aI0
aI0
aI0
aI0
aI0
aI0
aI0
aI0
aI0
aI0
aI0
aI7
aI0
aI0
aI0
aI1
aI1
aI1
aI0
aI0
aI0
aI1
aI0
aI2
aI0
aI1
aI13
aI10
aI3
aI9
aI14
aI2
aI0
aI0
aI0
aI0
aI0
aI0
aI0
aI0
aI0
aI0
aI0
aI2
aI0
aI0
aI0
aI0
aI0
aI0
aI0
aI0
aI0
aI0
aI0
aI0
aI0
aI0
aI0
aI52
aI0
aI0
aI0
aI12
aI0
aI0
aI0
aI0
aI0
aI0
aI0
aI0
aI0
aI0
aI0
aI18
aI0
aI0
aI0
aI3
aI0
aI0
aI0
aI0
aI0
aI0
aI0
aI0
aI0
aI0
aI0
aI8
aI0
aI0
aI0
aI0
aI0
aI0
aI0
aI0
aI0
aI3
aI0
aI0
aI1
aI2
aI0
aI0
aI0
aI0
aI0
aI0
aI0
aI0
aI0
aI0
aI0
aI0
aI0
aI0
aI50
aI0
aI0
aI0
aI0
aI0
aI0
aI25
aI0
aI0
aI0
aI0
aI0
aI0
aI0
aI0
aI26
aI0
aI0
aI20
aI35
aI0
aI0
aI0
aI0
aI0
aI0
aI0
aI0
aI0
aI0
aI0
aI5
aI2
aI3
aI0
aI1
aI0
aI0
aI0
aI0
aI0
aI0
aI0
aI0
aI0
aI0
aI0
aI3
aI3
aI1
aI0
aI0
aI0
aI0
aI0
aI0
aI0
aI0
aI0
aI0
aI0
aI0
aI0
aI24
aI0
aI0
aI0
aI16
aI0
aI0
aI0
aI0
aI0
aI0
aI0
aI0
aI0
aI0
aI0
aI24
aI0
aI0
aI0
aI24
aI0
aI0
aI0
aI0
aI0
aI0
aI0
aI0
aI0
aI0
aI0
aI0
aI0
aI0
aI0
aI0
aI0
aI0
aI0
aI0
aI0
aI0
aI0
aa(lp93
F-370.76547441907303
aF28.51194476112725
aF-226.13928500973003
aF13982.02706251838
aF651.7904859932167
aF2803.5758299046206
aF0.059235465356410465
aF0.059235465356410465
aF0.059235465356410465
aF0.059235465356410465
aF0.059235465356410465
aF0.059235465356410465
aF0.059235465356410465
aF0.059235465356410465
aF0.059235465356410465
aF0.059235465356410465
aI0
aI0
aI0
aI0
aI22
aI6
aI8
aI0
aI16
aI55
aI17
aI0
aI0
aI0
aI0
aI0
aI1
aI0
aI0
aI0
aI0
aI0
aI0
aI1
aI1
aI0
aI0
aI0
aI0
aI2
aI0
aI1
aI0
aI0
aI0
aI0
aI1
aI0
aI0
aI0
aI1
aI0
aI0
aI0
aI0
aI0
aI0
aI2
aI0
aI0
aI0
aI0
aI1
aI22
aI8
aI0
aI5
aI5
aI1
aI0
aI0
aI0
aI1
aI0
aI0
aI1
aI0
aI0
aI2
aI5
aI5
aI1
aI2
aI2
aI8
aI0
aI0
aI0
aI0
aI0
aI0
aI0
aI0
aI0
aI0
aI0
aI0
aI6
aI0
aI0
aI0
aI6
aI0
aI0
aI0
aI0
aI0
aI0
aI0
aI2
aI0
aI0
aI0
aI5
aI1
aI0
aI0
aI2
aI0
aI0
aI0
aI0
aI0
aI1
aI1
aI1
aI3
aI5
aI12
aI7
aI3
aI5
aI5
aI7
aI1
aI0
aI0
aI0
aI0
aI0
aI0
aI0
aI0
aI0
aI0
aI16
aI0
aI0
aI0
aI0
aI0
aI0
aI0
aI0
aI0
aI0
aI0
aI0
aI0
aI0
aI0
aI45
aI0
aI0
aI0
aI0
aI0
aI0
aI0
aI0
aI0
aI0
aI0
aI0
aI0
aI0
aI0
aI25
aI0
aI0
aI0
aI0
aI0
aI0
aI0
aI0
aI0
aI0
aI0
aI0
aI0
aI0
aI5
aI8
aI0
aI0
aI0
aI0
aI0
aI0
aI0
aI0
aI0
aI0
aI0
aI0
aI0
aI0
aI0
aI0
aI0
aI0
aI0
aI0
aI0
aI0
aI1
aI0
aI0
aI0
aI0
aI0
aI64
aI0
aI0
aI0
aI6
aI0
aI0
aI4
aI0
aI0
aI0
aI0
aI0
aI0
aI0
aI0
aI28
aI0
aI0
aI28
aI26
aI0
aI0
aI12
aI0
aI0
aI0
aI1
aI0
aI0
aI0
aI0
aI2
aI0
aI0
aI1
aI0
aI1
aI1
aI2
aI0
aI0
aI0
aI0
aI0
aI0
aI0
aI0
aI0
aI0
aI0
aI0
aI0
aI0
aI0
aI0
aI0
aI0
aI0
aI0
aI0
aI0
aI0
aI0
aI9
aI0
aI0
aI18
aI13
aI0
aI0
aI3
aI0
aI0
aI0
aI0
aI0
aI0
aI0
aI0
aI26
aI0
aI0
aI3
aI25
aI0
aI0
aI0
aI0
aI0
aI0
aI0
aI0
aI0
aI0
aI0
aI1
aI1
aI0
aI0
aI0
aI0
aI0
aI0
aI0
aI0
aI0
aI0
aa(lp94
F-88.43851913607315
aF-39.70951342504249
aF-244.17355055127516
aF12631.756837199206
aF782.0727963946033
aF2475.185211857487
aF4.050047399692087
aF4.050047399692087
aF4.050047399692087
aF4.050047399692087
aF4.050047399692087
aF4.050047399692087
aF4.050047399692087
aF4.050047399692087
aF4.050047399692087
aF4.050047399692087
aI0
aI0
aI0
aI0
aI63
aI49
aI8
aI4
aI0
aI47
aI6
aI0
aI0
aI0
aI0
aI0
aI0
aI0
aI0
aI0
aI2
aI0
aI0
aI1
aI0
aI0
aI0
aI0
aI0
aI0
aI0
aI0
aI0
aI0
aI0
aI0
aI0
aI0
aI0
aI0
aI0
aI0
aI0
aI0
aI0
aI0
aI1
aI0
aI0
aI0
aI0
aI0
aI35
aI47
aI8
aI2
aI11
aI6
aI1
aI0
aI0
aI1
aI1
aI0
aI0
aI0
aI0
aI0
aI0
aI7
aI2
aI0
aI1
aI0
aI17
aI0
aI0
aI0
aI0
aI0
aI0
aI0
aI0
aI0
aI0
aI0
aI0
aI1
aI5
aI0
aI0
aI0
aI0
aI0
aI1
aI0
aI0
aI0
aI0
aI0
aI0
aI0
aI0
aI8
aI4
aI0
aI0
aI3
aI0
aI1
aI1
aI1
aI0
aI1
aI0
aI0
aI3
aI3
aI13
aI9
aI5
aI2
aI8
aI5
aI0
aI0
aI0
aI0
aI0
aI0
aI0
aI0
aI0
aI0
aI0
aI13
aI0
aI0
aI0
aI0
aI0
aI0
aI0
aI0
aI0
aI0
aI0
aI0
aI0
aI0
aI0
aI38
aI0
aI0
aI0
aI19
aI0
aI0
aI0
aI0
aI0
aI0
aI0
aI0
aI0
aI0
aI0
aI25
aI0
aI0
aI0
aI0
aI0
aI0
aI0
aI0
aI0
aI0
aI0
aI0
aI0
aI0
aI0
aI6
aI0
aI0
aI0
aI0
aI0
aI0
aI0
aI0
aI0
aI0
aI0
aI0
aI0
aI0
aI1
aI1
aI1
aI1
aI2
aI5
aI0
aI2
aI2
aI0
aI0
aI0
aI0
aI0
aI82
aI0
aI0
aI4
aI0
aI0
aI0
aI36
aI0
aI0
aI0
aI0
aI0
aI0
aI0
aI0
aI56
aI0
aI0
aI29
aI23
aI0
aI0
aI24
aI0
aI0
aI0
aI0
aI0
aI0
aI0
aI0
aI7
aI3
aI3
aI9
aI0
aI0
aI0
aI2
aI0
aI0
aI0
aI0
aI0
aI0
aI0
aI0
aI1
aI1
aI2
aI3
aI0
aI0
aI0
aI0
aI0
aI0
aI0
aI0
aI0
aI0
aI0
aI0
aI25
aI0
aI0
aI2
aI10
aI0
aI0
aI0
aI0
aI0
aI0
aI0
aI0
aI0
aI0
aI0
aI17
aI0
aI0
aI1
aI34
aI0
aI0
aI4
aI0
aI0
aI0
aI0
aI0
aI0
aI0
aI0
aI0
aI0
aI0
aI0
aI0
aI1
aI0
aI0
aI0
aI0
aI0
aI0
aa(lp95
F-66.81921323503614
aF25.661799336882552
aF-203.97550656075504
aF13467.926730504056
aF401.1382844848475
aF2588.7321741622527
aF11.821073791979583
aF11.821073791979583
aF11.821073791979583
aF11.821073791979583
aF11.821073791979583
aF11.821073791979583
aF11.821073791979583
aF11.821073791979583
aF11.821073791979583
aF11.821073791979583
aI0
aI0
aI0
aI0
aI30
aI47
aI5
aI0
aI50
aI34
aI11
aI0
aI0
aI0
aI0
aI0
aI0
aI0
aI0
aI0
aI0
aI0
aI0
aI0
aI8
aI0
aI0
aI1
aI0
aI0
aI0
aI0
aI0
aI0
aI0
aI0
aI0
aI0
aI0
aI0
aI1
aI0
aI0
aI5
aI0
aI0
aI1
aI0
aI0
aI0
aI1
aI0
aI8
aI51
aI12
aI0
aI39
aI10
aI2
aI2
aI0
aI0
aI2
aI0
aI0
aI1
aI0
aI0
aI1
aI2
aI2
aI8
aI6
aI2
aI17
aI2
aI0
aI0
aI0
aI0
aI0
aI0
aI0
aI1
aI0
aI0
aI0
aI6
aI2
aI0
aI0
aI0
aI0
aI0
aI0
aI0
aI0
aI0
aI0
aI1
aI0
aI0
aI0
aI5
aI4
aI0
aI0
aI2
aI2
aI0
aI1
aI0
aI0
aI0
aI0
aI0
aI2
aI1
aI14
aI14
aI16
aI4
aI16
aI1
aI0
aI0
aI0
aI0
aI0
aI0
aI0
aI0
aI0
aI0
aI0
aI13
aI0
aI0
aI0
aI0
aI0
aI0
aI0
aI0
aI0
aI0
aI0
aI1
aI0
aI0
aI0
aI61
aI0
aI0
aI0
aI16
aI0
aI0
aI0
aI0
aI0
aI0
aI0
aI1
aI0
aI0
aI0
aI23
aI0
aI0
aI0
aI0
aI0
aI0
aI0
aI0
aI0
aI0
aI0
aI1
aI0
aI0
aI0
aI13
aI0
aI0
aI0
aI4
aI0
aI0
aI0
aI0
aI0
aI0
aI0
aI0
aI1
aI11
aI1
aI27
aI32
aI8
aI1
aI0
aI0
aI0
aI0
aI0
aI0
aI0
aI0
aI0
aI0
aI0
aI0
aI40
aI13
aI0
aI0
aI1
aI0
aI0
aI0
aI0
aI0
aI0
aI0
aI0
aI29
aI0
aI0
aI21
aI10
aI0
aI0
aI24
aI0
aI0
aI0
aI0
aI0
aI0
aI0
aI0
aI34
aI15
aI8
aI9
aI10
aI12
aI0
aI13
aI0
aI0
aI0
aI0
aI0
aI0
aI0
aI0
aI6
aI2
aI3
aI1
aI0
aI0
aI0
aI0
aI0
aI0
aI0
aI0
aI0
aI0
aI0
aI0
aI26
aI0
aI0
aI0
aI23
aI0
aI0
aI0
aI0
aI0
aI0
aI0
aI0
aI0
aI0
aI0
aI38
aI0
aI0
aI0
aI30
aI0
aI0
aI2
aI0
aI0
aI0
aI0
aI0
aI0
aI0
aI0
aI0
aI0
aI0
aI0
aI1
aI0
aI0
aI1
aI0
aI0
aI0
aI0
aa(lp96
F-93.4843923943806
aF-78.16163043898122
aF-67.90546116375839
aF8849.84471920523
aF6789.484167427553
aF556.3482344815393
aF0.002701612932080138
aF0.002701612932080138
aF0.002701612932080138
aF0.002701612932080138
aF0.002701612932080138
aF0.002701612932080138
aF0.002701612932080138
aF0.002701612932080138
aF0.002701612932080138
aF0.002701612932080138
aI0
aI8
aI2
aI0
aI0
aI5
aI4
aI0
aI0
aI0
aI6
aI0
aI0
aI0
aI7
aI0
aI10
aI0
aI5
aI0
aI3
aI0
aI0
aI0
aI0
aI0
aI0
aI0
aI0
aI0
aI8
aI0
aI0
aI8
aI3
aI0
aI2
aI0
aI0
aI0
aI1
aI0
aI0
aI0
aI0
aI0
aI9
aI0
aI0
aI5
aI0
aI0
aI0
aI6
aI0
aI0
aI1
aI7
aI0
aI0
aI0
aI3
aI3
aI0
aI0
aI7
aI0
aI0
aI0
aI2
aI7
aI0
aI0
aI0
aI4
aI0
aI0
aI0
aI11
aI1
aI0
aI1
aI0
aI0
aI0
aI0
aI0
aI0
aI0
aI0
aI0
aI0
aI0
aI0
aI7
aI2
aI0
aI0
aI0
aI0
aI0
aI0
aI0
aI0
aI0
aI0
aI0
aI0
aI0
aI0
aI1
aI0
aI0
aI0
aI0
aI0
aI0
aI0
aI0
aI0
aI0
aI0
aI0
aI0
aI0
aI0
aI0
aI0
aI0
aI0
aI0
aI0
aI0
aI0
aI0
aI0
aI0
aI0
aI0
aI0
aI0
aI0
aI0
aI0
aI0
aI0
aI0
aI6
aI0
aI0
aI0
aI9
aI0
aI0
aI0
aI3
aI0
aI0
aI0
aI0
aI0
aI0
aI0
aI14
aI0
aI0
aI0
aI11
aI0
aI0
aI0
aI0
aI0
aI0
aI0
aI0
aI0
aI0
aI0
aI0
aI0
aI0
aI0
aI0
aI0
aI0
aI0
aI0
aI0
aI0
aI0
aI0
aI0
aI0
aI0
aI0
aI0
aI0
aI0
aI0
aI0
aI0
aI0
aI0
aI0
aI0
aI0
aI0
aI0
aI0
aI0
aI0
aI20
aI0
aI0
aI0
aI31
aI0
aI0
aI0
aI0
aI0
aI0
aI0
aI0
aI0
aI0
aI0
aI42
aI0
aI0
aI0
aI13
aI0
aI0
aI0
aI0
aI0
aI0
aI0
aI0
aI0
aI0
aI0
aI0
aI0
aI0
aI0
aI0
aI0
aI0
aI0
aI0
aI0
aI0
aI0
aI0
aI0
aI0
aI0
aI0
aI0
aI0
aI0
aI0
aI0
aI0
aI0
aI0
aI0
aI0
aI0
aI0
aI0
aI0
aI0
aI0
aI0
aI0
aI0
aI20
aI0
aI0
aI0
aI0
aI0
aI0
aI0
aI0
aI0
aI0
aI0
aI16
aI0
aI0
aI0
aI7
aI0
aI0
aI0
aI0
aI0
aI0
aI0
aI0
aI0
aI0
aI0
aI0
aI0
aI0
aI0
aI0
aI0
aI0
aI0
aI0
aI0
aI0
aI0
aa(lp97
F175.47694615987146
aF-192.96061431046925
aF-129.27476041456532
aF11343.451382702548
aF4556.858691856912
aF1152.4057005379025
aF0.02079050236817797
aF0.02079050236817797
aF0.02079050236817797
aF0.02079050236817797
aF0.02079050236817797
aF0.02079050236817797
aF0.02079050236817797
aF0.02079050236817797
aF0.02079050236817797
aF0.02079050236817797
aI0
aI4
aI4
aI0
aI0
aI0
aI3
aI0
aI0
aI0
aI0
aI0
aI0
aI0
aI1
aI0
aI6
aI6
aI9
aI1
aI0
aI0
aI0
aI0
aI0
aI0
aI0
aI0
aI0
aI3
aI3
aI0
aI5
aI6
aI4
aI3
aI2
aI0
aI0
aI1
aI0
aI0
aI0
aI1
aI0
aI13
aI2
aI1
aI0
aI11
aI0
aI0
aI3
aI5
aI0
aI1
aI0
aI7
aI0
aI0
aI0
aI9
aI0
aI0
aI0
aI10
aI3
aI0
aI0
aI1
aI6
aI0
aI0
aI1
aI5
aI0
aI0
aI0
aI9
aI0
aI0
aI0
aI0
aI0
aI0
aI0
aI0
aI1
aI0
aI0
aI0
aI0
aI0
aI0
aI13
aI0
aI0
aI0
aI0
aI0
aI0
aI0
aI0
aI0
aI0
aI0
aI0
aI0
aI0
aI0
aI8
aI0
aI0
aI0
aI0
aI0
aI0
aI0
aI0
aI0
aI0
aI0
aI0
aI0
aI0
aI0
aI1
aI0
aI0
aI0
aI0
aI0
aI0
aI0
aI0
aI0
aI0
aI0
aI0
aI0
aI0
aI0
aI0
aI0
aI0
aI0
aI0
aI0
aI0
aI0
aI0
aI13
aI0
aI0
aI0
aI6
aI0
aI0
aI0
aI0
aI0
aI0
aI0
aI0
aI0
aI0
aI0
aI23
aI0
aI0
aI0
aI2
aI0
aI0
aI0
aI0
aI0
aI0
aI0
aI0
aI0
aI0
aI0
aI14
aI0
aI0
aI0
aI0
aI0
aI0
aI0
aI0
aI0
aI0
aI0
aI0
aI0
aI0
aI0
aI0
aI0
aI0
aI0
aI0
aI0
aI0
aI0
aI0
aI0
aI0
aI0
aI0
aI24
aI0
aI0
aI0
aI29
aI0
aI0
aI0
aI0
aI0
aI0
aI0
aI0
aI0
aI0
aI0
aI38
aI0
aI0
aI0
aI23
aI0
aI0
aI0
aI0
aI0
aI0
aI0
aI0
aI0
aI0
aI0
aI0
aI0
aI0
aI0
aI0
aI0
aI0
aI0
aI0
aI0
aI0
aI0
aI0
aI0
aI0
aI0
aI0
aI0
aI0
aI0
aI0
aI0
aI0
aI0
aI0
aI0
aI0
aI0
aI0
aI0
aI0
aI0
aI0
aI0
aI0
aI0
aI23
aI0
aI0
aI0
aI0
aI0
aI0
aI0
aI0
aI0
aI0
aI0
aI22
aI0
aI0
aI0
aI13
aI0
aI0
aI0
aI0
aI0
aI0
aI0
aI0
aI0
aI0
aI0
aI0
aI0
aI0
aI0
aI0
aI0
aI0
aI0
aI0
aI0
aI0
aI0
aa(lp98
F-15.526835074955246
aF-109.38692931966484
aF-107.80126494699087
aF2897.50921843409
aF2531.594555204834
aF744.9053785073444
aF0.05906478882132727
aF0.05906478882132727
aF0.05906478882132727
aF0.05906478882132727
aF0.05906478882132727
aF0.05906478882132727
aF0.05906478882132727
aF0.05906478882132727
aF0.05906478882132727
aF0.05906478882132727
aI0
aI0
aI5
aI0
aI0
aI0
aI5
aI0
aI0
aI0
aI7
aI0
aI0
aI0
aI6
aI0
aI0
aI9
aI7
aI1
aI0
aI0
aI0
aI0
aI0
aI0
aI0
aI0
aI0
aI2
aI4
aI0
aI7
aI5
aI2
aI0
aI4
aI0
aI0
aI0
aI2
aI0
aI0
aI0
aI4
aI5
aI0
aI0
aI0
aI6
aI0
aI0
aI0
aI4
aI0
aI0
aI4
aI7
aI0
aI0
aI0
aI3
aI0
aI0
aI0
aI5
aI1
aI0
aI0
aI0
aI5
aI0
aI0
aI0
aI5
aI0
aI0
aI0
aI8
aI0
aI0
aI4
aI0
aI0
aI0
aI0
aI0
aI0
aI1
aI0
aI0
aI0
aI0
aI2
aI4
aI0
aI1
aI4
aI0
aI0
aI1
aI0
aI0
aI0
aI0
aI0
aI0
aI0
aI2
aI1
aI1
aI0
aI3
aI3
aI0
aI0
aI5
aI7
aI1
aI0
aI3
aI0
aI4
aI0
aI0
aI1
aI1
aI1
aI0
aI0
aI0
aI0
aI0
aI0
aI0
aI0
aI0
aI0
aI0
aI0
aI0
aI0
aI0
aI0
aI0
aI0
aI10
aI9
aI0
aI0
aI0
aI10
aI0
aI0
aI0
aI0
aI0
aI0
aI0
aI0
aI0
aI0
aI0
aI11
aI0
aI0
aI0
aI30
aI0
aI0
aI0
aI0
aI0
aI0
aI0
aI0
aI0
aI0
aI0
aI3
aI0
aI0
aI0
aI1
aI0
aI0
aI0
aI0
aI0
aI0
aI0
aI0
aI0
aI0
aI0
aI0
aI0
aI0
aI0
aI0
aI0
aI0
aI0
aI0
aI0
aI0
aI0
aI0
aI0
aI0
aI0
aI0
aI18
aI0
aI0
aI0
aI20
aI0
aI0
aI0
aI0
aI0
aI0
aI0
aI0
aI0
aI0
aI0
aI28
aI0
aI0
aI0
aI33
aI0
aI0
aI0
aI0
aI0
aI0
aI0
aI0
aI0
aI0
aI0
aI0
aI0
aI0
aI0
aI0
aI0
aI0
aI0
aI0
aI0
aI0
aI0
aI0
aI0
aI0
aI0
aI0
aI0
aI0
aI0
aI0
aI0
aI0
aI0
aI0
aI0
aI0
aI0
aI0
aI0
aI0
aI0
aI25
aI0
aI0
aI0
aI12
aI0
aI0
aI0
aI0
aI0
aI0
aI0
aI0
aI0
aI0
aI0
aI17
aI0
aI0
aI0
aI20
aI0
aI0
aI0
aI0
aI0
aI0
aI0
aI0
aI0
aI0
aI0
aI0
aI0
aI0
aI0
aI0
aI0
aI0
aI0
aI0
aI0
aI0
aI0
aa(lp99
F62.96327289433105
aF11.586892052173216
aF-23.598174076903682
aF1990.116109988187
aF2659.9155881836796
aF741.9556139730104
aF0.005263251506404997
aF0.005263251506404997
aF0.005263251506404997
aF0.005263251506404997
aF0.005263251506404997
aF0.005263251506404997
aF0.005263251506404997
aF0.005263251506404997
aF0.005263251506404997
aF0.005263251506404997
aI0
aI1
aI2
aI0
aI0
aI0
aI7
aI1
aI0
aI0
aI4
aI0
aI0
aI0
aI8
aI0
aI0
aI6
aI6
aI0
aI0
aI0
aI0
aI0
aI0
aI0
aI0
aI0
aI0
aI0
aI12
aI0
aI2
aI8
aI5
aI3
aI0
aI0
aI0
aI2
aI0
aI0
aI0
aI0
aI0
aI4
aI8
aI0
aI1
aI6
aI1
aI2
aI6
aI5
aI1
aI0
aI4
aI6
aI2
aI0
aI2
aI4
aI4
aI0
aI0
aI4
aI0
aI1
aI0
aI2
aI5
aI2
aI0
aI3
aI5
aI0
aI0
aI5
aI10
aI0
aI0
aI6
aI5
aI2
aI0
aI0
aI0
aI0
aI0
aI0
aI0
aI1
aI1
aI6
aI9
aI1
aI10
aI7
aI2
aI0
aI1
aI0
aI0
aI0
aI0
aI0
aI0
aI0
aI0
aI1
aI3
aI2
aI0
aI0
aI0
aI0
aI4
aI6
aI2
aI0
aI0
aI1
aI6
aI0
aI0
aI0
aI4
aI0
aI0
aI0
aI0
aI0
aI0
aI0
aI0
aI0
aI0
aI0
aI0
aI0
aI0
aI0
aI0
aI0
aI0
aI0
aI0
aI0
aI0
aI0
aI0
aI0
aI0
aI0
aI0
aI0
aI0
aI0
aI0
aI0
aI0
aI0
aI4
aI25
aI0
aI0
aI0
aI56
aI0
aI0
aI0
aI0
aI0
aI0
aI0
aI0
aI0
aI0
aI0
aI0
aI0
aI0
aI0
aI32
aI0
aI0
aI0
aI0
aI0
aI0
aI0
aI0
aI0
aI0
aI0
aI0
aI0
aI0
aI0
aI0
aI0
aI0
aI0
aI0
aI0
aI0
aI0
aI0
aI0
aI0
aI0
aI0
aI25
aI0
aI0
aI0
aI41
aI0
aI0
aI0
aI0
aI0
aI0
aI0
aI0
aI0
aI0
aI0
aI33
aI0
aI0
aI0
aI24
aI0
aI0
aI0
aI0
aI0
aI0
aI0
aI0
aI0
aI0
aI0
aI0
aI0
aI0
aI0
aI0
aI0
aI0
aI0
aI0
aI0
aI0
aI0
aI0
aI0
aI0
aI0
aI0
aI0
aI0
aI0
aI0
aI0
aI0
aI0
aI0
aI0
aI0
aI0
aI0
aI0
aI0
aI0
aI24
aI0
aI0
aI0
aI41
aI0
aI0
aI0
aI0
aI0
aI0
aI0
aI0
aI0
aI0
aI0
aI35
aI0
aI0
aI0
aI17
aI0
aI0
aI0
aI0
aI0
aI0
aI0
aI0
aI0
aI0
aI0
aI0
aI0
aI0
aI0
aI0
aI0
aI0
aI0
aI0
aI0
aI0
aI0
aa(lp100
F176.39058585655548
aF-250.40419343044292
aF-84.0910982756062
aF3164.460991288332
aF4677.444348500407
aF617.9355556088367
aF0.04225138189922093
aF0.04225138189922093
aF0.04225138189922093
aF0.04225138189922093
aF0.04225138189922093
aF0.04225138189922093
aF0.04225138189922093
aF0.04225138189922093
aF0.04225138189922093
aF0.04225138189922093
aI0
aI0
aI7
aI0
aI0
aI0
aI2
aI1
aI0
aI0
aI0
aI1
aI0
aI0
aI1
aI0
aI0
aI9
aI10
aI2
aI0
aI0
aI0
aI0
aI0
aI0
aI0
aI0
aI0
aI1
aI4
aI0
aI3
aI7
aI2
aI0
aI0
aI0
aI0
aI0
aI0
aI0
aI0
aI0
aI0
aI9
aI0
aI0
aI0
aI13
aI0
aI0
aI0
aI12
aI0
aI0
aI0
aI8
aI0
aI0
aI0
aI9
aI0
aI0
aI0
aI0
aI4
aI2
aI0
aI0
aI7
aI2
aI0
aI1
aI10
aI0
aI0
aI2
aI9
aI0
aI3
aI4
aI11
aI0
aI0
aI0
aI0
aI0
aI0
aI0
aI0
aI0
aI0
aI5
aI11
aI0
aI3
aI5
aI3
aI0
aI1
aI0
aI0
aI0
aI1
aI0
aI0
aI0
aI2
aI8
aI4
aI1
aI1
aI1
aI0
aI0
aI0
aI2
aI2
aI0
aI0
aI1
aI2
aI0
aI1
aI1
aI4
aI0
aI0
aI0
aI0
aI0
aI0
aI0
aI0
aI0
aI0
aI0
aI0
aI0
aI0
aI0
aI0
aI0
aI0
aI0
aI0
aI0
aI0
aI0
aI0
aI0
aI0
aI0
aI0
aI0
aI0
aI0
aI0
aI0
aI0
aI0
aI4
aI3
aI0
aI0
aI0
aI78
aI0
aI0
aI0
aI1
aI0
aI0
aI0
aI0
aI0
aI0
aI0
aI0
aI0
aI0
aI0
aI28
aI0
aI0
aI0
aI0
aI0
aI0
aI0
aI0
aI0
aI0
aI0
aI0
aI0
aI0
aI0
aI0
aI0
aI0
aI0
aI0
aI0
aI0
aI0
aI0
aI0
aI0
aI0
aI0
aI8
aI0
aI0
aI0
aI35
aI0
aI0
aI0
aI0
aI0
aI0
aI0
aI0
aI0
aI0
aI0
aI38
aI0
aI0
aI0
aI20
aI0
aI0
aI0
aI0
aI0
aI0
aI0
aI0
aI0
aI0
aI0
aI0
aI0
aI0
aI0
aI0
aI0
aI0
aI0
aI0
aI0
aI0
aI0
aI0
aI0
aI0
aI0
aI0
aI0
aI0
aI0
aI0
aI0
aI0
aI0
aI0
aI0
aI0
aI0
aI0
aI0
aI0
aI0
aI21
aI0
aI0
aI0
aI38
aI0
aI0
aI0
aI0
aI0
aI0
aI0
aI0
aI0
aI0
aI0
aI34
aI0
aI0
aI0
aI21
aI0
aI0
aI0
aI0
aI0
aI0
aI0
aI0
aI0
aI0
aI0
aI0
aI0
aI0
aI0
aI0
aI0
aI0
aI0
aI0
aI0
aI0
aI0
aa(lp101
F-186.5238671936948
aF14.919156095960084
aF1.4792676002617382
aF6882.228286959059
aF6217.757590193024
aF858.183626377195
aF0.010689802081576579
aF0.010689802081576579
aF0.010689802081576579
aF0.010689802081576579
aF0.010689802081576579
aF0.010689802081576579
aF0.010689802081576579
aF0.010689802081576579
aF0.010689802081576579
aF0.010689802081576579
aI1
aI0
aI7
aI0
aI4
aI15
aI7
aI0
aI0
aI2
aI15
aI4
aI0
aI2
aI11
aI1
aI5
aI0
aI12
aI0
aI0
aI0
aI0
aI0
aI0
aI0
aI0
aI1
aI0
aI5
aI2
aI1
aI0
aI0
aI7
aI0
aI6
aI0
aI0
aI0
aI0
aI0
aI0
aI0
aI0
aI9
aI0
aI0
aI0
aI3
aI5
aI0
aI0
aI9
aI0
aI0
aI0
aI7
aI0
aI0
aI0
aI7
aI0
aI0
aI0
aI0
aI7
aI0
aI0
aI0
aI8
aI0
aI0
aI1
aI6
aI0
aI0
aI5
aI3
aI0
aI0
aI1
aI8
aI0
aI0
aI0
aI0
aI0
aI0
aI0
aI0
aI0
aI0
aI7
aI0
aI0
aI4
aI2
aI1
aI0
aI0
aI0
aI0
aI0
aI0
aI0
aI0
aI0
aI0
aI8
aI1
aI0
aI0
aI0
aI0
aI0
aI0
aI3
aI0
aI0
aI0
aI5
aI3
aI1
aI0
aI1
aI9
aI0
aI0
aI0
aI0
aI0
aI0
aI0
aI0
aI0
aI0
aI0
aI0
aI0
aI0
aI0
aI0
aI0
aI0
aI0
aI0
aI0
aI0
aI0
aI0
aI16
aI0
aI0
aI0
aI0
aI0
aI0
aI0
aI0
aI0
aI0
aI0
aI2
aI0
aI0
aI0
aI48
aI0
aI0
aI0
aI0
aI0
aI0
aI0
aI0
aI0
aI0
aI0
aI0
aI0
aI0
aI0
aI18
aI0
aI0
aI0
aI0
aI0
aI0
aI0
aI0
aI0
aI0
aI0
aI0
aI0
aI0
aI0
aI0
aI0
aI0
aI0
aI0
aI0
aI0
aI0
aI0
aI0
aI0
aI0
aI0
aI39
aI0
aI0
aI0
aI30
aI0
aI0
aI0
aI0
aI0
aI0
aI0
aI0
aI0
aI0
aI0
aI51
aI0
aI0
aI0
aI28
aI0
aI0
aI0
aI0
aI0
aI0
aI0
aI0
aI0
aI0
aI0
aI0
aI0
aI0
aI0
aI0
aI0
aI0
aI0
aI0
aI0
aI0
aI0
aI0
aI0
aI0
aI0
aI0
aI0
aI0
aI0
aI0
aI0
aI0
aI0
aI0
aI0
aI0
aI0
aI0
aI0
aI0
aI0
aI15
aI0
aI0
aI0
aI23
aI0
aI0
aI0
aI0
aI0
aI0
aI0
aI0
aI0
aI0
aI0
aI25
aI0
aI0
aI0
aI21
aI0
aI0
aI0
aI0
aI0
aI0
aI0
aI0
aI0
aI0
aI0
aI0
aI0
aI0
aI0
aI0
aI0
aI0
aI0
aI0
aI0
aI0
aI0
aa(lp102
F-187.10916534471022
aF37.80657247359191
aF22.983442869818717
aF5576.264191280557
aF7914.111883508186
aF568.881423842227
aF0.0017455488198093428
aF0.0017455488198093428
aF0.0017455488198093428
aF0.0017455488198093428
aF0.0017455488198093428
aF0.0017455488198093428
aF0.0017455488198093428
aF0.0017455488198093428
aF0.0017455488198093428
aF0.0017455488198093428
aI2
aI2
aI5
aI0
aI0
aI6
aI5
aI0
aI0
aI3
aI12
aI0
aI0
aI0
aI13
aI1
aI3
aI0
aI10
aI0
aI3
aI0
aI0
aI0
aI0
aI0
aI0
aI0
aI0
aI0
aI8
aI2
aI0
aI3
aI4
aI0
aI0
aI0
aI0
aI0
aI0
aI0
aI0
aI1
aI0
aI3
aI6
aI1
aI0
aI8
aI0
aI0
aI0
aI5
aI0
aI0
aI0
aI6
aI0
aI0
aI0
aI6
aI0
aI0
aI0
aI0
aI4
aI0
aI0
aI0
aI7
aI0
aI0
aI0
aI6
aI0
aI0
aI1
aI5
aI0
aI1
aI5
aI7
aI0
aI0
aI0
aI0
aI0
aI0
aI0
aI0
aI0
aI0
aI3
aI4
aI0
aI3
aI0
aI0
aI0
aI0
aI0
aI0
aI0
aI0
aI0
aI0
aI0
aI0
aI3
aI6
aI0
aI0
aI0
aI0
aI0
aI0
aI1
aI0
aI0
aI0
aI1
aI3
aI0
aI0
aI4
aI5
aI0
aI0
aI0
aI0
aI0
aI0
aI0
aI0
aI0
aI0
aI0
aI0
aI0
aI0
aI0
aI0
aI0
aI0
aI0
aI0
aI1
aI0
aI0
aI0
aI18
aI0
aI0
aI0
aI0
aI0
aI0
aI0
aI0
aI0
aI0
aI0
aI0
aI0
aI0
aI0
aI22
aI0
aI0
aI0
aI8
aI0
aI0
aI0
aI0
aI0
aI0
aI0
aI0
aI0
aI0
aI0
aI20
aI0
aI0
aI0
aI0
aI0
aI0
aI0
aI0
aI0
aI0
aI0
aI0
aI0
aI0
aI0
aI0
aI0
aI0
aI0
aI0
aI0
aI0
aI0
aI0
aI0
aI0
aI0
aI0
aI31
aI0
aI0
aI0
aI27
aI0
aI0
aI0
aI0
aI0
aI0
aI0
aI0
aI0
aI0
aI0
aI39
aI0
aI0
aI0
aI21
aI0
aI0
aI0
aI0
aI0
aI0
aI0
aI0
aI0
aI0
aI0
aI0
aI0
aI0
aI0
aI0
aI0
aI0
aI0
aI0
aI0
aI0
aI0
aI0
aI0
aI0
aI0
aI0
aI0
aI0
aI0
aI0
aI0
aI0
aI0
aI0
aI0
aI0
aI0
aI0
aI0
aI0
aI0
aI11
aI0
aI0
aI0
aI20
aI0
aI0
aI0
aI0
aI0
aI0
aI0
aI0
aI0
aI0
aI0
aI22
aI0
aI0
aI0
aI16
aI0
aI0
aI0
aI0
aI0
aI0
aI0
aI0
aI0
aI0
aI0
aI0
aI0
aI0
aI0
aI0
aI0
aI0
aI0
aI0
aI0
aI0
aI0
aa(lp103
F-107.5572969320659
aF40.19847694693006
aF14.850180729258877
aF3918.8324970406843
aF5150.105937169727
aF684.8621002214466
aF0.001429138925911457
aF0.001429138925911457
aF0.001429138925911457
aF0.001429138925911457
aF0.001429138925911457
aF0.001429138925911457
aF0.001429138925911457
aF0.001429138925911457
aF0.001429138925911457
aF0.001429138925911457
aI0
aI6
aI2
aI0
aI0
aI2
aI8
aI0
aI0
aI0
aI10
aI0
aI0
aI0
aI9
aI0
aI3
aI2
aI8
aI0
aI0
aI0
aI0
aI0
aI0
aI0
aI0
aI0
aI0
aI0
aI9
aI4
aI3
aI5
aI0
aI0
aI5
aI0
aI0
aI0
aI2
aI0
aI0
aI1
aI0
aI5
aI1
aI2
aI0
aI7
aI0
aI0
aI0
aI7
aI0
aI1
aI0
aI4
aI0
aI0
aI0
aI6
aI0
aI0
aI0
aI0
aI3
aI0
aI0
aI0
aI6
aI0
aI0
aI1
aI5
aI0
aI0
aI2
aI9
aI0
aI0
aI0
aI7
aI0
aI5
aI0
aI0
aI0
aI0
aI0
aI0
aI2
aI1
aI2
aI1
aI0
aI11
aI4
aI1
aI0
aI0
aI0
aI0
aI0
aI0
aI0
aI0
aI0
aI0
aI7
aI0
aI0
aI3
aI5
aI0
aI0
aI1
aI6
aI0
aI0
aI2
aI1
aI2
aI0
aI0
aI3
aI1
aI0
aI0
aI0
aI0
aI0
aI0
aI0
aI0
aI0
aI0
aI0
aI0
aI0
aI0
aI0
aI0
aI0
aI0
aI0
aI0
aI3
aI0
aI0
aI0
aI12
aI0
aI0
aI0
aI0
aI0
aI0
aI0
aI0
aI0
aI0
aI5
aI30
aI0
aI0
aI0
aI20
aI0
aI0
aI0
aI0
aI0
aI0
aI0
aI0
aI0
aI0
aI0
aI0
aI0
aI0
aI0
aI21
aI0
aI0
aI0
aI0
aI0
aI0
aI0
aI0
aI0
aI0
aI0
aI0
aI0
aI0
aI0
aI0
aI0
aI0
aI0
aI0
aI0
aI0
aI0
aI0
aI0
aI0
aI0
aI0
aI24
aI0
aI0
aI0
aI28
aI0
aI0
aI0
aI0
aI0
aI0
aI0
aI0
aI0
aI0
aI0
aI42
aI0
aI0
aI0
aI18
aI0
aI0
aI0
aI0
aI0
aI0
aI0
aI0
aI0
aI0
aI0
aI0
aI0
aI0
aI0
aI0
aI0
aI0
aI0
aI0
aI0
aI0
aI0
aI0
aI0
aI0
aI0
aI0
aI0
aI0
aI0
aI0
aI0
aI0
aI0
aI0
aI0
aI0
aI0
aI0
aI0
aI0
aI0
aI36
aI0
aI0
aI0
aI17
aI0
aI0
aI0
aI0
aI0
aI0
aI0
aI0
aI0
aI0
aI0
aI19
aI0
aI0
aI0
aI19
aI0
aI0
aI0
aI0
aI0
aI0
aI0
aI0
aI0
aI0
aI0
aI0
aI0
aI0
aI0
aI0
aI0
aI0
aI0
aI0
aI0
aI0
aI0
aa(lp104
F25.571586929072154
aF-163.8978368515121
aF-128.9235026904055
aF2149.4426381535936
aF3436.631201936442
aF1371.8180777065083
aF0.0008897623508320957
aF0.0008897623508320957
aF0.0008897623508320957
aF0.0008897623508320957
aF0.0008897623508320957
aF0.0008897623508320957
aF0.0008897623508320957
aF0.0008897623508320957
aF0.0008897623508320957
aF0.0008897623508320957
aI0
aI4
aI3
aI0
aI0
aI0
aI7
aI0
aI0
aI0
aI5
aI0
aI0
aI0
aI4
aI0
aI0
aI8
aI5
aI0
aI0
aI0
aI0
aI0
aI0
aI0
aI0
aI0
aI0
aI0
aI5
aI0
aI6
aI5
aI5
aI0
aI6
aI0
aI0
aI0
aI4
aI0
aI0
aI0
aI0
aI0
aI6
aI0
aI0
aI6
aI0
aI0
aI2
aI6
aI0
aI0
aI0
aI4
aI0
aI0
aI0
aI4
aI1
aI0
aI0
aI0
aI4
aI0
aI0
aI0
aI4
aI0
aI0
aI0
aI6
aI1
aI0
aI2
aI6
aI0
aI0
aI2
aI4
aI0
aI0
aI0
aI0
aI0
aI0
aI0
aI0
aI1
aI1
aI1
aI6
aI4
aI8
aI5
aI0
aI0
aI6
aI0
aI0
aI0
aI2
aI0
aI0
aI2
aI0
aI4
aI4
aI1
aI1
aI5
aI0
aI0
aI0
aI11
aI2
aI0
aI2
aI6
aI0
aI0
aI0
aI3
aI3
aI1
aI0
aI0
aI0
aI0
aI0
aI0
aI0
aI0
aI0
aI0
aI0
aI0
aI0
aI0
aI0
aI0
aI0
aI0
aI0
aI17
aI0
aI0
aI0
aI8
aI0
aI0
aI0
aI0
aI0
aI0
aI0
aI0
aI0
aI0
aI1
aI13
aI0
aI0
aI0
aI62
aI0
aI0
aI0
aI0
aI0
aI0
aI0
aI0
aI0
aI0
aI0
aI0
aI0
aI0
aI0
aI7
aI0
aI0
aI0
aI0
aI0
aI0
aI0
aI0
aI0
aI0
aI0
aI0
aI0
aI0
aI0
aI0
aI0
aI0
aI0
aI0
aI0
aI0
aI0
aI0
aI0
aI0
aI0
aI0
aI17
aI0
aI0
aI0
aI25
aI0
aI0
aI0
aI0
aI0
aI0
aI0
aI0
aI0
aI0
aI0
aI32
aI0
aI0
aI0
aI22
aI0
aI0
aI0
aI0
aI0
aI0
aI0
aI0
aI0
aI0
aI0
aI0
aI0
aI0
aI0
aI0
aI0
aI0
aI0
aI0
aI0
aI0
aI0
aI0
aI0
aI0
aI0
aI0
aI0
aI0
aI0
aI0
aI0
aI0
aI0
aI0
aI0
aI0
aI0
aI0
aI0
aI0
aI0
aI25
aI0
aI0
aI0
aI32
aI0
aI0
aI0
aI0
aI0
aI0
aI0
aI0
aI0
aI0
aI0
aI33
aI0
aI0
aI0
aI18
aI0
aI0
aI0
aI0
aI0
aI0
aI0
aI0
aI0
aI0
aI0
aI0
aI0
aI0
aI0
aI0
aI0
aI0
aI0
aI0
aI0
aI0
aI0
aa(lp105
F221.78909709931838
aF-393.2201424664968
aF-170.51235302285147
aF2542.746018286829
aF3765.4013711218836
aF2396.2105154574115
aF0.0001524157902758725
aF0.0001524157902758725
aF0.0001524157902758725
aF0.0001524157902758725
aF0.0001524157902758725
aF0.0001524157902758725
aF0.0001524157902758725
aF0.0001524157902758725
aF0.0001524157902758725
aF0.0001524157902758725
aI0
aI0
aI7
aI0
aI0
aI0
aI4
aI0
aI0
aI0
aI0
aI2
aI0
aI0
aI0
aI0
aI0
aI3
aI8
aI2
aI0
aI0
aI0
aI0
aI0
aI0
aI0
aI0
aI0
aI0
aI0
aI1
aI3
aI11
aI2
aI2
aI0
aI0
aI0
aI0
aI1
aI0
aI0
aI0
aI0
aI3
aI0
aI0
aI1
aI5
aI0
aI0
aI6
aI6
aI0
aI0
aI8
aI4
aI0
aI0
aI0
aI4
aI0
aI0
aI0
aI0
aI3
aI0
aI1
aI0
aI4
aI0
aI0
aI0
aI6
aI5
aI0
aI0
aI6
aI1
aI2
aI4
aI7
aI1
aI0
aI0
aI0
aI0
aI0
aI0
aI0
aI2
aI0
aI10
aI6
aI7
aI17
aI0
aI0
aI0
aI2
aI0
aI0
aI0
aI1
aI0
aI0
aI0
aI3
aI2
aI7
aI0
aI0
aI2
aI0
aI0
aI2
aI8
aI1
aI0
aI2
aI2
aI7
aI0
aI0
aI2
aI5
aI0
aI0
aI0
aI0
aI0
aI0
aI0
aI0
aI0
aI0
aI0
aI0
aI0
aI0
aI0
aI0
aI0
aI0
aI0
aI0
aI13
aI0
aI0
aI0
aI28
aI0
aI0
aI0
aI0
aI0
aI0
aI0
aI0
aI0
aI0
aI5
aI26
aI0
aI0
aI0
aI44
aI0
aI0
aI0
aI0
aI0
aI0
aI0
aI0
aI0
aI0
aI0
aI0
aI0
aI0
aI0
aI12
aI0
aI0
aI0
aI0
aI0
aI0
aI0
aI0
aI0
aI0
aI0
aI0
aI0
aI0
aI0
aI0
aI0
aI0
aI0
aI0
aI0
aI0
aI0
aI0
aI0
aI0
aI0
aI0
aI3
aI0
aI0
aI0
aI33
aI0
aI0
aI0
aI0
aI0
aI0
aI0
aI0
aI0
aI0
aI0
aI29
aI0
aI0
aI0
aI18
aI0
aI0
aI0
aI0
aI0
aI0
aI0
aI0
aI0
aI0
aI0
aI0
aI0
aI0
aI0
aI0
aI0
aI0
aI0
aI0
aI0
aI0
aI0
aI0
aI0
aI0
aI0
aI0
aI0
aI0
aI0
aI0
aI0
aI0
aI0
aI0
aI0
aI0
aI0
aI0
aI0
aI0
aI0
aI21
aI0
aI0
aI0
aI48
aI0
aI0
aI0
aI0
aI0
aI0
aI0
aI0
aI0
aI0
aI0
aI41
aI0
aI0
aI0
aI18
aI0
aI0
aI0
aI0
aI0
aI0
aI0
aI0
aI0
aI0
aI0
aI0
aI0
aI0
aI0
aI0
aI0
aI0
aI0
aI0
aI0
aI0
aI0
aa(lp106
F415.8085404557744
aF-194.6785700142456
aF-117.24255219293252
aF4619.671603001714
aF3238.245912532425
aF421.7088325915606
aF0.00031050255709534613
aF0.00031050255709534613
aF0.00031050255709534613
aF0.00031050255709534613
aF0.00031050255709534613
aF0.00031050255709534613
aF0.00031050255709534613
aF0.00031050255709534613
aF0.00031050255709534613
aF0.00031050255709534613
aI0
aI0
aI5
aI0
aI0
aI0
aI0
aI1
aI0
aI0
aI0
aI1
aI0
aI0
aI0
aI0
aI0
aI0
aI12
aI0
aI0
aI0
aI0
aI0
aI0
aI0
aI0
aI0
aI0
aI1
aI0
aI0
aI0
aI8
aI3
aI0
aI0
aI0
aI0
aI0
aI1
aI0
aI0
aI0
aI4
aI7
aI0
aI0
aI0
aI12
aI0
aI0
aI0
aI12
aI0
aI0
aI3
aI15
aI0
aI0
aI0
aI9
aI0
aI0
aI0
aI5
aI7
aI0
aI0
aI2
aI11
aI1
aI0
aI2
aI12
aI1
aI0
aI0
aI10
aI0
aI0
aI5
aI0
aI0
aI0
aI0
aI0
aI0
aI0
aI0
aI0
aI0
aI0
aI1
aI16
aI0
aI1
aI3
aI0
aI0
aI0
aI0
aI0
aI0
aI0
aI0
aI0
aI0
aI1
aI0
aI7
aI0
aI0
aI1
aI0
aI0
aI1
aI3
aI2
aI0
aI2
aI7
aI1
aI0
aI0
aI2
aI6
aI0
aI0
aI0
aI0
aI0
aI0
aI0
aI0
aI0
aI0
aI0
aI0
aI0
aI0
aI0
aI0
aI0
aI0
aI0
aI0
aI2
aI0
aI0
aI0
aI35
aI0
aI0
aI0
aI2
aI0
aI0
aI0
aI0
aI0
aI0
aI5
aI1
aI0
aI0
aI0
aI47
aI0
aI0
aI0
aI7
aI0
aI0
aI0
aI0
aI0
aI0
aI0
aI0
aI0
aI0
aI0
aI11
aI0
aI0
aI0
aI0
aI0
aI0
aI0
aI0
aI0
aI0
aI0
aI0
aI0
aI0
aI0
aI0
aI0
aI0
aI0
aI0
aI0
aI0
aI0
aI0
aI0
aI0
aI0
aI0
aI11
aI0
aI0
aI0
aI31
aI0
aI0
aI0
aI0
aI0
aI0
aI0
aI0
aI0
aI0
aI0
aI28
aI0
aI0
aI0
aI24
aI0
aI0
aI0
aI0
aI0
aI0
aI0
aI0
aI0
aI0
aI0
aI0
aI0
aI0
aI0
aI0
aI0
aI0
aI0
aI0
aI0
aI0
aI0
aI0
aI0
aI0
aI0
aI0
aI0
aI0
aI0
aI0
aI0
aI0
aI0
aI0
aI0
aI0
aI0
aI0
aI0
aI0
aI0
aI19
aI0
aI0
aI0
aI30
aI0
aI0
aI0
aI0
aI0
aI0
aI0
aI0
aI0
aI0
aI0
aI36
aI0
aI0
aI0
aI25
aI0
aI0
aI0
aI0
aI0
aI0
aI0
aI0
aI0
aI0
aI0
aI0
aI0
aI0
aI0
aI0
aI0
aI0
aI0
aI0
aI0
aI0
aI0
aa(lp107
F82.88925937053695
aF157.87108874408617
aF68.05235211793101
aF4512.236903073363
aF4239.777761004917
aF762.9953598353817
aF0.001508268481112105
aF0.001508268481112105
aF0.001508268481112105
aF0.001508268481112105
aF0.001508268481112105
aF0.001508268481112105
aF0.001508268481112105
aF0.001508268481112105
aF0.001508268481112105
aF0.001508268481112105
aI0
aI0
aI7
aI0
aI0
aI0
aI0
aI1
aI0
aI0
aI0
aI1
aI0
aI3
aI6
aI0
aI0
aI0
aI5
aI0
aI0
aI0
aI0
aI0
aI0
aI0
aI0
aI0
aI0
aI5
aI7
aI0
aI0
aI3
aI10
aI1
aI0
aI0
aI0
aI1
aI0
aI0
aI0
aI0
aI0
aI7
aI8
aI0
aI0
aI6
aI0
aI0
aI0
aI7
aI0
aI1
aI0
aI6
aI0
aI1
aI0
aI6
aI2
aI1
aI1
aI0
aI6
aI0
aI2
aI0
aI4
aI0
aI2
aI0
aI6
aI0
aI0
aI1
aI6
aI0
aI8
aI7
aI3
aI0
aI0
aI0
aI0
aI0
aI0
aI0
aI0
aI0
aI0
aI3
aI8
aI0
aI0
aI0
aI0
aI0
aI1
aI0
aI0
aI0
aI0
aI0
aI0
aI0
aI0
aI0
aI5
aI0
aI0
aI0
aI0
aI0
aI0
aI0
aI2
aI0
aI3
aI3
aI1
aI0
aI0
aI2
aI3
aI1
aI0
aI0
aI0
aI0
aI0
aI0
aI0
aI0
aI0
aI0
aI0
aI0
aI0
aI0
aI0
aI0
aI0
aI0
aI0
aI0
aI0
aI0
aI0
aI18
aI0
aI0
aI0
aI1
aI0
aI0
aI0
aI0
aI0
aI0
aI0
aI18
aI0
aI0
aI0
aI31
aI0
aI0
aI0
aI6
aI0
aI0
aI0
aI0
aI0
aI0
aI0
aI1
aI0
aI0
aI0
aI3
aI0
aI0
aI0
aI0
aI0
aI0
aI0
aI0
aI0
aI0
aI0
aI0
aI0
aI0
aI0
aI0
aI0
aI0
aI0
aI0
aI0
aI0
aI0
aI0
aI0
aI0
aI0
aI0
aI23
aI0
aI0
aI0
aI37
aI0
aI0
aI0
aI0
aI0
aI0
aI0
aI0
aI0
aI0
aI0
aI18
aI0
aI0
aI0
aI17
aI0
aI0
aI0
aI0
aI0
aI0
aI0
aI0
aI0
aI0
aI0
aI0
aI0
aI0
aI0
aI0
aI0
aI0
aI0
aI0
aI0
aI0
aI0
aI0
aI0
aI0
aI0
aI0
aI0
aI0
aI0
aI0
aI0
aI0
aI0
aI0
aI0
aI0
aI0
aI0
aI0
aI0
aI0
aI6
aI0
aI0
aI0
aI35
aI0
aI0
aI0
aI0
aI0
aI0
aI0
aI0
aI0
aI0
aI0
aI23
aI0
aI0
aI0
aI14
aI0
aI0
aI0
aI0
aI0
aI0
aI0
aI0
aI0
aI0
aI0
aI0
aI0
aI0
aI0
aI0
aI0
aI0
aI0
aI0
aI0
aI0
aI0
aa(lp108
F92.85404114339276
aF-131.89092328029253
aF-15.063594694478692
aF3642.5349574883676
aF4062.336027147322
aF835.4007112984261
aF0.0010470007598763651
aF0.0010470007598763651
aF0.0010470007598763651
aF0.0010470007598763651
aF0.0010470007598763651
aF0.0010470007598763651
aF0.0010470007598763651
aF0.0010470007598763651
aF0.0010470007598763651
aF0.0010470007598763651
aI0
aI1
aI5
aI0
aI0
aI2
aI8
aI0
aI0
aI1
aI8
aI0
aI0
aI0
aI1
aI2
aI0
aI0
aI7
aI0
aI0
aI0
aI0
aI1
aI0
aI0
aI0
aI1
aI0
aI3
aI0
aI1
aI0
aI8
aI5
aI0
aI0
aI0
aI0
aI3
aI0
aI0
aI0
aI1
aI0
aI6
aI0
aI2
aI0
aI13
aI0
aI0
aI1
aI10
aI0
aI0
aI6
aI6
aI0
aI0
aI1
aI6
aI0
aI0
aI0
aI0
aI5
aI0
aI0
aI0
aI5
aI1
aI0
aI4
aI3
aI1
aI0
aI1
aI10
aI0
aI0
aI5
aI1
aI0
aI1
aI0
aI0
aI0
aI0
aI0
aI0
aI0
aI0
aI0
aI10
aI2
aI0
aI0
aI0
aI0
aI1
aI0
aI0
aI0
aI1
aI0
aI0
aI0
aI1
aI1
aI4
aI3
aI0
aI0
aI0
aI0
aI0
aI1
aI1
aI0
aI0
aI3
aI2
aI0
aI0
aI2
aI3
aI0
aI0
aI0
aI1
aI2
aI0
aI0
aI0
aI1
aI0
aI0
aI0
aI0
aI0
aI0
aI0
aI0
aI0
aI0
aI0
aI6
aI0
aI0
aI0
aI24
aI0
aI0
aI0
aI2
aI0
aI0
aI0
aI0
aI0
aI0
aI0
aI0
aI0
aI0
aI0
aI22
aI0
aI0
aI0
aI6
aI0
aI0
aI0
aI0
aI0
aI0
aI0
aI0
aI0
aI0
aI0
aI8
aI0
aI0
aI0
aI0
aI0
aI0
aI0
aI0
aI0
aI0
aI0
aI0
aI0
aI0
aI0
aI0
aI0
aI0
aI0
aI0
aI0
aI0
aI0
aI0
aI0
aI0
aI0
aI0
aI24
aI0
aI0
aI0
aI28
aI0
aI0
aI0
aI0
aI0
aI0
aI0
aI0
aI0
aI0
aI0
aI30
aI0
aI0
aI0
aI27
aI0
aI0
aI0
aI0
aI0
aI0
aI0
aI0
aI0
aI0
aI0
aI0
aI0
aI0
aI0
aI0
aI0
aI0
aI0
aI0
aI0
aI0
aI0
aI0
aI0
aI0
aI0
aI0
aI0
aI0
aI0
aI0
aI0
aI0
aI0
aI0
aI0
aI0
aI0
aI0
aI0
aI0
aI0
aI5
aI0
aI0
aI0
aI21
aI0
aI0
aI0
aI0
aI0
aI0
aI0
aI0
aI0
aI0
aI0
aI31
aI0
aI0
aI0
aI15
aI0
aI0
aI0
aI0
aI0
aI0
aI0
aI0
aI0
aI0
aI0
aI0
aI0
aI0
aI0
aI0
aI0
aI0
aI0
aI0
aI0
aI0
aI0
aa(lp109
F402.43295115199203
aF17.88141883955139
aF-19.794395802709957
aF6849.9533239731045
aF2756.5797691234966
aF238.37446195955286
aF7.058290609363297e-05
aF7.058290609363297e-05
aF7.058290609363297e-05
aF7.058290609363297e-05
aF7.058290609363297e-05
aF7.058290609363297e-05
aF7.058290609363297e-05
aF7.058290609363297e-05
aF7.058290609363297e-05
aF7.058290609363297e-05
aI0
aI0
aI0
aI0
aI0
aI0
aI0
aI0
aI0
aI0
aI0
aI0
aI0
aI2
aI0
aI0
aI0
aI0
aI12
aI0
aI0
aI0
aI0
aI1
aI0
aI0
aI0
aI1
aI0
aI8
aI0
aI0
aI0
aI1
aI9
aI0
aI0
aI0
aI0
aI0
aI0
aI0
aI0
aI0
aI0
aI15
aI0
aI0
aI0
aI5
aI5
aI0
aI0
aI7
aI5
aI0
aI0
aI9
aI6
aI0
aI0
aI13
aI0
aI0
aI0
aI6
aI10
aI0
aI0
aI4
aI7
aI0
aI0
aI6
aI7
aI0
aI0
aI6
aI5
aI0
aI0
aI7
aI6
aI0
aI2
aI0
aI0
aI0
aI0
aI0
aI0
aI0
aI0
aI2
aI9
aI4
aI0
aI0
aI0
aI0
aI0
aI0
aI0
aI0
aI0
aI0
aI0
aI0
aI0
aI0
aI4
aI0
aI0
aI0
aI0
aI0
aI0
aI0
aI0
aI0
aI0
aI0
aI0
aI0
aI0
aI3
aI0
aI0
aI0
aI0
aI1
aI1
aI0
aI0
aI0
aI1
aI0
aI0
aI0
aI0
aI0
aI0
aI0
aI0
aI0
aI0
aI0
aI1
aI0
aI0
aI0
aI23
aI0
aI0
aI0
aI0
aI0
aI0
aI0
aI0
aI0
aI0
aI0
aI0
aI0
aI0
aI0
aI52
aI0
aI0
aI0
aI0
aI0
aI0
aI0
aI0
aI0
aI0
aI0
aI0
aI0
aI0
aI0
aI9
aI0
aI0
aI0
aI0
aI0
aI0
aI0
aI0
aI0
aI0
aI0
aI0
aI0
aI0
aI0
aI0
aI0
aI0
aI0
aI0
aI0
aI0
aI0
aI0
aI0
aI0
aI0
aI0
aI24
aI0
aI0
aI0
aI25
aI0
aI0
aI0
aI0
aI0
aI0
aI0
aI0
aI0
aI0
aI0
aI22
aI0
aI0
aI0
aI28
aI0
aI0
aI0
aI0
aI0
aI0
aI0
aI0
aI0
aI0
aI0
aI0
aI0
aI0
aI0
aI0
aI0
aI0
aI0
aI0
aI0
aI0
aI0
aI0
aI0
aI0
aI0
aI0
aI0
aI0
aI0
aI0
aI0
aI0
aI0
aI0
aI0
aI0
aI0
aI0
aI0
aI0
aI0
aI12
aI0
aI0
aI0
aI28
aI0
aI0
aI0
aI0
aI0
aI0
aI0
aI0
aI0
aI0
aI0
aI27
aI0
aI0
aI0
aI21
aI0
aI0
aI0
aI0
aI0
aI0
aI0
aI0
aI0
aI0
aI0
aI0
aI0
aI0
aI0
aI0
aI0
aI0
aI0
aI0
aI0
aI0
aI0
aa(lp110
F388.9543776658736
aF-28.89357486467429
aF-2.8521851059619556
aF6074.222838782108
aF2949.278938111944
aF401.32568978454134
aF0.0007755806514917802
aF0.0007755806514917802
aF0.0007755806514917802
aF0.0007755806514917802
aF0.0007755806514917802
aF0.0007755806514917802
aF0.0007755806514917802
aF0.0007755806514917802
aF0.0007755806514917802
aF0.0007755806514917802
aI0
aI0
aI0
aI0
aI0
aI0
aI0
aI3
aI0
aI0
aI0
aI0
aI0
aI4
aI0
aI0
aI0
aI2
aI1
aI0
aI0
aI0
aI0
aI2
aI0
aI0
aI0
aI0
aI0
aI7
aI0
aI0
aI0
aI7
aI10
aI0
aI0
aI0
aI0
aI0
aI0
aI0
aI0
aI0
aI0
aI10
aI0
aI0
aI0
aI8
aI6
aI0
aI0
aI7
aI2
aI0
aI0
aI11
aI1
aI0
aI0
aI15
aI0
aI0
aI0
aI2
aI5
aI0
aI0
aI7
aI7
aI0
aI0
aI3
aI6
aI5
aI0
aI7
aI4
aI0
aI0
aI5
aI0
aI0
aI1
aI0
aI0
aI0
aI0
aI0
aI0
aI1
aI0
aI3
aI7
aI2
aI0
aI0
aI0
aI0
aI0
aI0
aI0
aI0
aI0
aI0
aI0
aI0
aI0
aI2
aI1
aI0
aI0
aI0
aI0
aI0
aI0
aI0
aI0
aI0
aI0
aI0
aI0
aI0
aI0
aI1
aI2
aI0
aI0
aI0
aI0
aI0
aI0
aI0
aI0
aI8
aI0
aI0
aI0
aI1
aI0
aI0
aI0
aI0
aI0
aI0
aI0
aI0
aI0
aI0
aI0
aI13
aI0
aI0
aI0
aI1
aI0
aI0
aI0
aI0
aI0
aI0
aI0
aI0
aI0
aI0
aI0
aI40
aI0
aI0
aI0
aI0
aI0
aI0
aI0
aI0
aI0
aI0
aI0
aI0
aI0
aI0
aI0
aI8
aI0
aI0
aI0
aI0
aI0
aI0
aI0
aI0
aI0
aI0
aI0
aI0
aI0
aI0
aI0
aI0
aI0
aI0
aI0
aI0
aI0
aI0
aI0
aI0
aI0
aI0
aI0
aI0
aI18
aI0
aI0
aI0
aI32
aI0
aI0
aI0
aI0
aI0
aI0
aI0
aI0
aI0
aI0
aI0
aI25
aI0
aI0
aI0
aI21
aI0
aI0
aI0
aI0
aI0
aI0
aI0
aI0
aI0
aI0
aI0
aI0
aI0
aI0
aI0
aI0
aI0
aI0
aI0
aI0
aI0
aI0
aI0
aI0
aI0
aI0
aI0
aI0
aI0
aI0
aI0
aI0
aI0
aI0
aI0
aI0
aI0
aI0
aI0
aI0
aI0
aI0
aI0
aI1
aI0
aI0
aI0
aI34
aI0
aI0
aI0
aI0
aI0
aI0
aI0
aI0
aI0
aI0
aI0
aI27
aI0
aI0
aI0
aI9
aI0
aI0
aI0
aI0
aI0
aI0
aI0
aI0
aI0
aI0
aI0
aI0
aI0
aI0
aI0
aI0
aI0
aI0
aI0
aI0
aI0
aI0
aI0
aa(lp111
F177.12914396022563
aF-90.75969488060338
aF-6.824668551841237
aF4908.272529655656
aF5780.831967356785
aF445.0236723896273
aF0.0005894694464134531
aF0.0005894694464134531
aF0.0005894694464134531
aF0.0005894694464134531
aF0.0005894694464134531
aF0.0005894694464134531
aF0.0005894694464134531
aF0.0005894694464134531
aF0.0005894694464134531
aF0.0005894694464134531
aI0
aI0
aI5
aI0
aI0
aI0
aI6
aI0
aI0
aI0
aI5
aI0
aI0
aI0
aI7
aI0
aI0
aI0
aI13
aI0
aI0
aI0
aI0
aI0
aI0
aI0
aI0
aI0
aI0
aI0
aI6
aI0
aI0
aI6
aI11
aI2
aI0
aI0
aI0
aI0
aI0
aI0
aI0
aI0
aI0
aI13
aI0
aI0
aI0
aI11
aI0
aI0
aI0
aI12
aI0
aI0
aI0
aI13
aI0
aI0
aI0
aI10
aI0
aI0
aI0
aI3
aI13
aI0
aI0
aI0
aI10
aI0
aI0
aI0
aI10
aI0
aI0
aI7
aI8
aI0
aI0
aI7
aI3
aI0
aI0
aI0
aI0
aI0
aI0
aI0
aI0
aI1
aI0
aI8
aI2
aI0
aI1
aI5
aI0
aI0
aI0
aI0
aI0
aI0
aI0
aI0
aI0
aI1
aI2
aI3
aI7
aI3
aI0
aI3
aI1
aI0
aI0
aI4
aI1
aI0
aI0
aI4
aI4
aI0
aI0
aI3
aI3
aI0
aI0
aI0
aI0
aI0
aI0
aI0
aI0
aI0
aI0
aI0
aI0
aI0
aI0
aI0
aI0
aI0
aI0
aI0
aI0
aI3
aI0
aI0
aI0
aI18
aI0
aI0
aI0
aI0
aI0
aI0
aI0
aI0
aI0
aI0
aI0
aI6
aI0
aI0
aI0
aI61
aI0
aI0
aI0
aI0
aI0
aI0
aI0
aI0
aI0
aI0
aI0
aI0
aI0
aI0
aI0
aI29
aI0
aI0
aI0
aI0
aI0
aI0
aI0
aI0
aI0
aI0
aI0
aI0
aI0
aI0
aI0
aI0
aI0
aI0
aI0
aI0
aI0
aI0
aI0
aI0
aI0
aI0
aI0
aI0
aI19
aI0
aI0
aI0
aI36
aI0
aI0
aI0
aI0
aI0
aI0
aI0
aI0
aI0
aI0
aI0
aI34
aI0
aI0
aI0
aI31
aI0
aI0
aI0
aI0
aI0
aI0
aI0
aI0
aI0
aI0
aI0
aI0
aI0
aI0
aI0
aI0
aI0
aI0
aI0
aI0
aI0
aI0
aI0
aI0
aI0
aI0
aI0
aI0
aI0
aI0
aI0
aI0
aI0
aI0
aI0
aI0
aI0
aI0
aI0
aI0
aI0
aI0
aI0
aI19
aI0
aI0
aI0
aI36
aI0
aI0
aI0
aI0
aI0
aI0
aI0
aI0
aI0
aI0
aI0
aI34
aI0
aI0
aI0
aI28
aI0
aI0
aI0
aI0
aI0
aI0
aI0
aI0
aI0
aI0
aI0
aI0
aI0
aI0
aI0
aI0
aI0
aI0
aI0
aI0
aI0
aI0
aI0
aa(lp112
F-153.7003757896663
aF1041.816754173438
aF-141.45004757584923
aF20.13845085710332
aF1304.4081465657368
aF17.86283113636309
aF2.994510553863114e-12
aF2.994510553863114e-12
aF2.994510553863114e-12
aF2.994510553863114e-12
aF2.994510553863114e-12
aF2.994510553863114e-12
aF2.994510553863114e-12
aF2.994510553863114e-12
aF2.994510553863114e-12
aF2.994510553863114e-12
aI0
aI0
aI0
aI0
aI0
aI0
aI0
aI0
aI0
aI0
aI0
aI0
aI0
aI0
aI0
aI0
aI0
aI0
aI0
aI0
aI0
aI0
aI0
aI0
aI0
aI0
aI0
aI0
aI0
aI13
aI1
aI0
aI0
aI0
aI0
aI0
aI0
aI0
aI0
aI0
aI0
aI0
aI0
aI0
aI0
aI0
aI0
aI0
aI0
aI0
aI0
aI0
aI0
aI0
aI0
aI0
aI0
aI0
aI0
aI0
aI0
aI0
aI0
aI0
aI0
aI0
aI0
aI0
aI0
aI0
aI0
aI0
aI1
aI0
aI0
aI0
aI0
aI0
aI0
aI0
aI0
aI2
aI1
aI0
aI1
aI0
aI0
aI0
aI0
aI0
aI0
aI0
aI1
aI1
aI0
aI0
aI1
aI1
aI11
aI0
aI1
aI0
aI0
aI0
aI0
aI0
aI0
aI1
aI4
aI2
aI2
aI1
aI0
aI0
aI3
aI1
aI1
aI0
aI1
aI0
aI3
aI1
aI0
aI0
aI1
aI0
aI0
aI0
aI0
aI0
aI0
aI0
aI0
aI0
aI0
aI0
aI0
aI0
aI0
aI0
aI0
aI0
aI0
aI0
aI0
aI0
aI0
aI0
aI0
aI0
aI0
aI0
aI0
aI0
aI0
aI0
aI0
aI0
aI0
aI0
aI0
aI0
aI0
aI0
aI0
aI0
aI0
aI9
aI0
aI0
aI0
aI0
aI0
aI0
aI0
aI0
aI0
aI0
aI0
aI0
aI0
aI0
aI0
aI31
aI0
aI0
aI0
aI2
aI0
aI0
aI0
aI0
aI0
aI0
aI0
aI0
aI0
aI0
aI0
aI0
aI0
aI0
aI0
aI0
aI0
aI0
aI0
aI0
aI0
aI0
aI0
aI0
aI0
aI0
aI0
aI0
aI8
aI0
aI0
aI0
aI0
aI0
aI0
aI0
aI0
aI0
aI0
aI0
aI6
aI0
aI0
aI0
aI0
aI0
aI0
aI0
aI0
aI0
aI0
aI0
aI0
aI0
aI0
aI0
aI0
aI0
aI0
aI0
aI0
aI0
aI0
aI0
aI0
aI0
aI0
aI0
aI0
aI0
aI0
aI0
aI0
aI0
aI0
aI0
aI0
aI0
aI0
aI0
aI0
aI0
aI0
aI0
aI0
aI0
aI0
aI0
aI10
aI0
aI0
aI0
aI9
aI0
aI0
aI0
aI0
aI0
aI0
aI0
aI0
aI0
aI0
aI0
aI8
aI0
aI0
aI0
aI15
aI0
aI0
aI0
aI0
aI0
aI0
aI0
aI0
aI0
aI0
aI0
aI0
aI0
aI0
aI0
aI0
aI0
aI0
aI0
aI0
aI0
aI0
aI0
aa(lp113
F-106.30218249969276
aF80.82969534064902
aF20.330760352003956
aF6676.392379073332
aF7153.752636667359
aF470.3232640077451
aF0.002230079719680795
aF0.002230079719680795
aF0.002230079719680795
aF0.002230079719680795
aF0.002230079719680795
aF0.002230079719680795
aF0.002230079719680795
aF0.002230079719680795
aF0.002230079719680795
aF0.002230079719680795
aI0
aI0
aI4
aI0
aI2
aI2
aI5
aI0
aI0
aI4
aI8
aI0
aI0
aI0
aI15
aI0
aI0
aI0
aI6
aI0
aI2
aI0
aI0
aI0
aI0
aI0
aI0
aI0
aI0
aI0
aI15
aI0
aI0
aI1
aI7
aI0
aI0
aI0
aI0
aI0
aI0
aI0
aI0
aI0
aI0
aI3
aI9
aI0
aI0
aI10
aI6
aI0
aI0
aI8
aI1
aI1
aI0
aI7
aI0
aI0
aI0
aI7
aI1
aI0
aI0
aI0
aI7
aI0
aI1
aI0
aI5
aI0
aI0
aI0
aI8
aI0
aI0
aI6
aI9
aI0
aI2
aI8
aI4
aI0
aI0
aI0
aI0
aI0
aI0
aI0
aI0
aI0
aI1
aI3
aI10
aI1
aI4
aI14
aI0
aI0
aI0
aI0
aI0
aI0
aI0
aI0
aI0
aI0
aI0
aI0
aI6
aI0
aI0
aI5
aI0
aI0
aI0
aI6
aI0
aI0
aI0
aI4
aI2
aI0
aI0
aI1
aI5
aI0
aI0
aI0
aI0
aI0
aI0
aI0
aI0
aI0
aI0
aI0
aI0
aI0
aI0
aI0
aI0
aI0
aI0
aI0
aI0
aI0
aI0
aI0
aI0
aI17
aI0
aI0
aI0
aI0
aI0
aI0
aI0
aI0
aI0
aI0
aI0
aI38
aI0
aI0
aI0
aI25
aI0
aI0
aI0
aI0
aI0
aI0
aI0
aI0
aI0
aI0
aI0
aI3
aI0
aI0
aI0
aI28
aI0
aI0
aI0
aI1
aI0
aI0
aI0
aI0
aI0
aI0
aI0
aI0
aI0
aI0
aI0
aI0
aI0
aI0
aI0
aI0
aI0
aI0
aI0
aI0
aI0
aI0
aI0
aI0
aI27
aI0
aI0
aI0
aI43
aI0
aI0
aI0
aI0
aI0
aI0
aI0
aI0
aI0
aI0
aI0
aI33
aI0
aI0
aI0
aI21
aI0
aI0
aI0
aI0
aI0
aI0
aI0
aI0
aI0
aI0
aI0
aI0
aI0
aI0
aI0
aI0
aI0
aI0
aI0
aI0
aI0
aI0
aI0
aI0
aI0
aI0
aI0
aI0
aI0
aI0
aI0
aI0
aI0
aI0
aI0
aI0
aI0
aI0
aI0
aI0
aI0
aI0
aI0
aI46
aI0
aI0
aI0
aI22
aI0
aI0
aI0
aI0
aI0
aI0
aI0
aI0
aI0
aI0
aI0
aI23
aI0
aI0
aI0
aI21
aI0
aI0
aI0
aI0
aI0
aI0
aI0
aI0
aI0
aI0
aI0
aI0
aI0
aI0
aI0
aI0
aI0
aI0
aI0
aI0
aI0
aI0
aI0
aa(lp114
F-126.26060443196856
aF18.02160592002475
aF13.766940792371454
aF4268.18314698046
aF6937.646387470122
aF336.5481921878981
aF0.017379050370728347
aF0.017379050370728347
aF0.017379050370728347
aF0.017379050370728347
aF0.017379050370728347
aF0.017379050370728347
aF0.017379050370728347
aF0.017379050370728347
aF0.017379050370728347
aF0.017379050370728347
aI0
aI0
aI5
aI0
aI2
aI5
aI5
aI0
aI0
aI4
aI9
aI0
aI0
aI0
aI8
aI0
aI0
aI0
aI7
aI0
aI1
aI0
aI0
aI0
aI0
aI0
aI0
aI0
aI0
aI0
aI7
aI1
aI0
aI7
aI1
aI0
aI0
aI0
aI0
aI0
aI0
aI0
aI0
aI0
aI0
aI1
aI7
aI0
aI0
aI7
aI0
aI0
aI0
aI5
aI0
aI0
aI1
aI6
aI0
aI0
aI0
aI5
aI0
aI0
aI0
aI0
aI4
aI0
aI0
aI1
aI5
aI0
aI0
aI0
aI6
aI0
aI0
aI0
aI5
aI0
aI1
aI9
aI0
aI0
aI0
aI0
aI0
aI0
aI0
aI0
aI0
aI1
aI0
aI1
aI5
aI2
aI1
aI0
aI0
aI0
aI0
aI0
aI0
aI0
aI0
aI0
aI0
aI0
aI0
aI3
aI6
aI1
aI0
aI0
aI0
aI0
aI1
aI0
aI0
aI0
aI0
aI1
aI3
aI0
aI0
aI0
aI1
aI0
aI0
aI0
aI0
aI0
aI0
aI0
aI0
aI0
aI0
aI0
aI0
aI0
aI0
aI0
aI0
aI0
aI0
aI0
aI0
aI0
aI0
aI0
aI0
aI13
aI0
aI0
aI0
aI3
aI0
aI0
aI0
aI0
aI0
aI0
aI0
aI0
aI0
aI0
aI0
aI21
aI0
aI0
aI0
aI3
aI0
aI0
aI0
aI0
aI0
aI0
aI0
aI0
aI0
aI0
aI0
aI17
aI0
aI0
aI0
aI0
aI0
aI0
aI0
aI0
aI0
aI0
aI0
aI0
aI0
aI0
aI0
aI0
aI0
aI0
aI0
aI0
aI0
aI0
aI0
aI0
aI0
aI0
aI0
aI0
aI22
aI0
aI0
aI0
aI24
aI0
aI0
aI0
aI0
aI0
aI0
aI0
aI0
aI0
aI0
aI0
aI29
aI0
aI0
aI0
aI19
aI0
aI0
aI0
aI0
aI0
aI0
aI0
aI0
aI0
aI0
aI0
aI0
aI0
aI0
aI0
aI0
aI0
aI0
aI0
aI0
aI0
aI0
aI0
aI0
aI0
aI0
aI0
aI0
aI0
aI0
aI0
aI0
aI0
aI0
aI0
aI0
aI0
aI0
aI0
aI0
aI0
aI0
aI0
aI3
aI0
aI0
aI0
aI20
aI0
aI0
aI0
aI0
aI0
aI0
aI0
aI0
aI0
aI0
aI0
aI22
aI0
aI0
aI0
aI12
aI0
aI0
aI0
aI0
aI0
aI0
aI0
aI0
aI0
aI0
aI0
aI0
aI0
aI0
aI0
aI0
aI0
aI0
aI0
aI0
aI0
aI0
aI0
aa(lp115
F-61.36051412771599
aF96.24916772616336
aF42.7548121008435
aF4269.785854126862
aF4602.284655306868
aF752.513129047087
aF0.002033865030143785
aF0.002033865030143785
aF0.002033865030143785
aF0.002033865030143785
aF0.002033865030143785
aF0.002033865030143785
aF0.002033865030143785
aF0.002033865030143785
aF0.002033865030143785
aF0.002033865030143785
aI0
aI0
aI6
aI0
aI0
aI0
aI5
aI0
aI0
aI0
aI5
aI0
aI0
aI7
aI10
aI0
aI0
aI0
aI8
aI0
aI0
aI0
aI0
aI0
aI0
aI0
aI0
aI1
aI0
aI7
aI1
aI6
aI0
aI5
aI3
aI2
aI0
aI0
aI0
aI0
aI0
aI0
aI0
aI0
aI0
aI9
aI0
aI1
aI0
aI6
aI0
aI0
aI0
aI8
aI0
aI0
aI0
aI5
aI0
aI0
aI0
aI5
aI0
aI0
aI0
aI0
aI5
aI0
aI0
aI0
aI5
aI0
aI3
aI0
aI7
aI0
aI0
aI2
aI6
aI0
aI2
aI7
aI3
aI0
aI0
aI0
aI0
aI0
aI4
aI0
aI0
aI0
aI0
aI0
aI6
aI0
aI8
aI1
aI0
aI0
aI2
aI0
aI0
aI0
aI0
aI0
aI0
aI0
aI1
aI2
aI5
aI2
aI2
aI2
aI0
aI0
aI0
aI8
aI0
aI0
aI0
aI0
aI8
aI0
aI0
aI0
aI3
aI1
aI0
aI0
aI0
aI0
aI0
aI0
aI0
aI0
aI0
aI0
aI0
aI0
aI0
aI0
aI0
aI0
aI0
aI0
aI0
aI1
aI0
aI0
aI0
aI18
aI0
aI0
aI0
aI0
aI0
aI0
aI0
aI0
aI0
aI0
aI5
aI24
aI0
aI0
aI0
aI28
aI0
aI0
aI0
aI0
aI0
aI0
aI0
aI0
aI0
aI0
aI0
aI7
aI0
aI0
aI0
aI12
aI0
aI0
aI0
aI0
aI0
aI0
aI0
aI0
aI0
aI0
aI0
aI0
aI0
aI0
aI0
aI0
aI0
aI0
aI0
aI0
aI0
aI0
aI0
aI0
aI0
aI0
aI0
aI0
aI35
aI0
aI0
aI0
aI22
aI0
aI0
aI0
aI0
aI0
aI0
aI0
aI0
aI0
aI0
aI0
aI24
aI0
aI0
aI0
aI19
aI0
aI0
aI0
aI0
aI0
aI0
aI0
aI0
aI0
aI0
aI0
aI0
aI0
aI0
aI0
aI0
aI0
aI0
aI0
aI0
aI0
aI0
aI0
aI0
aI0
aI0
aI0
aI0
aI0
aI0
aI0
aI0
aI0
aI0
aI0
aI0
aI0
aI0
aI0
aI0
aI0
aI0
aI0
aI32
aI0
aI0
aI0
aI17
aI0
aI0
aI0
aI0
aI0
aI0
aI0
aI0
aI0
aI0
aI0
aI25
aI0
aI0
aI0
aI21
aI0
aI0
aI0
aI0
aI0
aI0
aI0
aI0
aI0
aI0
aI0
aI0
aI0
aI0
aI0
aI0
aI0
aI0
aI0
aI0
aI0
aI0
aI0
aa(lp116
F-111.57258498792517
aF110.91590116360814
aF71.34877805690462
aF4405.863686402597
aF4325.174245122833
aF1078.3832652228543
aF0.0009840425344657588
aF0.0009840425344657588
aF0.0009840425344657588
aF0.0009840425344657588
aF0.0009840425344657588
aF0.0009840425344657588
aF0.0009840425344657588
aF0.0009840425344657588
aF0.0009840425344657588
aF0.0009840425344657588
aI0
aI0
aI8
aI0
aI0
aI0
aI7
aI0
aI0
aI2
aI3
aI0
aI0
aI4
aI13
aI2
aI0
aI0
aI6
aI0
aI0
aI0
aI0
aI0
aI0
aI0
aI0
aI3
aI0
aI7
aI1
aI4
aI0
aI1
aI9
aI2
aI0
aI0
aI0
aI0
aI0
aI0
aI0
aI1
aI0
aI9
aI0
aI0
aI0
aI9
aI0
aI0
aI0
aI7
aI0
aI0
aI0
aI6
aI0
aI0
aI0
aI5
aI0
aI0
aI0
aI0
aI5
aI0
aI0
aI0
aI5
aI0
aI0
aI0
aI5
aI0
aI0
aI6
aI4
aI0
aI0
aI2
aI8
aI0
aI0
aI0
aI0
aI0
aI1
aI0
aI0
aI0
aI3
aI3
aI4
aI0
aI9
aI4
aI0
aI0
aI2
aI0
aI0
aI0
aI0
aI0
aI0
aI0
aI0
aI1
aI6
aI0
aI4
aI3
aI0
aI0
aI1
aI9
aI1
aI0
aI0
aI5
aI4
aI0
aI0
aI2
aI5
aI1
aI0
aI0
aI0
aI0
aI0
aI0
aI0
aI0
aI0
aI0
aI0
aI0
aI0
aI0
aI0
aI0
aI0
aI0
aI0
aI2
aI0
aI0
aI0
aI22
aI0
aI0
aI0
aI0
aI0
aI0
aI0
aI0
aI0
aI0
aI4
aI27
aI0
aI0
aI0
aI43
aI0
aI0
aI0
aI0
aI0
aI0
aI0
aI0
aI0
aI0
aI0
aI5
aI0
aI0
aI0
aI0
aI0
aI0
aI0
aI0
aI0
aI0
aI0
aI0
aI0
aI0
aI0
aI0
aI0
aI0
aI0
aI0
aI0
aI0
aI0
aI0
aI0
aI0
aI0
aI0
aI0
aI0
aI0
aI0
aI32
aI0
aI0
aI0
aI28
aI0
aI0
aI0
aI0
aI0
aI0
aI0
aI0
aI0
aI0
aI0
aI26
aI0
aI0
aI0
aI23
aI0
aI0
aI0
aI0
aI0
aI0
aI0
aI0
aI0
aI0
aI0
aI0
aI0
aI0
aI0
aI0
aI0
aI0
aI0
aI0
aI0
aI0
aI0
aI0
aI0
aI0
aI0
aI0
aI0
aI0
aI0
aI0
aI0
aI0
aI0
aI0
aI0
aI0
aI0
aI0
aI0
aI0
aI0
aI27
aI0
aI0
aI0
aI23
aI0
aI0
aI0
aI0
aI0
aI0
aI0
aI0
aI0
aI0
aI0
aI27
aI0
aI0
aI0
aI26
aI0
aI0
aI0
aI0
aI0
aI0
aI0
aI0
aI0
aI0
aI0
aI0
aI0
aI0
aI0
aI0
aI0
aI0
aI0
aI0
aI0
aI0
aI0
aa(lp117
F61.357550311259594
aF50.3985861420859
aF-16.506140301907543
aF4377.846381524529
aF5310.2403021468035
aF291.8938004970825
aF0.0025424714983610223
aF0.0025424714983610223
aF0.0025424714983610223
aF0.0025424714983610223
aF0.0025424714983610223
aF0.0025424714983610223
aF0.0025424714983610223
aF0.0025424714983610223
aF0.0025424714983610223
aF0.0025424714983610223
aI1
aI2
aI4
aI0
aI1
aI3
aI0
aI5
aI0
aI6
aI0
aI0
aI0
aI7
aI7
aI0
aI1
aI0
aI6
aI0
aI0
aI0
aI0
aI0
aI1
aI0
aI0
aI0
aI3
aI9
aI4
aI0
aI0
aI0
aI21
aI1
aI0
aI0
aI0
aI0
aI0
aI0
aI0
aI0
aI0
aI12
aI0
aI0
aI0
aI9
aI2
aI0
aI0
aI7
aI2
aI0
aI0
aI7
aI3
aI0
aI0
aI12
aI0
aI0
aI0
aI1
aI10
aI0
aI0
aI3
aI4
aI0
aI0
aI6
aI6
aI0
aI0
aI6
aI5
aI0
aI0
aI5
aI15
aI0
aI0
aI0
aI0
aI0
aI0
aI0
aI0
aI4
aI0
aI11
aI6
aI1
aI0
aI7
aI0
aI0
aI0
aI0
aI0
aI0
aI0
aI0
aI0
aI1
aI0
aI1
aI4
aI1
aI0
aI0
aI0
aI0
aI0
aI0
aI0
aI0
aI0
aI0
aI0
aI0
aI0
aI3
aI2
aI0
aI0
aI0
aI0
aI0
aI0
aI0
aI0
aI0
aI0
aI0
aI0
aI0
aI0
aI0
aI0
aI0
aI0
aI0
aI0
aI0
aI0
aI0
aI0
aI16
aI0
aI0
aI0
aI7
aI0
aI0
aI0
aI0
aI0
aI0
aI0
aI0
aI0
aI0
aI0
aI79
aI0
aI0
aI0
aI0
aI0
aI0
aI0
aI0
aI0
aI0
aI0
aI0
aI0
aI0
aI0
aI0
aI0
aI0
aI0
aI0
aI0
aI0
aI0
aI0
aI0
aI0
aI0
aI0
aI0
aI0
aI0
aI0
aI0
aI0
aI0
aI0
aI0
aI0
aI0
aI0
aI0
aI0
aI0
aI0
aI32
aI0
aI0
aI0
aI38
aI0
aI0
aI0
aI0
aI0
aI0
aI0
aI0
aI0
aI0
aI0
aI32
aI0
aI0
aI0
aI34
aI0
aI0
aI0
aI0
aI0
aI0
aI0
aI0
aI0
aI0
aI0
aI0
aI0
aI0
aI0
aI0
aI0
aI0
aI0
aI0
aI0
aI0
aI0
aI0
aI0
aI0
aI0
aI0
aI0
aI0
aI0
aI0
aI0
aI0
aI0
aI0
aI0
aI0
aI0
aI0
aI0
aI0
aI0
aI14
aI0
aI0
aI0
aI34
aI0
aI0
aI0
aI0
aI0
aI0
aI0
aI0
aI0
aI0
aI0
aI33
aI0
aI0
aI0
aI21
aI0
aI0
aI0
aI0
aI0
aI0
aI0
aI0
aI0
aI0
aI0
aI0
aI0
aI0
aI0
aI0
aI0
aI0
aI0
aI0
aI0
aI0
aI0
aa(lp118
F-183.38299945009382
aF41.136228394674426
aF19.699775632369995
aF4811.928390300162
aF5381.92506881713
aF441.3448321819134
aF0.00129643667364242
aF0.00129643667364242
aF0.00129643667364242
aF0.00129643667364242
aF0.00129643667364242
aF0.00129643667364242
aF0.00129643667364242
aF0.00129643667364242
aF0.00129643667364242
aF0.00129643667364242
aI0
aI0
aI5
aI0
aI4
aI6
aI6
aI0
aI0
aI5
aI13
aI4
aI0
aI2
aI5
aI0
aI0
aI0
aI7
aI0
aI2
aI0
aI0
aI0
aI0
aI0
aI0
aI1
aI0
aI8
aI0
aI1
aI0
aI0
aI8
aI0
aI0
aI0
aI0
aI0
aI0
aI0
aI0
aI0
aI0
aI10
aI0
aI0
aI0
aI6
aI4
aI0
aI0
aI7
aI0
aI0
aI0
aI6
aI0
aI0
aI0
aI5
aI0
aI0
aI0
aI0
aI4
aI0
aI0
aI0
aI5
aI0
aI0
aI1
aI7
aI0
aI0
aI7
aI1
aI0
aI1
aI5
aI7
aI0
aI0
aI0
aI0
aI0
aI0
aI0
aI0
aI0
aI0
aI3
aI4
aI0
aI1
aI1
aI0
aI0
aI0
aI0
aI0
aI0
aI1
aI0
aI0
aI0
aI0
aI0
aI8
aI0
aI0
aI0
aI0
aI0
aI0
aI0
aI0
aI0
aI1
aI5
aI0
aI0
aI0
aI0
aI4
aI1
aI0
aI0
aI0
aI0
aI0
aI0
aI0
aI0
aI0
aI0
aI0
aI0
aI0
aI0
aI0
aI0
aI0
aI0
aI0
aI0
aI0
aI0
aI0
aI19
aI0
aI0
aI0
aI0
aI0
aI0
aI0
aI0
aI0
aI0
aI0
aI0
aI0
aI0
aI0
aI48
aI0
aI0
aI0
aI0
aI0
aI0
aI0
aI0
aI0
aI0
aI0
aI0
aI0
aI0
aI0
aI0
aI0
aI0
aI0
aI0
aI0
aI0
aI0
aI0
aI0
aI0
aI0
aI0
aI0
aI0
aI0
aI0
aI0
aI0
aI0
aI0
aI0
aI0
aI0
aI0
aI0
aI0
aI0
aI0
aI33
aI0
aI0
aI0
aI26
aI0
aI0
aI0
aI0
aI0
aI0
aI0
aI0
aI0
aI0
aI0
aI33
aI0
aI0
aI0
aI23
aI0
aI0
aI0
aI0
aI0
aI0
aI0
aI0
aI0
aI0
aI0
aI0
aI0
aI0
aI0
aI0
aI0
aI0
aI0
aI0
aI0
aI0
aI0
aI0
aI0
aI0
aI0
aI0
aI0
aI0
aI0
aI0
aI0
aI0
aI0
aI0
aI0
aI0
aI0
aI0
aI0
aI0
aI0
aI6
aI0
aI0
aI0
aI21
aI0
aI0
aI0
aI0
aI0
aI0
aI0
aI0
aI0
aI0
aI0
aI25
aI0
aI0
aI0
aI15
aI0
aI0
aI0
aI0
aI0
aI0
aI0
aI0
aI0
aI0
aI0
aI0
aI0
aI0
aI0
aI0
aI0
aI0
aI0
aI0
aI0
aI0
aI0
aa(lp119
F-144.77836484752805
aF69.96721051081143
aF67.46740512731976
aF4940.71111294891
aF5507.247195385671
aF1259.743290765617
aF0.0008595397885112311
aF0.0008595397885112311
aF0.0008595397885112311
aF0.0008595397885112311
aF0.0008595397885112311
aF0.0008595397885112311
aF0.0008595397885112311
aF0.0008595397885112311
aF0.0008595397885112311
aF0.0008595397885112311
aI0
aI0
aI6
aI0
aI1
aI1
aI4
aI0
aI0
aI6
aI11
aI0
aI0
aI2
aI7
aI3
aI0
aI0
aI7
aI0
aI0
aI0
aI0
aI0
aI0
aI0
aI0
aI0
aI0
aI9
aI0
aI0
aI0
aI0
aI7
aI3
aI0
aI0
aI0
aI4
aI0
aI0
aI0
aI0
aI0
aI10
aI0
aI0
aI0
aI7
aI2
aI0
aI0
aI7
aI0
aI0
aI0
aI6
aI0
aI0
aI0
aI5
aI0
aI0
aI0
aI0
aI6
aI0
aI0
aI0
aI6
aI0
aI0
aI1
aI6
aI0
aI0
aI7
aI0
aI0
aI0
aI2
aI7
aI0
aI0
aI0
aI0
aI0
aI0
aI0
aI0
aI0
aI0
aI2
aI5
aI0
aI1
aI4
aI0
aI0
aI0
aI0
aI0
aI0
aI0
aI0
aI0
aI0
aI0
aI1
aI4
aI1
aI0
aI0
aI0
aI0
aI0
aI1
aI0
aI0
aI0
aI6
aI0
aI0
aI0
aI0
aI8
aI0
aI0
aI0
aI0
aI0
aI0
aI0
aI0
aI0
aI0
aI0
aI0
aI0
aI0
aI0
aI0
aI0
aI0
aI0
aI0
aI0
aI0
aI0
aI0
aI15
aI0
aI0
aI0
aI3
aI0
aI0
aI0
aI0
aI0
aI0
aI0
aI0
aI0
aI0
aI0
aI46
aI0
aI0
aI0
aI4
aI0
aI0
aI0
aI0
aI0
aI0
aI0
aI0
aI0
aI0
aI0
aI0
aI0
aI0
aI0
aI0
aI0
aI0
aI0
aI0
aI0
aI0
aI0
aI0
aI0
aI0
aI0
aI0
aI0
aI0
aI0
aI0
aI0
aI0
aI0
aI0
aI0
aI0
aI0
aI0
aI29
aI0
aI0
aI0
aI30
aI0
aI0
aI0
aI0
aI0
aI0
aI0
aI0
aI0
aI0
aI0
aI26
aI0
aI0
aI0
aI23
aI0
aI0
aI0
aI0
aI0
aI0
aI0
aI0
aI0
aI0
aI0
aI0
aI0
aI0
aI0
aI0
aI0
aI0
aI0
aI0
aI0
aI0
aI0
aI0
aI0
aI0
aI0
aI0
aI0
aI0
aI0
aI0
aI0
aI0
aI0
aI0
aI0
aI0
aI0
aI0
aI0
aI0
aI0
aI11
aI0
aI0
aI0
aI21
aI0
aI0
aI0
aI0
aI0
aI0
aI0
aI0
aI0
aI0
aI0
aI21
aI0
aI0
aI0
aI15
aI0
aI0
aI0
aI0
aI0
aI0
aI0
aI0
aI0
aI0
aI0
aI0
aI0
aI0
aI0
aI0
aI0
aI0
aI0
aI0
aI0
aI0
aI0
aa(lp120
F-168.5224918736886
aF-3.9031944573106574
aF24.43287787494335
aF4193.67586332684
aF7507.379150282673
aF261.0413864905563
aF0.0008979131008955689
aF0.0008979131008955689
aF0.0008979131008955689
aF0.0008979131008955689
aF0.0008979131008955689
aF0.0008979131008955689
aF0.0008979131008955689
aF0.0008979131008955689
aF0.0008979131008955689
aF0.0008979131008955689
aI0
aI0
aI4
aI0
aI2
aI5
aI15
aI0
aI0
aI5
aI4
aI2
aI0
aI0
aI8
aI0
aI0
aI0
aI13
aI0
aI1
aI0
aI0
aI0
aI0
aI0
aI0
aI0
aI0
aI3
aI6
aI0
aI0
aI3
aI7
aI0
aI0
aI0
aI0
aI0
aI0
aI0
aI0
aI0
aI0
aI6
aI4
aI0
aI0
aI7
aI0
aI0
aI0
aI7
aI0
aI0
aI0
aI6
aI0
aI0
aI0
aI6
aI0
aI0
aI0
aI0
aI6
aI0
aI0
aI0
aI5
aI0
aI0
aI0
aI6
aI0
aI0
aI4
aI4
aI0
aI0
aI3
aI7
aI0
aI0
aI0
aI0
aI0
aI0
aI0
aI0
aI0
aI0
aI8
aI0
aI0
aI0
aI8
aI1
aI0
aI0
aI0
aI0
aI0
aI0
aI0
aI0
aI0
aI0
aI4
aI8
aI0
aI0
aI2
aI0
aI0
aI0
aI4
aI0
aI0
aI1
aI6
aI0
aI1
aI0
aI3
aI3
aI0
aI0
aI0
aI0
aI0
aI0
aI0
aI0
aI0
aI0
aI0
aI0
aI0
aI0
aI0
aI0
aI0
aI0
aI0
aI0
aI0
aI0
aI0
aI0
aI18
aI0
aI0
aI0
aI0
aI0
aI0
aI0
aI0
aI0
aI0
aI0
aI0
aI0
aI0
aI0
aI64
aI0
aI0
aI0
aI2
aI0
aI0
aI0
aI0
aI0
aI0
aI0
aI0
aI0
aI0
aI0
aI0
aI0
aI0
aI0
aI0
aI0
aI0
aI0
aI0
aI0
aI0
aI0
aI0
aI0
aI0
aI0
aI0
aI0
aI0
aI0
aI0
aI0
aI0
aI0
aI0
aI0
aI0
aI0
aI0
aI28
aI0
aI0
aI0
aI28
aI0
aI0
aI0
aI0
aI0
aI0
aI0
aI0
aI0
aI0
aI0
aI33
aI0
aI0
aI0
aI25
aI0
aI0
aI0
aI0
aI0
aI0
aI0
aI0
aI0
aI0
aI0
aI0
aI0
aI0
aI0
aI0
aI0
aI0
aI0
aI0
aI0
aI0
aI0
aI0
aI0
aI0
aI0
aI0
aI0
aI0
aI0
aI0
aI0
aI0
aI0
aI0
aI0
aI0
aI0
aI0
aI0
aI0
aI0
aI18
aI0
aI0
aI0
aI22
aI0
aI0
aI0
aI0
aI0
aI0
aI0
aI0
aI0
aI0
aI0
aI23
aI0
aI0
aI0
aI21
aI0
aI0
aI0
aI0
aI0
aI0
aI0
aI0
aI0
aI0
aI0
aI0
aI0
aI0
aI0
aI0
aI0
aI0
aI0
aI0
aI0
aI0
aI0
aaa(lp121
I0
aI0
aI0
aI0
aI0
aI0
aI0
aI0
aI0
aI0
aI0
aI0
aI0
aI0
aI0
aI0
aI0
aI0
aI0
aI0
aI0
aI0
aI0
aI0
aI0
aI1
aI1
aI1
aI1
aI1
aI1
aI1
aI1
aI1
aI1
aI1
aI1
aI1
aI1
aI1
aI1
aI1
aI1
aI1
aI1
aI1
aI1
aI2
aI2
aI2
aI2
aI2
aI2
aI2
aI2
aI2
aI2
aI2
aI2
aI2
aI2
aI2
aI2
aI2
aI2
aI2
aI2
aI2
aI2
aI2
aI3
aI3
aI3
aI3
aI3
aI3
aI3
aI3
aI3
aI3
aI3
aI3
aI3
aI3
aI3
aI3
aI3
aI3
aI3
aI3
aI3
aI3
aI3
aI3
aI4
aI4
aI4
aI4
aI4
aI4
aI4
aI4
aI4
aI4
aI4
aI4
aI4
aI4
aI4
aI4
aI4
aI4
aI4
aI4
aI4
aI4
aI4
aI4
aI4
aa(dp122
S'clap\n'
p123
I2
sS'downfist\n'
p124
I4
sS'right\n'
p125
I1
sS'left\n'
p126
I0
sS'cross_swipe\n'
p127
I3
sa.